 Defcon

 Timestamp is 501f38e7 (Sun Aug 05 20:24:23 2012)

 Preferred load address is 00400000

 Start         Length     Name                   Class
 0001:00000000 0013bbacH .text                   CODE
 0001:0013bbb0 0000677aH .text$x                 CODE
 0001:00142330 0000042bH .text$yc                CODE
 0001:00142760 0000019eH .text$yd                CODE
 0002:00000000 0000043cH .idata$5                DATA
 0002:0000043c 00000004H .CRT$XCA                DATA
 0002:00000440 0000000cH .CRT$XCC                DATA
 0002:0000044c 00000008H .CRT$XCL                DATA
 0002:00000454 00000078H .CRT$XCU                DATA
 0002:000004cc 00000004H .CRT$XCZ                DATA
 0002:000004d0 00000004H .CRT$XIA                DATA
 0002:000004d4 00000018H .CRT$XIC                DATA
 0002:000004ec 00000004H .CRT$XID                DATA
 0002:000004f0 00000004H .CRT$XIY                DATA
 0002:000004f4 00000004H .CRT$XIZ                DATA
 0002:000004f8 00000004H .CRT$XPA                DATA
 0002:000004fc 00000004H .CRT$XPX                DATA
 0002:00000500 00000004H .CRT$XPXA               DATA
 0002:00000504 00000004H .CRT$XPZ                DATA
 0002:00000508 00000004H .CRT$XTA                DATA
 0002:0000050c 00000004H .CRT$XTZ                DATA
 0002:00000510 00040910H .rdata                  DATA
 0002:00040e20 0000003bH .rdata$debug            DATA
 0002:00040e5c 00007000H .rdata$r                DATA
 0002:00047e5c 00000004H .rtc$IAA                DATA
 0002:00047e60 00000004H .rtc$IZZ                DATA
 0002:00047e64 00000004H .rtc$TAA                DATA
 0002:00047e68 00000004H .rtc$TZZ                DATA
 0002:00047e70 0000687cH .xdata$x                DATA
 0002:0004e6ec 000000c8H .idata$2                DATA
 0002:0004e7b4 00000014H .idata$3                DATA
 0002:0004e7c8 0000043cH .idata$4                DATA
 0002:0004ec04 0000105aH .idata$6                DATA
 0002:0004fc5e 00000000H .edata                  DATA
 0003:00000000 00010900H .data                   DATA
 0003:00010900 00012e58H .bss                    DATA
 0004:00000000 000003b8H .rsrc$01                DATA
 0004:000003c0 00016750H .rsrc$02                DATA

  Address         Publics by Value              Rva+Base       Lib:Object

 0000:00000000       __except_list              00000000     <absolute>
 0000:00000000       ___safe_se_handler_count   00000000     <absolute>
 0000:00000000       ___safe_se_handler_table   00000000     <absolute>
 0000:00000000       ___ImageBase               00400000     <linker-defined>
 0001:00000000       ?WindowW@WindowManager@@QAEHXZ 00401000 f i app.obj
 0001:00000010       ?WindowH@WindowManager@@QAEHXZ 00401010 f i app.obj
 0001:00000020       ?CLAMP@@YANN@Z             00401020 f i app.obj
 0001:00000040       ??0Fixed@@QAE@H@Z          00401040 f i app.obj
 0001:00000070       ??XFixed@@QAEAAV0@ABV0@@Z  00401070 f i app.obj
 0001:00000090       ??0App@@QAE@XZ             00401090 f   app.obj
 0001:000000e0       ??1App@@QAE@XZ             004010e0 f   app.obj
 0001:00000310       ??_GClientToServer@@QAEPAXI@Z 00401310 f i app.obj
 0001:00000330       ??_GGame@@QAEPAXI@Z        00401330 f i app.obj
 0001:00000360       ??_GEarthData@@QAEPAXI@Z   00401360 f i app.obj
 0001:00000390       ??_GInterface@@QAEPAXI@Z   00401390 f i app.obj
 0001:000003b0       ??_GLobbyRenderer@@QAEPAXI@Z 004013b0 f i app.obj
 0001:000003d0       ??_GMapRenderer@@QAEPAXI@Z 004013d0 f i app.obj
 0001:000003f0       ??_GServer@@QAEPAXI@Z      004013f0 f i app.obj
 0001:00000410       ??_GTutorial@@QAEPAXI@Z    00401410 f i app.obj
 0001:00000430       ??_GLanguageTable@@QAEPAXI@Z 00401430 f i app.obj
 0001:00000450       ??_GPreferences@@QAEPAXI@Z 00401450 f i app.obj
 0001:00000470       ??_GFileSystem@@QAEPAXI@Z  00401470 f i app.obj
 0001:00000490       ??_GProfiler@@QAEPAXI@Z    00401490 f i app.obj
 0001:000004b0       ??_GResource@@QAEPAXI@Z    004014b0 f i app.obj
 0001:00000530       ??_GSoundSystem@@QAEPAXI@Z 00401530 f i app.obj
 0001:00000550       ??1Game@@QAE@XZ            00401550 f i app.obj
 0001:00000580       ??1EarthData@@QAE@XZ       00401580 f i app.obj
 0001:000005a0       ??1Interface@@QAE@XZ       004015a0 f i app.obj
 0001:000005b0       ??1Tutorial@@QAE@XZ        004015b0 f i app.obj
 0001:000005c0       ??1Resource@@QAE@XZ        004015c0 f i app.obj
 0001:00000630       ?InitMetaServer@App@@QAEXXZ 00401630 f   app.obj
 0001:00000720       ?MinimalInit@App@@QAEXXZ   00401720 f   app.obj
 0001:000009d0       ?FinishInit@App@@QAEXXZ    004019d0 f   app.obj
 0001:00000ad0       ??0DefconSoundInterface@@QAE@XZ 00401ad0 f i app.obj
 0001:00000ae0       ??0SoundSystemInterface@@QAE@XZ 00401ae0 f i app.obj
 0001:00000af0       ?NotifyStartupErrors@App@@QAEXXZ 00401af0 f   app.obj
 0001:00000c70       ?InitFonts@App@@QAEXXZ     00401c70 f   app.obj
 0001:00000e00       ?InitialiseWindow@App@@QAEXXZ 00401e00 f   app.obj
 0001:00001210       ?ReinitialiseWindow@App@@QAEXXZ 00402210 f   app.obj
 0001:00001240       ?Update@App@@QAEXXZ        00402240 f   app.obj
 0001:000012a0       ?Render@App@@QAEXXZ        004022a0 f   app.obj
 0001:000013b0       ?RenderTitleScreen@App@@QAEXXZ 004023b0 f   app.obj
 0001:00001620       ?RenderOwner@App@@QAEXXZ   00402620 f   app.obj
 0001:00001810       ?Shutdown@App@@QAEXXZ      00402810 f   app.obj
 0001:00001890       ?StartGame@App@@QAEXXZ     00402890 f   app.obj
 0001:00001c60       ?StartTutorial@App@@QAEXH@Z 00402c60 f   app.obj
 0001:00001cd0       ?InitServer@App@@QAE_NXZ   00402cd0 f   app.obj
 0001:00002050       ?ShutdownCurrentGame@App@@QAEXXZ 00403050 f   app.obj
 0001:00002210       ??_GWorld@@QAEPAXI@Z       00403210 f i app.obj
 0001:00002230       ??1World@@QAE@XZ           00403230 f i app.obj
 0001:00002340       ??1?$FastDArray@PAVWorldObject@@@@QAE@XZ 00403340 f i app.obj
 0001:00002350       ??1?$FastDArray@PAVGunFire@@@@QAE@XZ 00403350 f i app.obj
 0001:00002360       ??1?$FastDArray@PAVExplosion@@@@QAE@XZ 00403360 f i app.obj
 0001:00002370       ??1VotingSystem@@QAE@XZ    00403370 f i app.obj
 0001:00002380       ?InitWorld@App@@QAEXXZ     00403380 f   app.obj
 0001:00002400       ?GetMapRenderer@App@@QAEPAVMapRenderer@@XZ 00403400 f   app.obj
 0001:00002430       ?GetLobbyRenderer@App@@QAEPAVLobbyRenderer@@XZ 00403430 f   app.obj
 0001:00002460       ?GetInterface@App@@QAEPAVInterface@@XZ 00403460 f   app.obj
 0001:00002490       ?GetClientToServer@App@@QAEPAVClientToServer@@XZ 00403490 f   app.obj
 0001:000024c0       ?GetServer@App@@QAEPAVServer@@XZ 004034c0 f   app.obj
 0001:000024d0       ?GetWorld@App@@QAEPAVWorld@@XZ 004034d0 f   app.obj
 0001:00002500       ?GetEarthData@App@@QAEPAVEarthData@@XZ 00403500 f   app.obj
 0001:00002530       ?GetGame@App@@QAEPAVGame@@XZ 00403530 f   app.obj
 0001:00002560       ?GetStatusIcon@App@@QAEPAVStatusIcon@@XZ 00403560 f   app.obj
 0001:00002570       ?GetTutorial@App@@QAEPAVTutorial@@XZ 00403570 f   app.obj
 0001:00002590       ?GetPrefsPath@App@@SAPBDXZ 00403590 f   app.obj
 0001:000025c0       ?GetAuthKeyPath@App@@SAPBDXZ 004035c0 f   app.obj
 0001:000025f0       ?HideWindow@App@@QAEXXZ    004035f0 f   app.obj
 0001:00002630       ?InitStatusIcon@App@@QAEXXZ 00403630 f   app.obj
 0001:00002660       ?MousePointerIsVisible@App@@QAE_NXZ 00403660 f   app.obj
 0001:00002670       ?SetMousePointerVisible@App@@QAEX_N@Z 00403670 f   app.obj
 0001:00002680       ?SaveGameName@App@@QAEXXZ  00403680 f   app.obj
 0001:000027f0       ?RestartAmbienceMusic@App@@QAEXXZ 004037f0 f   app.obj
 0001:00002820       ??1?$LList@H@@QAE@XZ       00403820 f i app.obj
 0001:00002830       ??1?$BTree@PAVImage@@@@QAE@XZ 00403830 f i app.obj
 0001:00002840       ??1?$BTree@PAVBitmapFont@@@@QAE@XZ 00403840 f i app.obj
 0001:00002850       ??1?$BTree@_N@@QAE@XZ      00403850 f i app.obj
 0001:00002860       ??1?$BTree@I@@QAE@XZ       00403860 f i app.obj
 0001:00002870       ??1?$LList@PAVGameOption@@@@QAE@XZ 00403870 f i app.obj
 0001:00002880       ??A?$LList@PAVGameOption@@@@QAEPAVGameOption@@H@Z 00403880 f i app.obj
 0001:00002890       ??1?$BoundedArray@H@@QAE@XZ 00403890 f i app.obj
 0001:000028a0       ??1?$DArray@PAVTutorialChapter@@@@QAE@XZ 004038a0 f i app.obj
 0001:000028b0       ??1?$LList@PAVWorldMessage@@@@QAE@XZ 004038b0 f i app.obj
 0001:000028c0       ??1?$BoundedArray@_N@@QAE@XZ 004038c0 f i app.obj
 0001:000028d0       ??A?$BoundedArray@_N@@QAEAA_NI@Z 004038d0 f i app.obj
 0001:00002900       ??1?$BoundedArray@V?$Vector3@VFixed@@@@@@QAE@XZ 00403900 f i app.obj
 0001:00002910       ??1?$LList@PAVChatMessage@@@@QAE@XZ 00403910 f i app.obj
 0001:00002920       ??1?$LList@PAV?$Vector3@VFixed@@@@@@QAE@XZ 00403920 f i app.obj
 0001:00002930       ??1?$DArray@PAVVote@@@@QAE@XZ 00403930 f i app.obj
 0001:00002940       ??1?$LList@PAVCity@@@@QAE@XZ 00403940 f i app.obj
 0001:00002950       ??1?$DArray@PAVWorldObject@@@@QAE@XZ 00403950 f i app.obj
 0001:00002960       ??1?$LList@PAVNode@@@@QAE@XZ 00403960 f i app.obj
 0001:00002970       ??1?$DArray@PAVGunFire@@@@QAE@XZ 00403970 f i app.obj
 0001:00002980       ??1?$DArray@PAVExplosion@@@@QAE@XZ 00403980 f i app.obj
 0001:00002990       ??1?$LList@PAVTeam@@@@QAE@XZ 00403990 f i app.obj
 0001:000029a0       ?Size@?$LList@PAVTeam@@@@QBEHXZ 004039a0 f i app.obj
 0001:000029b0       ??A?$LList@PAVTeam@@@@QAEPAVTeam@@H@Z 004039b0 f i app.obj
 0001:000029c0       ??1?$LList@PAVSpectator@@@@QAE@XZ 004039c0 f i app.obj
 0001:000029d0       ??1?$LList@PAVIsland@@@@QAE@XZ 004039d0 f i app.obj
 0001:000029e0       ?Size@?$LList@PAVEclWindow@@@@QBEHXZ 004039e0 f i app.obj
 0001:000029f0       ??$max@H@std@@YAABHABH0@Z  004039f0 f i app.obj
 0001:00002a00       ??$min@H@std@@YAABHABH0@Z  00403a00 f i app.obj
 0001:00002a10       ?Empty@?$LList@H@@QAEXXZ   00403a10 f i app.obj
 0001:00002a50       ?Empty@?$BTree@PAVImage@@@@QAEXXZ 00403a50 f i app.obj
 0001:00002aa0       ?Empty@?$BTree@PAVBitmapFont@@@@QAEXXZ 00403aa0 f i app.obj
 0001:00002af0       ?Empty@?$BTree@_N@@QAEXXZ  00403af0 f i app.obj
 0001:00002b40       ?Empty@?$BTree@I@@QAEXXZ   00403b40 f i app.obj
 0001:00002b90       ?GetData@?$LList@PAVGameOption@@@@QBEPAVGameOption@@H@Z 00403b90 f i app.obj
 0001:00002ba0       ?Empty@?$LList@PAVGameOption@@@@QAEXXZ 00403ba0 f i app.obj
 0001:00002be0       ?Empty@?$BoundedArray@H@@QAEXXZ 00403be0 f i app.obj
 0001:00002c00       ?Empty@?$DArray@PAVTutorialChapter@@@@QAEXXZ 00403c00 f i app.obj
 0001:00002c30       ?Empty@?$LList@PAVWorldMessage@@@@QAEXXZ 00403c30 f i app.obj
 0001:00002c70       ?Empty@?$BoundedArray@_N@@QAEXXZ 00403c70 f i app.obj
 0001:00002c90       ?Empty@?$BoundedArray@V?$Vector3@VFixed@@@@@@QAEXXZ 00403c90 f i app.obj
 0001:00002cb0       ?Empty@?$LList@PAVChatMessage@@@@QAEXXZ 00403cb0 f i app.obj
 0001:00002cf0       ?Empty@?$LList@PAV?$Vector3@VFixed@@@@@@QAEXXZ 00403cf0 f i app.obj
 0001:00002d30       ?Empty@?$DArray@PAVVote@@@@QAEXXZ 00403d30 f i app.obj
 0001:00002d60       ?Empty@?$LList@PAVCity@@@@QAEXXZ 00403d60 f i app.obj
 0001:00002da0       ?Empty@?$DArray@PAVWorldObject@@@@QAEXXZ 00403da0 f i app.obj
 0001:00002dd0       ?Empty@?$LList@PAVNode@@@@QAEXXZ 00403dd0 f i app.obj
 0001:00002e10       ?Empty@?$DArray@PAVGunFire@@@@QAEXXZ 00403e10 f i app.obj
 0001:00002e40       ?Empty@?$DArray@PAVExplosion@@@@QAEXXZ 00403e40 f i app.obj
 0001:00002e70       ?GetData@?$LList@PAVTeam@@@@QBEPAVTeam@@H@Z 00403e70 f i app.obj
 0001:00002e80       ?Empty@?$LList@PAVTeam@@@@QAEXXZ 00403e80 f i app.obj
 0001:00002ec0       ?Empty@?$LList@PAVSpectator@@@@QAEXXZ 00403ec0 f i app.obj
 0001:00002f00       ?Empty@?$LList@PAVIsland@@@@QAEXXZ 00403f00 f i app.obj
 0001:00002f40       ??_G?$LListItem@H@@QAEPAXI@Z 00403f40 f i app.obj
 0001:00002f50       ??_G?$BTree@PAVImage@@@@QAEPAXI@Z 00403f50 f i app.obj
 0001:00002f70       ??_G?$BTree@PAVBitmapFont@@@@QAEPAXI@Z 00403f70 f i app.obj
 0001:00002f90       ??_G?$BTree@_N@@QAEPAXI@Z  00403f90 f i app.obj
 0001:00002fb0       ??_G?$BTree@I@@QAEPAXI@Z   00403fb0 f i app.obj
 0001:00002fd0       ??_G?$LListItem@PAVGameOption@@@@QAEPAXI@Z 00403fd0 f i app.obj
 0001:00002fe0       ??_G?$LListItem@PAVWorldMessage@@@@QAEPAXI@Z 00403fe0 f i app.obj
 0001:00002ff0       ??_G?$LListItem@PAVChatMessage@@@@QAEPAXI@Z 00403ff0 f i app.obj
 0001:00003000       ??_G?$LListItem@PAV?$Vector3@VFixed@@@@@@QAEPAXI@Z 00404000 f i app.obj
 0001:00003010       ??_G?$LListItem@PAVCity@@@@QAEPAXI@Z 00404010 f i app.obj
 0001:00003020       ??_G?$LListItem@PAVNode@@@@QAEPAXI@Z 00404020 f i app.obj
 0001:00003030       ??_G?$LListItem@PAVTeam@@@@QAEPAXI@Z 00404030 f i app.obj
 0001:00003040       ??_G?$LListItem@PAVSpectator@@@@QAEPAXI@Z 00404040 f i app.obj
 0001:00003050       ??_G?$LListItem@PAVIsland@@@@QAEPAXI@Z 00404050 f i app.obj
 0001:00003060       ??1?$LListItem@H@@QAE@XZ   00404060 f i app.obj
 0001:00003070       ?GetItem@?$LList@PAVGameOption@@@@IBEPAV?$LListItem@PAVGameOption@@@@H@Z 00404070 f i app.obj
 0001:00003100       ??1?$LListItem@PAVGameOption@@@@QAE@XZ 00404100 f i app.obj
 0001:00003110       ??1?$LListItem@PAVWorldMessage@@@@QAE@XZ 00404110 f i app.obj
 0001:00003120       ??1?$LListItem@PAVChatMessage@@@@QAE@XZ 00404120 f i app.obj
 0001:00003130       ??1?$LListItem@PAV?$Vector3@VFixed@@@@@@QAE@XZ 00404130 f i app.obj
 0001:00003140       ??1?$LListItem@PAVCity@@@@QAE@XZ 00404140 f i app.obj
 0001:00003150       ??1?$LListItem@PAVNode@@@@QAE@XZ 00404150 f i app.obj
 0001:00003160       ?GetItem@?$LList@PAVTeam@@@@IBEPAV?$LListItem@PAVTeam@@@@H@Z 00404160 f i app.obj
 0001:000031f0       ??1?$LListItem@PAVTeam@@@@QAE@XZ 004041f0 f i app.obj
 0001:00003200       ??1?$LListItem@PAVSpectator@@@@QAE@XZ 00404200 f i app.obj
 0001:00003210       ??1?$LListItem@PAVIsland@@@@QAE@XZ 00404210 f i app.obj
 0001:00003220       ?ValidIndex@?$LList@PAVGameOption@@@@QBE_NH@Z 00404220 f i app.obj
 0001:00003240       ?ValidIndex@?$LList@PAVTeam@@@@QBE_NH@Z 00404240 f i app.obj
 0001:00003260       ?strchr@@YAPADPADH@Z       00404260 f i app.obj
 0001:00003270       ??0Fixed@@AAE@N@Z          00404270 f i defcon_soundinterface.obj
 0001:00003290       ??0Fixed@@QAE@XZ           00404290 f i defcon_soundinterface.obj
 0001:000032a0       ?FromDouble@Fixed@@SA?AV1@N@Z 004042a0 f i defcon_soundinterface.obj
 0001:000032c0       ??OFixed@@QBE_NABV0@@Z     004042c0 f i defcon_soundinterface.obj
 0001:000032e0       ?DoubleValue@Fixed@@QBENXZ 004042e0 f i defcon_soundinterface.obj
 0001:000032f0       ??H@YA?AVFixed@@ABV0@0@Z   004042f0 f i defcon_soundinterface.obj
 0001:00003310       ??G@YA?AVFixed@@ABV0@0@Z   00404310 f i defcon_soundinterface.obj
 0001:00003330       ??D@YA?AVFixed@@ABV0@0@Z   00404330 f i defcon_soundinterface.obj
 0001:00003350       ?sqrt@@YA?AVFixed@@ABV1@@Z 00404350 f i defcon_soundinterface.obj
 0001:000034a0       ?ListObjectTypes@DefconSoundInterface@@UAE_NPAV?$LList@PAD@@@Z 004044a0 f   defcon_soundinterface.obj
 0001:00003560       ?ListObjectEvents@DefconSoundInterface@@UAE_NPAV?$LList@PAD@@PAD@Z 00404560 f   defcon_soundinterface.obj
 0001:00003730       ?DoesObjectExist@DefconSoundInterface@@UAE_NVSoundObjectId@@@Z 00404730 f   defcon_soundinterface.obj
 0001:00003770       ?GetObjectType@DefconSoundInterface@@UAEPADVSoundObjectId@@@Z 00404770 f   defcon_soundinterface.obj
 0001:000037c0       ?GetObjectPosition@DefconSoundInterface@@UAE_NVSoundObjectId@@AAV?$Vector3@M@@1@Z 004047c0 f   defcon_soundinterface.obj
 0001:00003830       ?GetCameraPosition@DefconSoundInterface@@UAE_NAAV?$Vector3@M@@000@Z 00404830 f   defcon_soundinterface.obj
 0001:000038b0       ?ListProperties@DefconSoundInterface@@UAE_NPAV?$LList@PAD@@@Z 004048b0 f   defcon_soundinterface.obj
 0001:00003940       ?GetPropertyRange@DefconSoundInterface@@UAE_NPADPAM1@Z 00404940 f   defcon_soundinterface.obj
 0001:00003a30       ?GetPropertyValue@DefconSoundInterface@@UAEMPADVSoundObjectId@@@Z 00404a30 f   defcon_soundinterface.obj
 0001:00003e80       ?Mag@?$Vector3@VFixed@@@@QBE?AVFixed@@XZ 00404e80 f i defcon_soundinterface.obj
 0001:00003f10       ??0?$Vector3@M@@QAE@XZ     00404f10 f i defcon_soundinterface.obj
 0001:00003f20       ??0?$Vector3@M@@QAE@MMM@Z  00404f20 f i defcon_soundinterface.obj
 0001:00003f40       ?Zero@?$Vector3@M@@QAEXXZ  00404f40 f i defcon_soundinterface.obj
 0001:00003f50       ?Set@?$Vector3@M@@QAEXMMM@Z 00404f50 f i defcon_soundinterface.obj
 0001:00003f70       ??G?$Vector3@M@@QBE?AV0@ABV0@@Z 00404f70 f i defcon_soundinterface.obj
 0001:00003f90       ?Mag@?$Vector3@M@@QBEMXZ   00404f90 f i defcon_soundinterface.obj
 0001:00003fd0       ?MagSquared@?$Vector3@VFixed@@@@QBE?AVFixed@@XZ 00404fd0 f i defcon_soundinterface.obj
 0001:00004050       ?MagSquared@?$Vector3@M@@QBEMXZ 00405050 f i defcon_soundinterface.obj
 0001:00004080       ?PutData@?$LList@PAD@@QAEXABQAD@Z 00405080 f i defcon_soundinterface.obj
 0001:00004090       ?Size@?$DArray@PAVExplosion@@@@QBEHXZ 00405090 f i defcon_soundinterface.obj
 0001:000040a0       ?ValidIndex@?$DArray@PAVExplosion@@@@QBE_NH@Z 004050a0 f i defcon_soundinterface.obj
 0001:000040c0       ??A?$DArray@PAVExplosion@@@@QAEAAPAVExplosion@@H@Z 004050c0 f i defcon_soundinterface.obj
 0001:00004110       ??$Clamp@M@@YAXAAMMM@Z     00405110 f i defcon_soundinterface.obj
 0001:00004130       ?PutDataAtEnd@?$LList@PAD@@QAEXABQAD@Z 00405130 f i defcon_soundinterface.obj
 0001:00004190       ??0?$LListItem@PAD@@QAE@XZ 00405190 f i defcon_soundinterface.obj
 0001:000041a0       _sqrtf                     004051a0 f i defcon_soundinterface.obj
 0001:000041c0       ?sqrt@@YAMM@Z              004051c0 f i defcon_soundinterface.obj
 0001:000041e0       ??ZFixed@@QAEAAV0@ABV0@@Z  004051e0 f i game.obj
 0001:00004200       ??MFixed@@QBE_NABV0@@Z     00405200 f i game.obj
 0001:00004220       ??NFixed@@QBE_NABV0@@Z     00405220 f i game.obj
 0001:00004240       ??8Fixed@@QBE_NABV0@@Z     00405240 f i game.obj
 0001:00004270       ??K@YA?AVFixed@@ABV0@0@Z   00405270 f i game.obj
 0001:00004290       ??0Game@@QAE@XZ            00405290 f   game.obj
 0001:00004560       ??0GameOption@@QAE@XZ      00405560 f i game.obj
 0001:00004570       ?ResetOptions@Game@@QAEXXZ 00405570 f   game.obj
 0001:000045b0       ?GetOption@Game@@QAEPAVGameOption@@PAD@Z 004055b0 f   game.obj
 0001:00004620       ?GetOptionIndex@Game@@QAEHPAD@Z 00405620 f   game.obj
 0001:00004690       ?GetOptionValue@Game@@QAEHPAD@Z 00405690 f   game.obj
 0001:000046b0       ?SetOptionValue@Game@@QAEXPADH@Z 004056b0 f   game.obj
 0001:000046d0       ?SetGameMode@Game@@QAEXH@Z 004056d0 f   game.obj
 0001:00004910       ?IsOptionEditable@Game@@QAE_NH@Z 00405910 f   game.obj
 0001:00004b80       ?CountNukes@Game@@IAEXXZ   00405b80 f   game.obj
 0001:00004ea0       ?CalculateScores@Game@@IAEXXZ 00405ea0 f   game.obj
 0001:00005030       ?Update@Game@@QAEXXZ       00406030 f   game.obj
 0001:00005b60       ?GetScore@Game@@QAEHH@Z    00406b60 f   game.obj
 0001:00005b90       ?ResetGame@Game@@QAEXXZ    00406b90 f   game.obj
 0001:00005c00       ?Copy@GameOption@@QAEXPAV1@@Z 00406c00 f   game.obj
 0001:00005cc0       ?TranslateValue@GameOption@@SAPADPAD@Z 00406cc0 f   game.obj
 0001:00005d70       ??0?$LList@PAD@@QAE@XZ     00406d70 f i game.obj
 0001:00005d90       ??1?$LList@PAD@@QAE@XZ     00406d90 f i game.obj
 0001:00005da0       ?Size@?$LList@PAD@@QBEHXZ  00406da0 f i game.obj
 0001:00005db0       ?Empty@?$LList@PAD@@QAEXXZ 00406db0 f i game.obj
 0001:00005df0       ??A?$LList@PAD@@QAEPADH@Z  00406df0 f i game.obj
 0001:00005e00       ??0?$LList@PAVGameOption@@@@QAE@XZ 00406e00 f i game.obj
 0001:00005e20       ?PutData@?$LList@PAVGameOption@@@@QAEXABQAVGameOption@@@Z 00406e20 f i game.obj
 0001:00005e30       ?Size@?$LList@PAVGameOption@@@@QBEHXZ 00406e30 f i game.obj
 0001:00005e40       ??0?$BoundedArray@H@@QAE@XZ 00406e40 f i game.obj
 0001:00005e50       ?Initialise@?$BoundedArray@H@@QAEXI@Z 00406e50 f i game.obj
 0001:00005e70       ??A?$BoundedArray@H@@QAEAAHI@Z 00406e70 f i game.obj
 0001:00005ea0       ??A?$LList@PAVWorldObjectState@@@@QAEPAVWorldObjectState@@H@Z 00406ea0 f i game.obj
 0001:00005eb0       ?Size@?$DArray@PAVWorldObject@@@@QBEHXZ 00406eb0 f i game.obj
 0001:00005ec0       ?ValidIndex@?$DArray@PAVWorldObject@@@@QBE_NH@Z 00406ec0 f i game.obj
 0001:00005ee0       ??A?$DArray@PAVWorldObject@@@@QAEAAPAVWorldObject@@H@Z 00406ee0 f i game.obj
 0001:00005f30       ?Size@?$LList@PAVSpectator@@@@QBEHXZ 00406f30 f i game.obj
 0001:00005f40       ??_G?$LListItem@PAD@@QAEPAXI@Z 00406f40 f i game.obj
 0001:00005f50       ?GetData@?$LList@PAD@@QBEPADH@Z 00406f50 f i game.obj
 0001:00005f60       ??1?$LListItem@PAD@@QAE@XZ 00406f60 f i game.obj
 0001:00005f70       ?PutDataAtEnd@?$LList@PAVGameOption@@@@QAEXABQAVGameOption@@@Z 00406f70 f i game.obj
 0001:00005fd0       ?GetData@?$LList@PAVWorldObjectState@@@@QBEPAVWorldObjectState@@H@Z 00406fd0 f i game.obj
 0001:00005fe0       ?GetItem@?$LList@PAD@@IBEPAV?$LListItem@PAD@@H@Z 00406fe0 f i game.obj
 0001:00006070       ??0?$LListItem@PAVGameOption@@@@QAE@XZ 00407070 f i game.obj
 0001:00006080       ?GetItem@?$LList@PAVWorldObjectState@@@@IBEPAV?$LListItem@PAVWorldObjectState@@@@H@Z 00407080 f i game.obj
 0001:00006110       ?ValidIndex@?$LList@PAD@@QBE_NH@Z 00407110 f i game.obj
 0001:00006120       ?ValidIndex@?$LList@PAVWorldObjectState@@@@QBE_NH@Z 00407120 f i game.obj
 0001:00006140       ??1GameHistory@@QAE@XZ     00407140 f i game_history.obj
 0001:00006150       ??0GameHistory@@QAE@XZ     00407150 f   game_history.obj
 0001:000061a0       ?JoinedGame@GameHistory@@QAEXPADHPBD@Z 004071a0 f   game_history.obj
 0001:00006310       ?HasJoinedGame@GameHistory@@QAEHPADH@Z 00407310 f   game_history.obj
 0001:000063e0       ?Save@GameHistory@@QAEXXZ  004073e0 f   game_history.obj
 0001:00006440       ?Load@GameHistory@@QAEXXZ  00407440 f   game_history.obj
 0001:000065c0       ??0?$LList@PAUGameHistoryServer@@@@QAE@XZ 004075c0 f i game_history.obj
 0001:000065f0       ??1?$LList@PAUGameHistoryServer@@@@QAE@XZ 004075f0 f i game_history.obj
 0001:00006600       ?PutData@?$LList@PAUGameHistoryServer@@@@QAEXABQAUGameHistoryServer@@@Z 00407600 f i game_history.obj
 0001:00006610       ?PutDataAtStart@?$LList@PAUGameHistoryServer@@@@QAEXABQAUGameHistoryServer@@@Z 00407610 f i game_history.obj
 0001:000066a0       ?RemoveData@?$LList@PAUGameHistoryServer@@@@QAEXH@Z 004076a0 f i game_history.obj
 0001:00006770       ?Size@?$LList@PAUGameHistoryServer@@@@QBEHXZ 00407770 f i game_history.obj
 0001:00006780       ?ValidIndex@?$LList@PAUGameHistoryServer@@@@QBE_NH@Z 00407780 f i game_history.obj
 0001:000067a0       ??A?$LList@PAUGameHistoryServer@@@@QAEPAUGameHistoryServer@@H@Z 004077a0 f i game_history.obj
 0001:000067b0       ??$Clamp@H@@YAXAAHHH@Z     004077b0 f i game_history.obj
 0001:000067c0       ??_G?$LListItem@PAUGameHistoryServer@@@@QAEPAXI@Z 004077c0 f i game_history.obj
 0001:000067d0       ?GetItem@?$LList@PAUGameHistoryServer@@@@IBEPAV?$LListItem@PAUGameHistoryServer@@@@H@Z 004077d0 f i game_history.obj
 0001:00006880       ?PutDataAtEnd@?$LList@PAUGameHistoryServer@@@@QAEXABQAUGameHistoryServer@@@Z 00407880 f i game_history.obj
 0001:000068f0       ?GetData@?$LList@PAUGameHistoryServer@@@@QBEPAUGameHistoryServer@@H@Z 004078f0 f i game_history.obj
 0001:00006900       ?Empty@?$LList@PAUGameHistoryServer@@@@QAEXXZ 00407900 f i game_history.obj
 0001:00006950       ??0?$LListItem@PAUGameHistoryServer@@@@QAE@XZ 00407950 f i game_history.obj
 0001:00006960       ??1?$LListItem@PAUGameHistoryServer@@@@QAE@XZ 00407960 f i game_history.obj
 0001:00006970       ??0ModSystem@@QAE@XZ       00407970 f   modsystem.obj
 0001:000069e0       ??1ModSystem@@QAE@XZ       004079e0 f   modsystem.obj
 0001:00006a00       ?Initialise@ModSystem@@QAEXXZ 00407a00 f   modsystem.obj
 0001:00006ad0       ?LoadInstalledMods@ModSystem@@QAEXXZ 00407ad0 f   modsystem.obj
 0001:00006c30       ??_G?$LList@PAD@@QAEPAXI@Z 00407c30 f i modsystem.obj
 0001:00006c50       ?ParseModPath@ModSystem@@QAEPAV?$LList@PAD@@PAD@Z 00407c50 f   modsystem.obj
 0001:00006cb0       ?SetModPath@ModSystem@@QAEXPAD@Z 00407cb0 f   modsystem.obj
 0001:00006d80       ?GetCriticalModPath@ModSystem@@QAEXPAD@Z 00407d80 f   modsystem.obj
 0001:00006e80       ?IsCriticalModRunning@ModSystem@@QAE_NXZ 00407e80 f   modsystem.obj
 0001:00006ed0       ?CanSetModPath@ModSystem@@QAE_NPAD@Z 00407ed0 f   modsystem.obj
 0001:00006fb0       ?LoadModData@ModSystem@@QAEXPAVInstalledMod@@PAD@Z 00407fb0 f   modsystem.obj
 0001:00007250       ?ActivateMod@ModSystem@@QAEXPAD0@Z 00408250 f   modsystem.obj
 0001:00007340       ?MoveMod@ModSystem@@QAEXPAD0H@Z 00408340 f   modsystem.obj
 0001:00007460       ?DeActivateMod@ModSystem@@QAEXPAD@Z 00408460 f   modsystem.obj
 0001:00007530       ?DeActivateAllMods@ModSystem@@QAEXXZ 00408530 f   modsystem.obj
 0001:00007570       ?DeActivateAllCriticalMods@ModSystem@@QAEXXZ 00408570 f   modsystem.obj
 0001:000075c0       ?GetMod@ModSystem@@QAEPAVInstalledMod@@PAD0@Z 004085c0 f   modsystem.obj
 0001:00007660       ?IsModInstalled@ModSystem@@QAE_NPAD0@Z 00408660 f   modsystem.obj
 0001:00007670       ?IsCriticalModPathSet@ModSystem@@QAE_NPAD@Z 00408670 f   modsystem.obj
 0001:000078b0       ?CommitRequired@ModSystem@@QAE_NXZ 004088b0 f   modsystem.obj
 0001:000079d0       ?Commit@ModSystem@@QAEXXZ  004089d0 f   modsystem.obj
 0001:00007e00       ??0InstalledMod@@QAE@XZ    00408e00 f   modsystem.obj
 0001:00007e70       ?EmptyAndDelete@?$LList@PAD@@QAEXXZ 00408e70 f i modsystem.obj
 0001:00007eb0       ??0?$LList@H@@QAE@XZ       00408eb0 f i modsystem.obj
 0001:00007ed0       ?PutData@?$LList@H@@QAEXABH@Z 00408ed0 f i modsystem.obj
 0001:00007ee0       ?Size@?$LList@H@@QBEHXZ    00408ee0 f i modsystem.obj
 0001:00007ef0       ??A?$LList@H@@QAEHH@Z      00408ef0 f i modsystem.obj
 0001:00007f00       ??0?$LList@PAVInstalledMod@@@@QAE@XZ 00408f00 f i modsystem.obj
 0001:00007f20       ??1?$LList@PAVInstalledMod@@@@QAE@XZ 00408f20 f i modsystem.obj
 0001:00007f30       ?PutData@?$LList@PAVInstalledMod@@@@QAEXABQAVInstalledMod@@@Z 00408f30 f i modsystem.obj
 0001:00007f40       ?PutDataAtEnd@?$LList@PAVInstalledMod@@@@QAEXABQAVInstalledMod@@@Z 00408f40 f i modsystem.obj
 0001:00007fa0       ?PutDataAtStart@?$LList@PAVInstalledMod@@@@QAEXABQAVInstalledMod@@@Z 00408fa0 f i modsystem.obj
 0001:00008010       ?PutDataAtIndex@?$LList@PAVInstalledMod@@@@QAEXABQAVInstalledMod@@H@Z 00409010 f i modsystem.obj
 0001:00008090       ?RemoveData@?$LList@PAVInstalledMod@@@@QAEXH@Z 00409090 f i modsystem.obj
 0001:00008140       ?Size@?$LList@PAVInstalledMod@@@@QBEHXZ 00409140 f i modsystem.obj
 0001:00008150       ?ValidIndex@?$LList@PAVInstalledMod@@@@QBE_NH@Z 00409150 f i modsystem.obj
 0001:00008170       ?EmptyAndDelete@?$LList@PAVInstalledMod@@@@QAEXXZ 00409170 f i modsystem.obj
 0001:000081b0       ??A?$LList@PAVInstalledMod@@@@QAEPAVInstalledMod@@H@Z 004091b0 f i modsystem.obj
 0001:000081c0       ??_G?$LListItem@PAVInstalledMod@@@@QAEPAXI@Z 004091c0 f i modsystem.obj
 0001:000081d0       ?RemoveData@?$LList@PAD@@QAEXH@Z 004091d0 f i modsystem.obj
 0001:00008280       ?PutDataAtEnd@?$LList@H@@QAEXABH@Z 00409280 f i modsystem.obj
 0001:000082e0       ?GetData@?$LList@H@@QBEHH@Z 004092e0 f i modsystem.obj
 0001:000082f0       ?GetItem@?$LList@PAVInstalledMod@@@@IBEPAV?$LListItem@PAVInstalledMod@@@@H@Z 004092f0 f i modsystem.obj
 0001:00008380       ?GetData@?$LList@PAVInstalledMod@@@@QBEPAVInstalledMod@@H@Z 00409380 f i modsystem.obj
 0001:00008390       ?Empty@?$LList@PAVInstalledMod@@@@QAEXXZ 00409390 f i modsystem.obj
 0001:000083d0       ??0?$LListItem@PAVInstalledMod@@@@QAE@XZ 004093d0 f i modsystem.obj
 0001:000083e0       ??1?$LListItem@PAVInstalledMod@@@@QAE@XZ 004093e0 f i modsystem.obj
 0001:000083f0       ?GetItem@?$LList@H@@IBEPAV?$LListItem@H@@H@Z 004093f0 f i modsystem.obj
 0001:00008480       ??0?$LListItem@H@@QAE@XZ   00409480 f i modsystem.obj
 0001:00008490       ?ValidIndex@?$LList@H@@QBE_NH@Z 00409490 f i modsystem.obj
 0001:000084a0       ?GetWindowManagerWin32@@YAPAVWindowManagerWin32@@XZ 004094a0 f i statusicon.obj
 0001:000084b0       ?Create@StatusIcon@@SAPAV1@XZ 004094b0 f   statusicon.obj
 0001:000084e0       ??0TrayIcon@@QAE@XZ        004094e0 f   trayicon.obj
 0001:00008510       ??0StatusIcon@@QAE@XZ      00409510 f i trayicon.obj
 0001:00008520       ??1TrayIcon@@QAE@XZ        00409520 f   trayicon.obj
 0001:00008530       ?SetSubIcon@TrayIcon@@UAEXPBD@Z 00409530 f   trayicon.obj
 0001:00008550       ?SetIcon@TrayIcon@@UAEXPBD@Z 00409550 f   trayicon.obj
 0001:00008570       ?SetCaption@TrayIcon@@UAEXPBD@Z 00409570 f   trayicon.obj
 0001:000085f0       ?Update@TrayIcon@@UAEXXZ   004095f0 f   trayicon.obj
 0001:000086e0       ?RemoveIcon@TrayIcon@@UAEXXZ 004096e0 f   trayicon.obj
 0001:00008710       ?OnNotifyIcon@TrayIcon@@QAEXIJ@Z 00409710 f   trayicon.obj
 0001:00008720       ?EventHandler@TrayIcon@@SAJIIJ@Z 00409720 f   trayicon.obj
 0001:000087a0       _fmodf                     004097a0 f i trayicon.obj
 0001:000087c0       ??0TutorialChapter@@QAE@XZ 004097c0 f i tutorial.obj
 0001:000087e0       ??0Tutorial@@QAE@H@Z       004097e0 f   tutorial.obj
 0001:00008b00       ?GetChapterId@Tutorial@@QAEHPAD@Z 00409b00 f   tutorial.obj
 0001:00008b50       ?GetCurrentChapter@Tutorial@@QAEHXZ 00409b50 f   tutorial.obj
 0001:00008b60       ?InChapter@Tutorial@@QAE_NPAD@Z 00409b60 f   tutorial.obj
 0001:00008bf0       ?StartTutorial@Tutorial@@QAEXXZ 00409bf0 f   tutorial.obj
 0001:00008c00       ?RunNextChapter@Tutorial@@IAEXMH@Z 00409c00 f   tutorial.obj
 0001:00008c30       ?Update@Tutorial@@QAEXXZ   00409c30 f   tutorial.obj
 0001:00008c90       ?GetCurrentMessage@Tutorial@@QAEPADXZ 00409c90 f   tutorial.obj
 0001:00008d10       ?GetCurrentObjective@Tutorial@@QAEPADXZ 00409d10 f   tutorial.obj
 0001:00008d90       ?GetMessageTimer@Tutorial@@QAEMXZ 00409d90 f   tutorial.obj
 0001:00008dc0       ?IsNextClickable@Tutorial@@QAE_NXZ 00409dc0 f   tutorial.obj
 0001:00008e30       ?IsRestartClickable@Tutorial@@QAE_NXZ 00409e30 f   tutorial.obj
 0001:00008ea0       ?ClickNext@Tutorial@@QAEXXZ 00409ea0 f   tutorial.obj
 0001:00008eb0       ?ClickRestart@Tutorial@@QAEXXZ 00409eb0 f   tutorial.obj
 0001:00008ed0       ?SetObjectHighlight@Tutorial@@IAEXH@Z 00409ed0 f   tutorial.obj
 0001:00008ee0       ?GetObjectHighlight@Tutorial@@QAEHXZ 00409ee0 f   tutorial.obj
 0001:00008ef0       ?GetButtonHighlight@Tutorial@@QAEHPAD0@Z 00409ef0 f   tutorial.obj
 0001:00008f90       ?SetCurrentLevelName@Tutorial@@QAEXPAD@Z 00409f90 f   tutorial.obj
 0001:00008fa0       ?GetCurrentLevelName@Tutorial@@QAEPADXZ 00409fa0 f   tutorial.obj
 0001:00008fc0       ??0?$DArray@PAVTutorialChapter@@@@QAE@XZ 00409fc0 f i tutorial.obj
 0001:00008fe0       ?PutData@?$DArray@PAVTutorialChapter@@@@QAEHABQAVTutorialChapter@@@Z 00409fe0 f i tutorial.obj
 0001:00009030       ?Size@?$DArray@PAVTutorialChapter@@@@QBEHXZ 0040a030 f i tutorial.obj
 0001:00009040       ?ValidIndex@?$DArray@PAVTutorialChapter@@@@QBE_NH@Z 0040a040 f i tutorial.obj
 0001:00009060       ??A?$DArray@PAVTutorialChapter@@@@QAEAAPAVTutorialChapter@@H@Z 0040a060 f i tutorial.obj
 0001:000090b0       ?Grow@?$DArray@PAVTutorialChapter@@@@IAEXXZ 0040a0b0 f i tutorial.obj
 0001:000090e0       ?SetSize@?$DArray@PAVTutorialChapter@@@@QAEXH@Z 0040a0e0 f i tutorial.obj
 0001:000091e0       ??0Fixed@@QAE@ABV0@@Z      0040a1e0 f i tutorial_defcon.obj
 0001:000091f0       ??0ActionOrder@@QAE@XZ     0040a1f0 f i tutorial_defcon.obj
 0001:00009230       ??1MultiLineText@@QAE@XZ   0040a230 f i tutorial_defcon.obj
 0001:00009260       ??AMultiLineText@@QAEPADI@Z 0040a260 f i tutorial_defcon.obj
 0001:00009270       ?Size@MultiLineText@@QAEIXZ 0040a270 f i tutorial_defcon.obj
 0001:00009280       ?Render@ClickNextPopup@@EAEX_N@Z 0040a280 f i tutorial_defcon.obj
 0001:000092b0       ?Render@Mission1SiloPopup@@EAEX_N@Z 0040a2b0 f i tutorial_defcon.obj
 0001:00009300       ?Render@Mission1SiloSelectPopup@@EAEX_N@Z 0040a300 f i tutorial_defcon.obj
 0001:00009430       ?Render@Mission1Deselect@@EAEX_N@Z 0040a430 f i tutorial_defcon.obj
 0001:00009520       ?Render@Mission1RadarTarget@@EAEX_N@Z 0040a520 f i tutorial_defcon.obj
 0001:000095d0       ?Render@UnitPanelPopup@@UAEX_N@Z 0040a5d0 f i tutorial_defcon.obj
 0001:00009730       ?Render@SelectSiloPopup@@UAEX_N@Z 0040a730 f i tutorial_defcon.obj
 0001:000097b0       ?Render@PlaceSilosPopup@@UAEX_N@Z 0040a7b0 f i tutorial_defcon.obj
 0001:000097e0       ?Render@SelectRadarPopup@@EAEX_N@Z 0040a7e0 f i tutorial_defcon.obj
 0001:00009860       ?Render@PlaceRadarPopup@@EAEX_N@Z 0040a860 f i tutorial_defcon.obj
 0001:000098d0       ?Render@Mission3SelectSilosPopup@@EAEX_N@Z 0040a8d0 f i tutorial_defcon.obj
 0001:00009930       ?Render@Mission3PlaceSilosPopup@@EAEX_N@Z 0040a930 f i tutorial_defcon.obj
 0001:000099a0       ?Render@AccelTimePopup@@EAEX_N@Z 0040a9a0 f i tutorial_defcon.obj
 0001:00009a90       ?Render@SilosIntoNukeModePopup@@EAEX_N@Z 0040aa90 f i tutorial_defcon.obj
 0001:00009bc0       ?Render@NukeEnemySiloPopup@@EAEX_N@Z 0040abc0 f i tutorial_defcon.obj
 0001:00009c70       ?Render@NukeEnemyAirBasePopup@@EAEX_N@Z 0040ac70 f i tutorial_defcon.obj
 0001:00009d90       ?Render@NukeEnemyCitiesPopup@@EAEX_N@Z 0040ad90 f i tutorial_defcon.obj
 0001:00009f10       ?Render@SelectAirBasePopup@@EAEX_N@Z 0040af10 f i tutorial_defcon.obj
 0001:00009f90       ?Render@PlaceAirBasePopup@@EAEX_N@Z 0040af90 f i tutorial_defcon.obj
 0001:0000a000       ?Render@ClickOnAirbasePopup@@EAEX_N@Z 0040b000 f i tutorial_defcon.obj
 0001:0000a1e0       ?Render@ScoutFightersHerePopup@@EAEX_N@Z 0040b1e0 f i tutorial_defcon.obj
 0001:0000a2a0       ?Render@ToggleRadarPopup@@EAEX_N@Z 0040b2a0 f i tutorial_defcon.obj
 0001:0000a2d0       ?Render@SwitchToBomberModePopup@@EAEX_N@Z 0040b2d0 f i tutorial_defcon.obj
 0001:0000a400       ?Render@ClickOnAirbaseBomberPopup@@EAEX_N@Z 0040b400 f i tutorial_defcon.obj
 0001:0000a640       ?Render@NukeEnemyBuildingPopup@@EAEX_N@Z 0040b640 f i tutorial_defcon.obj
 0001:0000a720       ?Render@SelectFleetPopup@@EAEX_N@Z 0040b720 f i tutorial_defcon.obj
 0001:0000a7f0       ?Render@AddShipToFleetPopup@@UAEX_N@Z 0040b7f0 f i tutorial_defcon.obj
 0001:0000a880       ?Render@DeployFleetPopup@@UAEX_N@Z 0040b880 f i tutorial_defcon.obj
 0001:0000a8b0       ?Render@SelectDeployedFleetPopup@@EAEX_N@Z 0040b8b0 f i tutorial_defcon.obj
 0001:0000a9e0       ?Render@MoveFleetSouthPopup@@EAEX_N@Z 0040b9e0 f i tutorial_defcon.obj
 0001:0000aa20       ?Render@DestroyEnemyFleetPopup@@UAEX_N@Z 0040ba20 f i tutorial_defcon.obj
 0001:0000ab10       ?Render@ToggleOrdersPopup@@EAEX_N@Z 0040bb10 f i tutorial_defcon.obj
 0001:0000ab40       ?Render@Mission6UnitPanelPopup@@EAEX_N@Z 0040bb40 f i tutorial_defcon.obj
 0001:0000ab70       ?Render@DeployCarriersPopup@@EAEX_N@Z 0040bb70 f i tutorial_defcon.obj
 0001:0000abb0       ?Render@AddSubToFleetPopup@@EAEX_N@Z 0040bbb0 f i tutorial_defcon.obj
 0001:0000abf0       ?Render@DeploySubsPopup@@EAEX_N@Z 0040bbf0 f i tutorial_defcon.obj
 0001:0000ac30       ?Render@SelectSubsPopup@@EAEX_N@Z 0040bc30 f i tutorial_defcon.obj
 0001:0000ad60       ?Render@MoveSubsToChinaPopup@@EAEX_N@Z 0040bd60 f i tutorial_defcon.obj
 0001:0000adc0       ?Render@SwitchToDepthChargeModePopup@@EAEX_N@Z 0040bdc0 f i tutorial_defcon.obj
 0001:0000af40       ?Render@DestroyEnemySubsPopup@@UAEX_N@Z 0040bf40 f i tutorial_defcon.obj
 0001:0000b060       ?Render@SwitchSubsToNukeModePopup@@EAEX_N@Z 0040c060 f i tutorial_defcon.obj
 0001:0000b190       ?Render@SubNukeEnemySiloPopup@@EAEX_N@Z 0040c190 f i tutorial_defcon.obj
 0001:0000b220       ?Render@ShowTerritoryPopup@@EAEX_N@Z 0040c220 f i tutorial_defcon.obj
 0001:0000b250       ?Render@Mission7PlacementPopup@@UAEX_N@Z 0040c250 f i tutorial_defcon.obj
 0001:0000b3e0       ?Render@PlaceFleetsInPacificPopup@@EAEX_N@Z 0040c3e0 f i tutorial_defcon.obj
 0001:0000b420       ?Render@Misssion7FleetsToChinaPopup@@EAEX_N@Z 0040c420 f i tutorial_defcon.obj
 0001:0000b680       ?Render@Mission7ScoutChinaPopup@@EAEX_N@Z 0040c680 f i tutorial_defcon.obj
 0001:0000b860       ?Render@Mission7EnemySubsPopup@@EAEX_N@Z 0040c860 f i tutorial_defcon.obj
 0001:0000b910       ?InitialiseWorld@Tutorial@@IAEXXZ 0040c910 f   tutorial_defcon.obj
 0001:0000bae0       ?SetupCurrentChapter@Tutorial@@IAEXXZ 0040cae0 f   tutorial_defcon.obj
 0001:0000f9a0       ??0ClickNextPopup@@QAE@XZ  004109a0 f i tutorial_defcon.obj
 0001:0000f9c0       ??0Mission1SiloPopup@@QAE@XZ 004109c0 f i tutorial_defcon.obj
 0001:0000f9e0       ??0Mission1SiloSelectPopup@@QAE@XZ 004109e0 f i tutorial_defcon.obj
 0001:0000fa00       ??0Mission1Deselect@@QAE@XZ 00410a00 f i tutorial_defcon.obj
 0001:0000fa20       ??0Mission1RadarTarget@@QAE@XZ 00410a20 f i tutorial_defcon.obj
 0001:0000fa40       ??0UnitPanelPopup@@QAE@XZ  00410a40 f i tutorial_defcon.obj
 0001:0000fa60       ??0SelectSiloPopup@@QAE@XZ 00410a60 f i tutorial_defcon.obj
 0001:0000fa80       ??0PlaceSilosPopup@@QAE@XZ 00410a80 f i tutorial_defcon.obj
 0001:0000faa0       ??0SelectRadarPopup@@QAE@XZ 00410aa0 f i tutorial_defcon.obj
 0001:0000fac0       ??0PlaceRadarPopup@@QAE@XZ 00410ac0 f i tutorial_defcon.obj
 0001:0000fae0       ??0Mission3SelectSilosPopup@@QAE@XZ 00410ae0 f i tutorial_defcon.obj
 0001:0000fb00       ??0Mission3PlaceSilosPopup@@QAE@XZ 00410b00 f i tutorial_defcon.obj
 0001:0000fb20       ??0AccelTimePopup@@QAE@XZ  00410b20 f i tutorial_defcon.obj
 0001:0000fb40       ??0SilosIntoNukeModePopup@@QAE@XZ 00410b40 f i tutorial_defcon.obj
 0001:0000fb60       ??0NukeEnemySiloPopup@@QAE@XZ 00410b60 f i tutorial_defcon.obj
 0001:0000fb80       ??0NukeEnemyAirBasePopup@@QAE@XZ 00410b80 f i tutorial_defcon.obj
 0001:0000fba0       ??0NukeEnemyCitiesPopup@@QAE@XZ 00410ba0 f i tutorial_defcon.obj
 0001:0000fbc0       ??0SelectAirBasePopup@@QAE@XZ 00410bc0 f i tutorial_defcon.obj
 0001:0000fbe0       ??0PlaceAirBasePopup@@QAE@XZ 00410be0 f i tutorial_defcon.obj
 0001:0000fc00       ??0ClickOnAirbasePopup@@QAE@XZ 00410c00 f i tutorial_defcon.obj
 0001:0000fc20       ??0ScoutFightersHerePopup@@QAE@XZ 00410c20 f i tutorial_defcon.obj
 0001:0000fc40       ??0ToggleRadarPopup@@QAE@XZ 00410c40 f i tutorial_defcon.obj
 0001:0000fc60       ??0SwitchToBomberModePopup@@QAE@XZ 00410c60 f i tutorial_defcon.obj
 0001:0000fc80       ??0ClickOnAirbaseBomberPopup@@QAE@XZ 00410c80 f i tutorial_defcon.obj
 0001:0000fca0       ??0NukeEnemyBuildingPopup@@QAE@XZ 00410ca0 f i tutorial_defcon.obj
 0001:0000fcc0       ??0SelectFleetPopup@@QAE@XZ 00410cc0 f i tutorial_defcon.obj
 0001:0000fce0       ??0AddShipToFleetPopup@@QAE@XZ 00410ce0 f i tutorial_defcon.obj
 0001:0000fd00       ??0DeployFleetPopup@@QAE@XZ 00410d00 f i tutorial_defcon.obj
 0001:0000fd20       ??0SelectDeployedFleetPopup@@QAE@XZ 00410d20 f i tutorial_defcon.obj
 0001:0000fd40       ??0MoveFleetSouthPopup@@QAE@XZ 00410d40 f i tutorial_defcon.obj
 0001:0000fd60       ??0DestroyEnemyFleetPopup@@QAE@XZ 00410d60 f i tutorial_defcon.obj
 0001:0000fd80       ??0ToggleOrdersPopup@@QAE@XZ 00410d80 f i tutorial_defcon.obj
 0001:0000fda0       ??0ShowTerritoryPopup@@QAE@XZ 00410da0 f i tutorial_defcon.obj
 0001:0000fdc0       ??0Mission6UnitPanelPopup@@QAE@XZ 00410dc0 f i tutorial_defcon.obj
 0001:0000fde0       ??0DeployCarriersPopup@@QAE@XZ 00410de0 f i tutorial_defcon.obj
 0001:0000fe00       ??0AddSubToFleetPopup@@QAE@XZ 00410e00 f i tutorial_defcon.obj
 0001:0000fe20       ??0DeploySubsPopup@@QAE@XZ 00410e20 f i tutorial_defcon.obj
 0001:0000fe40       ??0SelectSubsPopup@@QAE@XZ 00410e40 f i tutorial_defcon.obj
 0001:0000fe60       ??0MoveSubsToChinaPopup@@QAE@XZ 00410e60 f i tutorial_defcon.obj
 0001:0000fe80       ??0SwitchToDepthChargeModePopup@@QAE@XZ 00410e80 f i tutorial_defcon.obj
 0001:0000fea0       ??0DestroyEnemySubsPopup@@QAE@XZ 00410ea0 f i tutorial_defcon.obj
 0001:0000fec0       ??0SwitchSubsToNukeModePopup@@QAE@XZ 00410ec0 f i tutorial_defcon.obj
 0001:0000fee0       ??0SubNukeEnemySiloPopup@@QAE@XZ 00410ee0 f i tutorial_defcon.obj
 0001:0000ff00       ??0Mission7PlacementPopup@@QAE@XZ 00410f00 f i tutorial_defcon.obj
 0001:0000ff20       ??0PlaceFleetsInPacificPopup@@QAE@XZ 00410f20 f i tutorial_defcon.obj
 0001:0000ff40       ??0Misssion7FleetsToChinaPopup@@QAE@XZ 00410f40 f i tutorial_defcon.obj
 0001:0000ff60       ??0Mission7ScoutChinaPopup@@QAE@XZ 00410f60 f i tutorial_defcon.obj
 0001:0000ff80       ??0Mission7EnemySubsPopup@@QAE@XZ 00410f80 f i tutorial_defcon.obj
 0001:0000ffa0       ??_EClickNextPopup@@UAEPAXI@Z 00410fa0 f i  CIL library: CIL module
 0001:0000ffa0       ??_GClickNextPopup@@UAEPAXI@Z 00410fa0 f i tutorial_defcon.obj
 0001:0000ffd0       ??1TutorialPopup@@UAE@XZ   00410fd0 f i tutorial_defcon.obj
 0001:0000ffe0       ??_EMission1SiloPopup@@UAEPAXI@Z 00410fe0 f i  CIL library: CIL module
 0001:0000ffe0       ??_GMission1SiloPopup@@UAEPAXI@Z 00410fe0 f i tutorial_defcon.obj
 0001:00010010       ??_EMission1SiloSelectPopup@@UAEPAXI@Z 00411010 f i  CIL library: CIL module
 0001:00010010       ??_GMission1SiloSelectPopup@@UAEPAXI@Z 00411010 f i tutorial_defcon.obj
 0001:00010040       ??_GMission1Deselect@@UAEPAXI@Z 00411040 f i tutorial_defcon.obj
 0001:00010040       ??_EMission1Deselect@@UAEPAXI@Z 00411040 f i  CIL library: CIL module
 0001:00010070       ??_EMission1RadarTarget@@UAEPAXI@Z 00411070 f i  CIL library: CIL module
 0001:00010070       ??_GMission1RadarTarget@@UAEPAXI@Z 00411070 f i tutorial_defcon.obj
 0001:000100a0       ??_EUnitPanelPopup@@UAEPAXI@Z 004110a0 f i  CIL library: CIL module
 0001:000100a0       ??_GUnitPanelPopup@@UAEPAXI@Z 004110a0 f i tutorial_defcon.obj
 0001:000100d0       ??_GSelectSiloPopup@@UAEPAXI@Z 004110d0 f i tutorial_defcon.obj
 0001:000100d0       ??_ESelectSiloPopup@@UAEPAXI@Z 004110d0 f i  CIL library: CIL module
 0001:00010100       ??_EPlaceSilosPopup@@UAEPAXI@Z 00411100 f i  CIL library: CIL module
 0001:00010100       ??_GPlaceSilosPopup@@UAEPAXI@Z 00411100 f i tutorial_defcon.obj
 0001:00010130       ??_ESelectRadarPopup@@UAEPAXI@Z 00411130 f i  CIL library: CIL module
 0001:00010130       ??_GSelectRadarPopup@@UAEPAXI@Z 00411130 f i tutorial_defcon.obj
 0001:00010160       ??_EPlaceRadarPopup@@UAEPAXI@Z 00411160 f i  CIL library: CIL module
 0001:00010160       ??_GPlaceRadarPopup@@UAEPAXI@Z 00411160 f i tutorial_defcon.obj
 0001:00010190       ??_EMission3SelectSilosPopup@@UAEPAXI@Z 00411190 f i  CIL library: CIL module
 0001:00010190       ??_GMission3SelectSilosPopup@@UAEPAXI@Z 00411190 f i tutorial_defcon.obj
 0001:000101c0       ??1SelectSiloPopup@@UAE@XZ 004111c0 f i tutorial_defcon.obj
 0001:000101d0       ??_EMission3PlaceSilosPopup@@UAEPAXI@Z 004111d0 f i  CIL library: CIL module
 0001:000101d0       ??_GMission3PlaceSilosPopup@@UAEPAXI@Z 004111d0 f i tutorial_defcon.obj
 0001:00010200       ??1PlaceSilosPopup@@UAE@XZ 00411200 f i tutorial_defcon.obj
 0001:00010210       ??_GAccelTimePopup@@UAEPAXI@Z 00411210 f i tutorial_defcon.obj
 0001:00010210       ??_EAccelTimePopup@@UAEPAXI@Z 00411210 f i  CIL library: CIL module
 0001:00010240       ??_GSilosIntoNukeModePopup@@UAEPAXI@Z 00411240 f i tutorial_defcon.obj
 0001:00010240       ??_ESilosIntoNukeModePopup@@UAEPAXI@Z 00411240 f i  CIL library: CIL module
 0001:00010270       ??_GNukeEnemySiloPopup@@UAEPAXI@Z 00411270 f i tutorial_defcon.obj
 0001:00010270       ??_ENukeEnemySiloPopup@@UAEPAXI@Z 00411270 f i  CIL library: CIL module
 0001:000102a0       ??_ENukeEnemyAirBasePopup@@UAEPAXI@Z 004112a0 f i  CIL library: CIL module
 0001:000102a0       ??_GNukeEnemyAirBasePopup@@UAEPAXI@Z 004112a0 f i tutorial_defcon.obj
 0001:000102d0       ??_GNukeEnemyCitiesPopup@@UAEPAXI@Z 004112d0 f i tutorial_defcon.obj
 0001:000102d0       ??_ENukeEnemyCitiesPopup@@UAEPAXI@Z 004112d0 f i  CIL library: CIL module
 0001:00010300       ??_ESelectAirBasePopup@@UAEPAXI@Z 00411300 f i  CIL library: CIL module
 0001:00010300       ??_GSelectAirBasePopup@@UAEPAXI@Z 00411300 f i tutorial_defcon.obj
 0001:00010330       ??_GPlaceAirBasePopup@@UAEPAXI@Z 00411330 f i tutorial_defcon.obj
 0001:00010330       ??_EPlaceAirBasePopup@@UAEPAXI@Z 00411330 f i  CIL library: CIL module
 0001:00010360       ??_GClickOnAirbasePopup@@UAEPAXI@Z 00411360 f i tutorial_defcon.obj
 0001:00010360       ??_EClickOnAirbasePopup@@UAEPAXI@Z 00411360 f i  CIL library: CIL module
 0001:00010390       ??_EScoutFightersHerePopup@@UAEPAXI@Z 00411390 f i  CIL library: CIL module
 0001:00010390       ??_GScoutFightersHerePopup@@UAEPAXI@Z 00411390 f i tutorial_defcon.obj
 0001:000103c0       ??_EToggleRadarPopup@@UAEPAXI@Z 004113c0 f i  CIL library: CIL module
 0001:000103c0       ??_GToggleRadarPopup@@UAEPAXI@Z 004113c0 f i tutorial_defcon.obj
 0001:000103f0       ??_ESwitchToBomberModePopup@@UAEPAXI@Z 004113f0 f i  CIL library: CIL module
 0001:000103f0       ??_GSwitchToBomberModePopup@@UAEPAXI@Z 004113f0 f i tutorial_defcon.obj
 0001:00010420       ??_GClickOnAirbaseBomberPopup@@UAEPAXI@Z 00411420 f i tutorial_defcon.obj
 0001:00010420       ??_EClickOnAirbaseBomberPopup@@UAEPAXI@Z 00411420 f i  CIL library: CIL module
 0001:00010450       ??_GNukeEnemyBuildingPopup@@UAEPAXI@Z 00411450 f i tutorial_defcon.obj
 0001:00010450       ??_ENukeEnemyBuildingPopup@@UAEPAXI@Z 00411450 f i  CIL library: CIL module
 0001:00010480       ??_GSelectFleetPopup@@UAEPAXI@Z 00411480 f i tutorial_defcon.obj
 0001:00010480       ??_ESelectFleetPopup@@UAEPAXI@Z 00411480 f i  CIL library: CIL module
 0001:000104b0       ??_GAddShipToFleetPopup@@UAEPAXI@Z 004114b0 f i tutorial_defcon.obj
 0001:000104b0       ??_EAddShipToFleetPopup@@UAEPAXI@Z 004114b0 f i  CIL library: CIL module
 0001:000104e0       ??_GDeployFleetPopup@@UAEPAXI@Z 004114e0 f i tutorial_defcon.obj
 0001:000104e0       ??_EDeployFleetPopup@@UAEPAXI@Z 004114e0 f i  CIL library: CIL module
 0001:00010510       ??_ESelectDeployedFleetPopup@@UAEPAXI@Z 00411510 f i  CIL library: CIL module
 0001:00010510       ??_GSelectDeployedFleetPopup@@UAEPAXI@Z 00411510 f i tutorial_defcon.obj
 0001:00010540       ??_EMoveFleetSouthPopup@@UAEPAXI@Z 00411540 f i  CIL library: CIL module
 0001:00010540       ??_GMoveFleetSouthPopup@@UAEPAXI@Z 00411540 f i tutorial_defcon.obj
 0001:00010570       ??_EDestroyEnemyFleetPopup@@UAEPAXI@Z 00411570 f i  CIL library: CIL module
 0001:00010570       ??_GDestroyEnemyFleetPopup@@UAEPAXI@Z 00411570 f i tutorial_defcon.obj
 0001:000105a0       ??_GToggleOrdersPopup@@UAEPAXI@Z 004115a0 f i tutorial_defcon.obj
 0001:000105a0       ??_EToggleOrdersPopup@@UAEPAXI@Z 004115a0 f i  CIL library: CIL module
 0001:000105d0       ??_EShowTerritoryPopup@@UAEPAXI@Z 004115d0 f i  CIL library: CIL module
 0001:000105d0       ??_GShowTerritoryPopup@@UAEPAXI@Z 004115d0 f i tutorial_defcon.obj
 0001:00010600       ??_EMission6UnitPanelPopup@@UAEPAXI@Z 00411600 f i  CIL library: CIL module
 0001:00010600       ??_GMission6UnitPanelPopup@@UAEPAXI@Z 00411600 f i tutorial_defcon.obj
 0001:00010630       ??1UnitPanelPopup@@UAE@XZ  00411630 f i tutorial_defcon.obj
 0001:00010640       ??_EDeployCarriersPopup@@UAEPAXI@Z 00411640 f i  CIL library: CIL module
 0001:00010640       ??_GDeployCarriersPopup@@UAEPAXI@Z 00411640 f i tutorial_defcon.obj
 0001:00010670       ??1DeployFleetPopup@@UAE@XZ 00411670 f i tutorial_defcon.obj
 0001:00010680       ??_EAddSubToFleetPopup@@UAEPAXI@Z 00411680 f i  CIL library: CIL module
 0001:00010680       ??_GAddSubToFleetPopup@@UAEPAXI@Z 00411680 f i tutorial_defcon.obj
 0001:000106b0       ??1AddShipToFleetPopup@@UAE@XZ 004116b0 f i tutorial_defcon.obj
 0001:000106c0       ??_EDeploySubsPopup@@UAEPAXI@Z 004116c0 f i  CIL library: CIL module
 0001:000106c0       ??_GDeploySubsPopup@@UAEPAXI@Z 004116c0 f i tutorial_defcon.obj
 0001:000106f0       ??_GSelectSubsPopup@@UAEPAXI@Z 004116f0 f i tutorial_defcon.obj
 0001:000106f0       ??_ESelectSubsPopup@@UAEPAXI@Z 004116f0 f i  CIL library: CIL module
 0001:00010720       ??_GMoveSubsToChinaPopup@@UAEPAXI@Z 00411720 f i tutorial_defcon.obj
 0001:00010720       ??_EMoveSubsToChinaPopup@@UAEPAXI@Z 00411720 f i  CIL library: CIL module
 0001:00010750       ??_ESwitchToDepthChargeModePopup@@UAEPAXI@Z 00411750 f i  CIL library: CIL module
 0001:00010750       ??_GSwitchToDepthChargeModePopup@@UAEPAXI@Z 00411750 f i tutorial_defcon.obj
 0001:00010780       ??_GDestroyEnemySubsPopup@@UAEPAXI@Z 00411780 f i tutorial_defcon.obj
 0001:00010780       ??_EDestroyEnemySubsPopup@@UAEPAXI@Z 00411780 f i  CIL library: CIL module
 0001:000107b0       ??_GSwitchSubsToNukeModePopup@@UAEPAXI@Z 004117b0 f i tutorial_defcon.obj
 0001:000107b0       ??_ESwitchSubsToNukeModePopup@@UAEPAXI@Z 004117b0 f i  CIL library: CIL module
 0001:000107e0       ??_GSubNukeEnemySiloPopup@@UAEPAXI@Z 004117e0 f i tutorial_defcon.obj
 0001:000107e0       ??_ESubNukeEnemySiloPopup@@UAEPAXI@Z 004117e0 f i  CIL library: CIL module
 0001:00010810       ??_GMission7PlacementPopup@@UAEPAXI@Z 00411810 f i tutorial_defcon.obj
 0001:00010810       ??_EMission7PlacementPopup@@UAEPAXI@Z 00411810 f i  CIL library: CIL module
 0001:00010840       ??_EPlaceFleetsInPacificPopup@@UAEPAXI@Z 00411840 f i  CIL library: CIL module
 0001:00010840       ??_GPlaceFleetsInPacificPopup@@UAEPAXI@Z 00411840 f i tutorial_defcon.obj
 0001:00010870       ??_EMisssion7FleetsToChinaPopup@@UAEPAXI@Z 00411870 f i  CIL library: CIL module
 0001:00010870       ??_GMisssion7FleetsToChinaPopup@@UAEPAXI@Z 00411870 f i tutorial_defcon.obj
 0001:000108a0       ??_GMission7ScoutChinaPopup@@UAEPAXI@Z 004118a0 f i tutorial_defcon.obj
 0001:000108a0       ??_EMission7ScoutChinaPopup@@UAEPAXI@Z 004118a0 f i  CIL library: CIL module
 0001:000108d0       ??_GMission7EnemySubsPopup@@UAEPAXI@Z 004118d0 f i tutorial_defcon.obj
 0001:000108d0       ??_EMission7EnemySubsPopup@@UAEPAXI@Z 004118d0 f i  CIL library: CIL module
 0001:00010900       ??1ClickNextPopup@@UAE@XZ  00411900 f i tutorial_defcon.obj
 0001:00010910       ??1Mission1SiloPopup@@UAE@XZ 00411910 f i tutorial_defcon.obj
 0001:00010920       ??1Mission1SiloSelectPopup@@UAE@XZ 00411920 f i tutorial_defcon.obj
 0001:00010930       ??1Mission1Deselect@@UAE@XZ 00411930 f i tutorial_defcon.obj
 0001:00010940       ??1Mission1RadarTarget@@UAE@XZ 00411940 f i tutorial_defcon.obj
 0001:00010950       ??1SelectRadarPopup@@UAE@XZ 00411950 f i tutorial_defcon.obj
 0001:00010960       ??1PlaceRadarPopup@@UAE@XZ 00411960 f i tutorial_defcon.obj
 0001:00010970       ??1Mission3SelectSilosPopup@@UAE@XZ 00411970 f i tutorial_defcon.obj
 0001:00010980       ??1Mission3PlaceSilosPopup@@UAE@XZ 00411980 f i tutorial_defcon.obj
 0001:00010990       ??1AccelTimePopup@@UAE@XZ  00411990 f i tutorial_defcon.obj
 0001:000109a0       ??1SilosIntoNukeModePopup@@UAE@XZ 004119a0 f i tutorial_defcon.obj
 0001:000109b0       ??1NukeEnemySiloPopup@@UAE@XZ 004119b0 f i tutorial_defcon.obj
 0001:000109c0       ??1NukeEnemyAirBasePopup@@UAE@XZ 004119c0 f i tutorial_defcon.obj
 0001:000109d0       ??1NukeEnemyCitiesPopup@@UAE@XZ 004119d0 f i tutorial_defcon.obj
 0001:000109e0       ??1SelectAirBasePopup@@UAE@XZ 004119e0 f i tutorial_defcon.obj
 0001:000109f0       ??1PlaceAirBasePopup@@UAE@XZ 004119f0 f i tutorial_defcon.obj
 0001:00010a00       ??1ClickOnAirbasePopup@@UAE@XZ 00411a00 f i tutorial_defcon.obj
 0001:00010a10       ??1ScoutFightersHerePopup@@UAE@XZ 00411a10 f i tutorial_defcon.obj
 0001:00010a20       ??1ToggleRadarPopup@@UAE@XZ 00411a20 f i tutorial_defcon.obj
 0001:00010a30       ??1SwitchToBomberModePopup@@UAE@XZ 00411a30 f i tutorial_defcon.obj
 0001:00010a40       ??1ClickOnAirbaseBomberPopup@@UAE@XZ 00411a40 f i tutorial_defcon.obj
 0001:00010a50       ??1NukeEnemyBuildingPopup@@UAE@XZ 00411a50 f i tutorial_defcon.obj
 0001:00010a60       ??1SelectFleetPopup@@UAE@XZ 00411a60 f i tutorial_defcon.obj
 0001:00010a70       ??1SelectDeployedFleetPopup@@UAE@XZ 00411a70 f i tutorial_defcon.obj
 0001:00010a80       ??1MoveFleetSouthPopup@@UAE@XZ 00411a80 f i tutorial_defcon.obj
 0001:00010a90       ??1DestroyEnemyFleetPopup@@UAE@XZ 00411a90 f i tutorial_defcon.obj
 0001:00010aa0       ??1ToggleOrdersPopup@@UAE@XZ 00411aa0 f i tutorial_defcon.obj
 0001:00010ab0       ??1ShowTerritoryPopup@@UAE@XZ 00411ab0 f i tutorial_defcon.obj
 0001:00010ac0       ??1Mission6UnitPanelPopup@@UAE@XZ 00411ac0 f i tutorial_defcon.obj
 0001:00010ad0       ??1DeployCarriersPopup@@UAE@XZ 00411ad0 f i tutorial_defcon.obj
 0001:00010ae0       ??1AddSubToFleetPopup@@UAE@XZ 00411ae0 f i tutorial_defcon.obj
 0001:00010af0       ??1DeploySubsPopup@@UAE@XZ 00411af0 f i tutorial_defcon.obj
 0001:00010b00       ??1SelectSubsPopup@@UAE@XZ 00411b00 f i tutorial_defcon.obj
 0001:00010b10       ??1MoveSubsToChinaPopup@@UAE@XZ 00411b10 f i tutorial_defcon.obj
 0001:00010b20       ??1SwitchToDepthChargeModePopup@@UAE@XZ 00411b20 f i tutorial_defcon.obj
 0001:00010b30       ??1DestroyEnemySubsPopup@@UAE@XZ 00411b30 f i tutorial_defcon.obj
 0001:00010b40       ??1SwitchSubsToNukeModePopup@@UAE@XZ 00411b40 f i tutorial_defcon.obj
 0001:00010b50       ??1SubNukeEnemySiloPopup@@UAE@XZ 00411b50 f i tutorial_defcon.obj
 0001:00010b60       ??1Mission7PlacementPopup@@UAE@XZ 00411b60 f i tutorial_defcon.obj
 0001:00010b70       ??1PlaceFleetsInPacificPopup@@UAE@XZ 00411b70 f i tutorial_defcon.obj
 0001:00010b80       ??1Misssion7FleetsToChinaPopup@@UAE@XZ 00411b80 f i tutorial_defcon.obj
 0001:00010b90       ??1Mission7ScoutChinaPopup@@UAE@XZ 00411b90 f i tutorial_defcon.obj
 0001:00010ba0       ??1Mission7EnemySubsPopup@@UAE@XZ 00411ba0 f i tutorial_defcon.obj
 0001:00010bb0       ?UpdateCurrentChapter@Tutorial@@IAEXXZ 00411bb0 f   tutorial_defcon.obj
 0001:00010c20       ?UpdateLevel1@Tutorial@@IAEXXZ 00411c20 f   tutorial_defcon.obj
 0001:00010de0       ?UpdateLevel2@Tutorial@@IAEXXZ 00411de0 f   tutorial_defcon.obj
 0001:00010f60       ?UpdateLevel3@Tutorial@@IAEXXZ 00411f60 f   tutorial_defcon.obj
 0001:00011410       ?UpdateLevel4@Tutorial@@IAEXXZ 00412410 f   tutorial_defcon.obj
 0001:00011880       ?UpdateLevel5@Tutorial@@IAEXXZ 00412880 f   tutorial_defcon.obj
 0001:00011b40       ?UpdateLevel6@Tutorial@@IAEXXZ 00412b40 f   tutorial_defcon.obj
 0001:00012060       ?UpdateLevel7@Tutorial@@IAEXXZ 00413060 f   tutorial_defcon.obj
 0001:00012290       ?ObjectPlacement@Tutorial@@IAEHHHMMH@Z 00413290 f   tutorial_defcon.obj
 0001:00012360       ?GetMissionStart@Tutorial@@QAEHH@Z 00413360 f   tutorial_defcon.obj
 0001:00012400       ?MissionComplete@Tutorial@@IAEXXZ 00413400 f   tutorial_defcon.obj
 0001:000124c0       ?MissionFailed@Tutorial@@IAEXXZ 004134c0 f   tutorial_defcon.obj
 0001:00012560       ?SetCurrentLevel@Tutorial@@QAEXH@Z 00413560 f   tutorial_defcon.obj
 0001:00012570       ?GetCurrentLevel@Tutorial@@QAEHXZ 00413570 f   tutorial_defcon.obj
 0001:00012580       ??0TutorialPopup@@QAE@XZ   00413580 f   tutorial_defcon.obj
 0001:00012630       ??_ETutorialPopup@@UAEPAXI@Z 00413630 f i  CIL library: CIL module
 0001:00012630       ??_GTutorialPopup@@UAEPAXI@Z 00413630 f i tutorial_defcon.obj
 0001:00012660       ?SetMessage@TutorialPopup@@QAEXPAD0@Z 00413660 f   tutorial_defcon.obj
 0001:000126a0       ?SetDimensions@TutorialPopup@@QAEXMMM@Z 004136a0 f   tutorial_defcon.obj
 0001:000126d0       ?SetTargetObject@TutorialPopup@@QAEXH@Z 004136d0 f   tutorial_defcon.obj
 0001:000126f0       ?SetUITarget@TutorialPopup@@QAEXPAD0@Z 004136f0 f   tutorial_defcon.obj
 0001:00012730       ?SetTargetWorldPos@TutorialPopup@@QAEXMM@Z 00413730 f   tutorial_defcon.obj
 0001:00012760       ?Update@TutorialPopup@@UAEXXZ 00413760 f   tutorial_defcon.obj
 0001:000127b0       ?Render@TutorialPopup@@UAEX_N@Z 004137b0 f   tutorial_defcon.obj
 0001:000135e0       ?Normalise@?$Vector3@M@@QAEABV1@XZ 004145e0 f i tutorial_defcon.obj
 0001:00013660       ?SetAll@?$BoundedArray@H@@QAEXABH@Z 00414660 f i tutorial_defcon.obj
 0001:00013680       ?Size@?$LList@PAVActionOrder@@@@QBEHXZ 00414680 f i tutorial_defcon.obj
 0001:00013690       ?Size@?$LList@PAVFleet@@@@QBEHXZ 00414690 f i tutorial_defcon.obj
 0001:000136a0       ??A?$LList@PAVFleet@@@@QAEPAVFleet@@H@Z 004146a0 f i tutorial_defcon.obj
 0001:000136b0       ?Size@?$LList@PAVCity@@@@QBEHXZ 004146b0 f i tutorial_defcon.obj
 0001:000136c0       ??A?$LList@PAVCity@@@@QAEPAVCity@@H@Z 004146c0 f i tutorial_defcon.obj
 0001:000136d0       ?NumUsed@?$FastDArray@PAVGunFire@@@@QBEHXZ 004146d0 f i tutorial_defcon.obj
 0001:000136e0       ??$max@M@std@@YAABMABM0@Z  004146e0 f i tutorial_defcon.obj
 0001:00013700       ??$min@M@std@@YAABMABM0@Z  00414700 f i tutorial_defcon.obj
 0001:00013720       ?GetData@?$LList@PAVFleet@@@@QBEPAVFleet@@H@Z 00414720 f i tutorial_defcon.obj
 0001:00013730       ?GetData@?$LList@PAVCity@@@@QBEPAVCity@@H@Z 00414730 f i tutorial_defcon.obj
 0001:00013740       ?GetItem@?$LList@PAVFleet@@@@IBEPAV?$LListItem@PAVFleet@@@@H@Z 00414740 f i tutorial_defcon.obj
 0001:000137d0       ?GetItem@?$LList@PAVCity@@@@IBEPAV?$LListItem@PAVCity@@@@H@Z 004147d0 f i tutorial_defcon.obj
 0001:00013860       ?ValidIndex@?$LList@PAVFleet@@@@QBE_NH@Z 00414860 f i tutorial_defcon.obj
 0001:00013880       ?ValidIndex@?$LList@PAVCity@@@@QBE_NH@Z 00414880 f i tutorial_defcon.obj
 0001:000138a0       _cosf                      004148a0 f i tutorial_defcon.obj
 0001:000138c0       _atanf                     004148c0 f i tutorial_defcon.obj
 0001:000138e0       ?atan@@YAMM@Z              004148e0 f i tutorial_defcon.obj
 0001:00013900       _sinf                      00414900 f i tutorial_defcon.obj
 0001:00013920       ?VersionStringToNumber@VersionManager@@SAMPAD@Z 00414920 f   version_manager.obj
 0001:00013940       ?EnsureCompatability@VersionManager@@SAXPADPAVDirectory@@@Z 00414940 f   version_manager.obj
 0001:00013b00       ??_GDirectory@@QAEPAXI@Z   00414b00 f i version_manager.obj
 0001:00013b20       ?DoesSupportModSystem@VersionManager@@SA_NPAD@Z 00414b20 f   version_manager.obj
 0001:00013b40       ?DoesSupportWhiteBoard@VersionManager@@SA_NPAD@Z 00414b40 f   version_manager.obj
 0001:00013b60       ?DoesSupportSendTeamScore@VersionManager@@SA_NPAD@Z 00414b60 f   version_manager.obj
 0001:00013b80       ?GetData@?$DArray@PAVDirectory@@@@QBEPAVDirectory@@H@Z 00414b80 f i version_manager.obj
 0001:00013bd0       ?RemoveData@?$DArray@PAVDirectory@@@@QAEXH@Z 00414bd0 f i version_manager.obj
 0001:00013c20       ?Size@?$DArray@PAVDirectory@@@@QBEHXZ 00414c20 f i version_manager.obj
 0001:00013c30       ?ValidIndex@?$DArray@PAVDirectory@@@@QBE_NH@Z 00414c30 f i version_manager.obj
 0001:00013c50       ?EmptyAndDelete@?$DArray@PAVDirectory@@@@QAEXXZ 00414c50 f i version_manager.obj
 0001:00013ca0       ?Empty@?$DArray@PAVDirectory@@@@QAEXXZ 00414ca0 f i version_manager.obj
 0001:00013cf0       ?AppDebugLogPath@@YAPADPBD@Z 00414cf0 f   debug_utils.obj
 0001:00013d00       ?AppDebugOutRedirect@@YAXPAD@Z 00414d00 f   debug_utils.obj
 0001:00013da0       ?AppDebugOut@@YAXPADZZ     00414da0 f   debug_utils.obj
 0001:00013e80       ?AppDebugOutData@@YAXPAXH@Z 00414e80 f   debug_utils.obj
 0001:00013ec0       ?AppReleaseAssertFailed@@YAXPBDZZ 00414ec0 f   debug_utils.obj
 0001:00013f20       ?getRetAddress@@YAPAIPAI@Z 00414f20 f   debug_utils.obj
 0001:00013f40       ?AppGenerateBlackBox@@YAXPAD0@Z 00414f40 f   debug_utils.obj
 0001:000140b0       ?InitialiseHighResTime@@YAXXZ 004150b0 f   hi_res_time.obj
 0001:000140e0       ?GetHighResTime@@YANXZ     004150e0 f   hi_res_time.obj
 0001:00014100       ??0LanguageTable@@QAE@XZ   00415100 f   language_table.obj
 0001:00014180       ??1LanguageTable@@QAE@XZ   00415180 f   language_table.obj
 0001:00014250       ?Initialise@LanguageTable@@QAEXXZ 00415250 f   language_table.obj
 0001:00014260       ?SetAdditionalTranslation@LanguageTable@@QAEXPBD@Z 00415260 f   language_table.obj
 0001:000142a0       ?LoadLanguages@LanguageTable@@QAEXXZ 004152a0 f   language_table.obj
 0001:00014420       ?LoadLanguageCaption@LanguageTable@@IAE_NPAVLanguage@@@Z 00415420 f   language_table.obj
 0001:00014520       ?SetDefaultLanguage@LanguageTable@@QAEXPAD_N@Z 00415520 f   language_table.obj
 0001:00014560       ?LoadCurrentLanguage@LanguageTable@@QAEXPAD@Z 00415560 f   language_table.obj
 0001:000146d0       ?SaveCurrentLanguage@LanguageTable@@QAE_NPAVLanguage@@@Z 004156d0 f   language_table.obj
 0001:00014720       ?GetLanguageSelectable@LanguageTable@@QAE_NPAD@Z 00415720 f   language_table.obj
 0001:00014780       ?SetLanguageSelectable@LanguageTable@@QAEXPAD_N@Z 00415780 f   language_table.obj
 0001:000147e0       ?LoadLanguage@LanguageTable@@IAEXPADAAV?$BTree@PAD@@_N0@Z 004157e0 f   language_table.obj
 0001:000149b0       ?LoadBaseLanguage@LanguageTable@@IAEXPAD@Z 004159b0 f   language_table.obj
 0001:000149d0       ?LoadTranslation@LanguageTable@@IAEXPAD@Z 004159d0 f   language_table.obj
 0001:000149f0       ?ClearBaseLanguage@LanguageTable@@QAEXXZ 004159f0 f   language_table.obj
 0001:00014a20       ??_G?$DArray@PAD@@QAEPAXI@Z 00415a20 f i language_table.obj
 0001:00014a40       ?ClearTranslation@LanguageTable@@QAEXXZ 00415a40 f   language_table.obj
 0001:00014aa0       ?DoesPhraseExist@LanguageTable@@QAE_NPAD@Z 00415aa0 f   language_table.obj
 0001:00014ad0       ?DoesTranslationExist@LanguageTable@@QAE_NPAD@Z 00415ad0 f   language_table.obj
 0001:00014b00       ?LookupBasePhrase@LanguageTable@@QAEPADPAD@Z 00415b00 f   language_table.obj
 0001:00014b40       ?LookupPhrase@LanguageTable@@QAEPADPAD@Z 00415b40 f   language_table.obj
 0001:00014b80       ?LookupPhraseAdditional@LanguageTable@@QAEPADPAD@Z 00415b80 f   language_table.obj
 0001:00014ba0       ?TestTranslation@LanguageTable@@QAEXPAD@Z 00415ba0 f   language_table.obj
 0001:00014d80       ?ReplaceStringFlag@LanguageTable@@QAEHDPAD0@Z 00415d80 f   language_table.obj
 0001:00014e80       ?ReplaceIntegerFlag@LanguageTable@@QAEHDHPAD@Z 00415e80 f   language_table.obj
 0001:00014ed0       ?DoesFlagExist@LanguageTable@@QAE_NDPAD@Z 00415ed0 f   language_table.obj
 0001:00014f10       ?ClearLanguagePhraseErrors@LanguageTable@@IAEXXZ 00415f10 f   language_table.obj
 0001:00014f70       ?DebugLookupPhrase@LanguageTable@@QAEPADPADH0@Z 00415f70 f   language_table.obj
 0001:000150a0       ?LanguageTableIsNewLanguagePhraseError@LanguageTable@@IAE_NPADHD0H@Z 004160a0 f   language_table.obj
 0001:00015140       ?DebugReplaceStringFlag@LanguageTable@@QAEHPADHD00@Z 00416140 f   language_table.obj
 0001:000151c0       ?DebugReplaceIntegerFlag@LanguageTable@@QAEHPADHDH0@Z 004161c0 f   language_table.obj
 0001:00015240       ??0Language@@QAE@XZ        00416240 f   language_table.obj
 0001:00015290       ??0?$BTree@PAD@@QAE@XZ     00416290 f i language_table.obj
 0001:000152a0       ??1?$BTree@PAD@@QAE@XZ     004162a0 f i language_table.obj
 0001:000152b0       ?PutData@?$BTree@PAD@@QAEXPBDABQAD@Z 004162b0 f i language_table.obj
 0001:00015400       ?RemoveData@?$BTree@PAD@@QAEXPBD@Z 00416400 f i language_table.obj
 0001:00015560       ?GetData@?$BTree@PAD@@QAEPADPBD@Z 00416560 f i language_table.obj
 0001:00015570       ?LookupTree@?$BTree@PAD@@QAEPAV1@PBD@Z 00416570 f i language_table.obj
 0001:000155c0       ?Empty@?$BTree@PAD@@QAEXXZ 004165c0 f i language_table.obj
 0001:00015610       ?ConvertToDArray@?$BTree@PAD@@QAEPAV?$DArray@PAD@@XZ 00416610 f i language_table.obj
 0001:00015650       ?ConvertIndexToDArray@?$BTree@PAD@@QAEPAV?$DArray@PAD@@XZ 00416650 f i language_table.obj
 0001:00015690       ??0?$LList@PAVLanguage@@@@QAE@XZ 00416690 f i language_table.obj
 0001:000156b0       ??1?$LList@PAVLanguage@@@@QAE@XZ 004166b0 f i language_table.obj
 0001:000156c0       ?PutData@?$LList@PAVLanguage@@@@QAEXABQAVLanguage@@@Z 004166c0 f i language_table.obj
 0001:000156d0       ?GetData@?$LList@PAVLanguage@@@@QBEPAVLanguage@@H@Z 004166d0 f i language_table.obj
 0001:000156e0       ?Size@?$LList@PAVLanguage@@@@QBEHXZ 004166e0 f i language_table.obj
 0001:000156f0       ?EmptyAndDelete@?$LList@PAVLanguage@@@@QAEXXZ 004166f0 f i language_table.obj
 0001:00015730       ??1?$DArray@PAD@@QAE@XZ    00416730 f i language_table.obj
 0001:00015740       ?GetData@?$DArray@PAD@@QBEPADH@Z 00416740 f i language_table.obj
 0001:00015790       ?Size@?$DArray@PAD@@QBEHXZ 00416790 f i language_table.obj
 0001:000157a0       ?ValidIndex@?$DArray@PAD@@QBE_NH@Z 004167a0 f i language_table.obj
 0001:000157c0       ?EmptyAndDelete@?$DArray@PAD@@QAEXXZ 004167c0 f i language_table.obj
 0001:00015800       ??_G?$BTree@PAD@@QAEPAXI@Z 00416800 f i language_table.obj
 0001:00015820       ?RecursiveConvertToDArray@?$BTree@PAD@@IAEXPAV?$DArray@PAD@@PAV1@@Z 00416820 f i language_table.obj
 0001:00015880       ?RecursiveConvertIndexToDArray@?$BTree@PAD@@IAEXPAV?$DArray@PAD@@PAV1@@Z 00416880 f i language_table.obj
 0001:000158e0       ?AppendRight@?$BTree@PAD@@IAEXPAV1@@Z 004168e0 f i language_table.obj
 0001:00015900       ??0?$BTree@PAD@@QAE@PBDABQAD@Z 00416900 f i language_table.obj
 0001:00015950       ?Left@?$BTree@PAD@@QBEPAV1@XZ 00416950 f i language_table.obj
 0001:00015960       ?Right@?$BTree@PAD@@QBEPAV1@XZ 00416960 f i language_table.obj
 0001:00015970       ??0?$DArray@PAD@@QAE@XZ    00416970 f i language_table.obj
 0001:00015990       ?Empty@?$DArray@PAD@@QAEXXZ 00416990 f i language_table.obj
 0001:000159c0       ?GetItem@?$LList@PAVLanguage@@@@IBEPAV?$LListItem@PAVLanguage@@@@H@Z 004169c0 f i language_table.obj
 0001:00015a50       ?PutDataAtEnd@?$LList@PAVLanguage@@@@QAEXABQAVLanguage@@@Z 00416a50 f i language_table.obj
 0001:00015ab0       ?RemoveData@?$LList@PAVLanguage@@@@QAEXH@Z 00416ab0 f i language_table.obj
 0001:00015b30       ?Empty@?$LList@PAVLanguage@@@@QAEXXZ 00416b30 f i language_table.obj
 0001:00015b70       ??_G?$LListItem@PAVLanguage@@@@QAEPAXI@Z 00416b70 f i language_table.obj
 0001:00015b80       ?PutData@?$DArray@PAD@@QAEHABQAD@Z 00416b80 f i language_table.obj
 0001:00015bd0       ?ValidIndex@?$LList@PAVLanguage@@@@QBE_NH@Z 00416bd0 f i language_table.obj
 0001:00015bf0       ??0?$LListItem@PAVLanguage@@@@QAE@XZ 00416bf0 f i language_table.obj
 0001:00015c00       ??1?$LListItem@PAVLanguage@@@@QAE@XZ 00416c00 f i language_table.obj
 0001:00015c10       ?Grow@?$DArray@PAD@@IAEXXZ 00416c10 f i language_table.obj
 0001:00015c40       ?SetSize@?$DArray@PAD@@QAEXH@Z 00416c40 f i language_table.obj
 0001:00015d40       ??0bad_alloc@std@@QAE@PBD@Z 00416d40 f i memory_leak.obj
 0001:00015d60       ??1bad_alloc@std@@UAE@XZ   00416d60 f i memory_leak.obj
 0001:00015d70       ??_Gbad_alloc@std@@UAEPAXI@Z 00416d70 f i memory_leak.obj
 0001:00015d70       ??_Ebad_alloc@std@@UAEPAXI@Z 00416d70 f i  CIL library: CIL module
 0001:00015da0       ?copy@?$char_traits@D@std@@SAPADPADPBDI@Z 00416da0 f i memory_leak.obj
 0001:00015db0       ?move@?$char_traits@D@std@@SAPADPADPBDI@Z 00416db0 f i memory_leak.obj
 0001:00015dc0       ?assign@?$char_traits@D@std@@SAPADPADID@Z 00416dc0 f i memory_leak.obj
 0001:00015dd0       ?assign@?$char_traits@D@std@@SAXAADABD@Z 00416dd0 f i memory_leak.obj
 0001:00015de0       ?to_char_type@?$char_traits@D@std@@SADABH@Z 00416de0 f i memory_leak.obj
 0001:00015df0       ?to_int_type@?$char_traits@D@std@@SAHABD@Z 00416df0 f i memory_leak.obj
 0001:00015e00       ?eq_int_type@?$char_traits@D@std@@SA_NABH0@Z 00416e00 f i memory_leak.obj
 0001:00015e10       ?not_eof@?$char_traits@D@std@@SAHABH@Z 00416e10 f i memory_leak.obj
 0001:00015e20       ?eof@?$char_traits@D@std@@SAHXZ 00416e20 f i memory_leak.obj
 0001:00015e30       ?_Adopt@_Iterator_base0@std@@QAEXPBX@Z 00416e30 f i memory_leak.obj
 0001:00015e40       ??0runtime_error@std@@QAE@PBD@Z 00416e40 f i memory_leak.obj
 0001:00015e60       ??_Gruntime_error@std@@UAEPAXI@Z 00416e60 f i memory_leak.obj
 0001:00015e60       ??_Eruntime_error@std@@UAEPAXI@Z 00416e60 f i  CIL library: CIL module
 0001:00015e90       ??1runtime_error@std@@UAE@XZ 00416e90 f i memory_leak.obj
 0001:00015ea0       ??0_Locinfo@std@@QAE@PBD@Z 00416ea0 f i memory_leak.obj
 0001:00015f40       ??1_Locinfo@std@@QAE@XZ    00416f40 f i memory_leak.obj
 0001:00015ff0       ?_Getctype@_Locinfo@std@@QBE?AU_Ctypevec@@XZ 00416ff0 f i memory_leak.obj
 0001:00016020       ??0runtime_error@std@@QAE@ABV01@@Z 00417020 f i memory_leak.obj
 0001:00016040       ??0id@locale@std@@QAE@I@Z  00417040 f i memory_leak.obj
 0001:00016050       ??Bid@locale@std@@QAEIXZ   00417050 f i memory_leak.obj
 0001:00016090       ?_Incref@facet@locale@std@@QAEXXZ 00417090 f i memory_leak.obj
 0001:000160c0       ?_Decref@facet@locale@std@@QAEPAV123@XZ 004170c0 f i memory_leak.obj
 0001:00016100       ?_Register@facet@locale@std@@QAEXXZ 00417100 f i memory_leak.obj
 0001:00016110       ??1facet@locale@std@@UAE@XZ 00417110 f i memory_leak.obj
 0001:00016120       ??0facet@locale@std@@IAE@I@Z 00417120 f i memory_leak.obj
 0001:00016140       ??0locale@std@@QAE@ABV01@@Z 00417140 f i memory_leak.obj
 0001:00016170       ??0locale@std@@QAE@XZ      00417170 f i memory_leak.obj
 0001:000161b0       ??1locale@std@@QAE@XZ      004171b0 f i memory_leak.obj
 0001:00016200       ?c_str@locale@std@@QBEPBDXZ 00417200 f i memory_leak.obj
 0001:00016210       ?_Getfacet@locale@std@@QBEPBVfacet@12@I@Z 00417210 f i memory_leak.obj
 0001:00016240       ??_Efacet@locale@std@@UAEPAXI@Z 00417240 f i  CIL library: CIL module
 0001:00016240       ??_Gfacet@locale@std@@UAEPAXI@Z 00417240 f i memory_leak.obj
 0001:00016270       ??0codecvt_base@std@@QAE@I@Z 00417270 f i memory_leak.obj
 0001:00016280       ?always_noconv@codecvt_base@std@@QBE_NXZ 00417280 f i memory_leak.obj
 0001:00016290       ??1codecvt_base@std@@UAE@XZ 00417290 f i memory_leak.obj
 0001:000162a0       ?do_always_noconv@codecvt_base@std@@MBE_NXZ 004172a0 f i memory_leak.obj
 0001:000162b0       ?do_max_length@codecvt_base@std@@MBEHXZ 004172b0 f i memory_leak.obj
 0001:000162c0       ?do_encoding@codecvt_base@std@@MBEHXZ 004172c0 f i memory_leak.obj
 0001:000162d0       ??_Ecodecvt_base@std@@UAEPAXI@Z 004172d0 f i  CIL library: CIL module
 0001:000162d0       ??_Gcodecvt_base@std@@UAEPAXI@Z 004172d0 f i memory_leak.obj
 0001:00016300       ??0ctype_base@std@@QAE@I@Z 00417300 f i memory_leak.obj
 0001:00016310       ??1ctype_base@std@@UAE@XZ  00417310 f i memory_leak.obj
 0001:00016320       ??_Ectype_base@std@@UAEPAXI@Z 00417320 f i  CIL library: CIL module
 0001:00016320       ??_Gctype_base@std@@UAEPAXI@Z 00417320 f i memory_leak.obj
 0001:00016350       ?is@?$ctype@D@std@@QBE_NFD@Z 00417350 f i memory_leak.obj
 0001:00016370       ?widen@?$ctype@D@std@@QBEDD@Z 00417370 f i memory_leak.obj
 0001:00016380       ??0?$ctype@D@std@@QAE@ABV_Locinfo@1@I@Z 00417380 f i memory_leak.obj
 0001:000163c0       ?_Getcat@?$ctype@D@std@@SAIPAPBVfacet@locale@2@PBV42@@Z 004173c0 f i memory_leak.obj
 0001:00016470       ??1?$ctype@D@std@@MAE@XZ   00417470 f i memory_leak.obj
 0001:000164b0       ?_Init@?$ctype@D@std@@IAEXABV_Locinfo@2@@Z 004174b0 f i memory_leak.obj
 0001:000164e0       ?_Tidy@?$ctype@D@std@@IAEXXZ 004174e0 f i memory_leak.obj
 0001:00016510       ?do_tolower@?$ctype@D@std@@MBEDD@Z 00417510 f i memory_leak.obj
 0001:00016530       ?do_tolower@?$ctype@D@std@@MBEPBDPADPBD@Z 00417530 f i memory_leak.obj
 0001:00016560       ?do_toupper@?$ctype@D@std@@MBEDD@Z 00417560 f i memory_leak.obj
 0001:00016580       ?do_toupper@?$ctype@D@std@@MBEPBDPADPBD@Z 00417580 f i memory_leak.obj
 0001:000165b0       ?do_widen@?$ctype@D@std@@MBEDD@Z 004175b0 f i memory_leak.obj
 0001:000165c0       ?do_widen@?$ctype@D@std@@MBEPBDPBD0PAD@Z 004175c0 f i memory_leak.obj
 0001:000165f0       ?do_narrow@?$ctype@D@std@@MBEDDD@Z 004175f0 f i memory_leak.obj
 0001:00016600       ?do_narrow@?$ctype@D@std@@MBEPBDPBD0DPAD@Z 00417600 f i memory_leak.obj
 0001:00016630       ??_G?$ctype@D@std@@MAEPAXI@Z 00417630 f i memory_leak.obj
 0001:00016630       ??_E?$ctype@D@std@@MAEPAXI@Z 00417630 f i  CIL library: CIL module
 0001:00016680       ??0error_code@std@@QAE@HABVerror_category@1@@Z 00417680 f i memory_leak.obj
 0001:00016690       ?make_error_code@std@@YA?AVerror_code@1@W4io_errc@31@@Z 00417690 f i memory_leak.obj
 0001:000166b0       ??0system_error@std@@QAE@Verror_code@1@PBD@Z 004176b0 f i memory_leak.obj
 0001:000166e0       ?_Makestr@system_error@std@@AAEXXZ 004176e0 f i memory_leak.obj
 0001:000166f0       ??_Esystem_error@std@@UAEPAXI@Z 004176f0 f i  CIL library: CIL module
 0001:000166f0       ??_Gsystem_error@std@@UAEPAXI@Z 004176f0 f i memory_leak.obj
 0001:00016720       ??1system_error@std@@UAE@XZ 00417720 f i memory_leak.obj
 0001:00016730       ??0failure@ios_base@std@@QAE@PBDABVerror_code@2@@Z 00417730 f i memory_leak.obj
 0001:00016760       ?clear@ios_base@std@@QAEXH_N@Z 00417760 f i memory_leak.obj
 0001:00016830       ?clear@ios_base@std@@QAEXH@Z 00417830 f i memory_leak.obj
 0001:00016850       ?rdstate@ios_base@std@@QBEHXZ 00417850 f i memory_leak.obj
 0001:00016860       ?good@ios_base@std@@QBE_NXZ 00417860 f i memory_leak.obj
 0001:00016870       ?eof@ios_base@std@@QBE_NXZ 00417870 f i memory_leak.obj
 0001:00016880       ?fail@ios_base@std@@QBE_NXZ 00417880 f i memory_leak.obj
 0001:00016890       ?flags@ios_base@std@@QBEHXZ 00417890 f i memory_leak.obj
 0001:000168a0       ?getloc@ios_base@std@@QBE?AVlocale@2@XZ 004178a0 f i memory_leak.obj
 0001:000168e0       ??1ios_base@std@@UAE@XZ    004178e0 f i memory_leak.obj
 0001:000168f0       ??0ios_base@std@@IAE@XZ    004178f0 f i memory_leak.obj
 0001:00016900       ?_Init@ios_base@std@@IAEXXZ 00417900 f i memory_leak.obj
 0001:00016990       ??_Gfailure@ios_base@std@@UAEPAXI@Z 00417990 f i memory_leak.obj
 0001:00016990       ??_Efailure@ios_base@std@@UAEPAXI@Z 00417990 f i  CIL library: CIL module
 0001:000169c0       ??1failure@ios_base@std@@UAE@XZ 004179c0 f i memory_leak.obj
 0001:000169d0       ??0failure@ios_base@std@@QAE@ABV012@@Z 004179d0 f i memory_leak.obj
 0001:00016a00       ??0system_error@std@@QAE@ABV01@@Z 00417a00 f i memory_leak.obj
 0001:00016a30       ??_Eios_base@std@@UAEPAXI@Z 00417a30 f i  CIL library: CIL module
 0001:00016a30       ??_Gios_base@std@@UAEPAXI@Z 00417a30 f i memory_leak.obj
 0001:00016a60       ??1sentry@?$basic_istream@DU?$char_traits@D@std@@@std@@QAE@XZ 00417a60 f i memory_leak.obj
 0001:00016a80       ??$_Fgetc@D@std@@YA_NAADPAU_iobuf@@@Z 00417a80 f i memory_leak.obj
 0001:00016aa0       ??$_Fputc@D@std@@YA_NDPAU_iobuf@@@Z 00417aa0 f i memory_leak.obj
 0001:00016ac0       ??$_Ungetc@D@std@@YA_NABDPAU_iobuf@@@Z 00417ac0 f i memory_leak.obj
 0001:00016ae0       ?LowerCaseString@@YAPADPBD@Z 00417ae0 f   memory_leak.obj
 0001:00016b30       ?ParseMemoryLeakFile@@YAXPAD0@Z 00417b30 f   memory_leak.obj
 0001:000171d0       ??_D?$basic_ifstream@DU?$char_traits@D@std@@@std@@QAEXXZ 004181d0 f i memory_leak.obj
 0001:000171f0       ??_G?$DArray@H@@QAEPAXI@Z  004181f0 f i memory_leak.obj
 0001:00017210       ?AppPrintMemoryLeaks@@YAXPAD@Z 00418210 f   memory_leak.obj
 0001:00017280       ??1?$basic_string@DU?$char_traits@D@std@@V?$allocator@D@2@@std@@QAE@XZ 00418280 f i memory_leak.obj
 0001:000172b0       ??0?$_Yarn@D@std@@QAE@XZ   004182b0 f i memory_leak.obj
 0001:000172c0       ??1?$_Yarn@D@std@@QAE@XZ   004182c0 f i memory_leak.obj
 0001:000172e0       ?c_str@?$_Yarn@D@std@@QBEPBDXZ 004182e0 f i memory_leak.obj
 0001:000172f0       ?flush@?$basic_ostream@DU?$char_traits@D@std@@@std@@QAEAAV12@XZ 004182f0 f i memory_leak.obj
 0001:00017350       ??1?$basic_ios@DU?$char_traits@D@std@@@std@@UAE@XZ 00418350 f i memory_leak.obj
 0001:00017360       ?setstate@?$basic_ios@DU?$char_traits@D@std@@@std@@QAEXH_N@Z 00418360 f i memory_leak.obj
 0001:00017390       ?rdbuf@?$basic_ios@DU?$char_traits@D@std@@@std@@QBEPAV?$basic_streambuf@DU?$char_traits@D@std@@@2@XZ 00418390 f i memory_leak.obj
 0001:000173a0       ??1?$basic_istream@DU?$char_traits@D@std@@@std@@UAE@XZ 004183a0 f i memory_leak.obj
 0001:000173b0       ?getline@?$basic_istream@DU?$char_traits@D@std@@@std@@QAEAAV12@PAD_J@Z 004183b0 f i memory_leak.obj
 0001:000173e0       ??0sentry@?$basic_istream@DU?$char_traits@D@std@@@std@@QAE@AAV12@_N@Z 004183e0 f i memory_leak.obj
 0001:00017450       ??Bsentry@?$basic_istream@DU?$char_traits@D@std@@@std@@QBEPQ_Bool_struct@2@HXZ 00418450 f i memory_leak.obj
 0001:00017460       ??1_Sentry_base@?$basic_istream@DU?$char_traits@D@std@@@std@@QAE@XZ 00418460 f i memory_leak.obj
 0001:00017480       ??1?$basic_streambuf@DU?$char_traits@D@std@@@std@@UAE@XZ 00418480 f i memory_leak.obj
 0001:00017500       ?sgetc@?$basic_streambuf@DU?$char_traits@D@std@@@std@@QAEHXZ 00418500 f i memory_leak.obj
 0001:00017520       ?snextc@?$basic_streambuf@DU?$char_traits@D@std@@@std@@QAEHXZ 00418520 f i memory_leak.obj
 0001:000175a0       ?_Lock@?$basic_streambuf@DU?$char_traits@D@std@@@std@@UAEXXZ 004185a0 f i memory_leak.obj
 0001:000175b0       ?_Unlock@?$basic_streambuf@DU?$char_traits@D@std@@@std@@UAEXXZ 004185b0 f i memory_leak.obj
 0001:000175c0       ?overflow@?$basic_streambuf@DU?$char_traits@D@std@@@std@@MAEHH@Z 004185c0 f i memory_leak.obj
 0001:000175d0       ?pbackfail@?$basic_streambuf@DU?$char_traits@D@std@@@std@@MAEHH@Z 004185d0 f i memory_leak.obj
 0001:000175e0       ?showmanyc@?$basic_streambuf@DU?$char_traits@D@std@@@std@@MAE_JXZ 004185e0 f i memory_leak.obj
 0001:000175f0       ?underflow@?$basic_streambuf@DU?$char_traits@D@std@@@std@@MAEHXZ 004185f0 f i memory_leak.obj
 0001:00017600       ?uflow@?$basic_streambuf@DU?$char_traits@D@std@@@std@@MAEHXZ 00418600 f i memory_leak.obj
 0001:00017630       ?xsgetn@?$basic_streambuf@DU?$char_traits@D@std@@@std@@MAE_JPAD_J@Z 00418630 f i memory_leak.obj
 0001:00017710       ?xsputn@?$basic_streambuf@DU?$char_traits@D@std@@@std@@MAE_JPBD_J@Z 00418710 f i memory_leak.obj
 0001:000177f0       ?seekoff@?$basic_streambuf@DU?$char_traits@D@std@@@std@@MAE?AV?$fpos@H@2@_JHH@Z 004187f0 f i memory_leak.obj
 0001:00017820       ?seekpos@?$basic_streambuf@DU?$char_traits@D@std@@@std@@MAE?AV?$fpos@H@2@V32@H@Z 00418820 f i memory_leak.obj
 0001:00017850       ?setbuf@?$basic_streambuf@DU?$char_traits@D@std@@@std@@MAEPAV12@PAD_J@Z 00418850 f i memory_leak.obj
 0001:00017860       ?sync@?$basic_streambuf@DU?$char_traits@D@std@@@std@@MAEHXZ 00418860 f i memory_leak.obj
 0001:00017870       ?imbue@?$basic_streambuf@DU?$char_traits@D@std@@@std@@MAEXABVlocale@2@@Z 00418870 f i memory_leak.obj
 0001:00017880       ??0?$basic_ifstream@DU?$char_traits@D@std@@@std@@QAE@PBDHH@Z 00418880 f i memory_leak.obj
 0001:000179a0       ??1?$basic_ifstream@DU?$char_traits@D@std@@@std@@UAE@XZ 004189a0 f i memory_leak.obj
 0001:00017a50       ?close@?$basic_ifstream@DU?$char_traits@D@std@@@std@@QAEXXZ 00418a50 f i memory_leak.obj
 0001:00017a90       ??1?$basic_filebuf@DU?$char_traits@D@std@@@std@@UAE@XZ 00418a90 f i memory_leak.obj
 0001:00017b20       ?_Lock@?$basic_filebuf@DU?$char_traits@D@std@@@std@@UAEXXZ 00418b20 f i memory_leak.obj
 0001:00017b30       ?_Unlock@?$basic_filebuf@DU?$char_traits@D@std@@@std@@UAEXXZ 00418b30 f i memory_leak.obj
 0001:00017b40       ?overflow@?$basic_filebuf@DU?$char_traits@D@std@@@std@@MAEHH@Z 00418b40 f i memory_leak.obj
 0001:00017d20       ?pbackfail@?$basic_filebuf@DU?$char_traits@D@std@@@std@@MAEHH@Z 00418d20 f i memory_leak.obj
 0001:00017db0       ?underflow@?$basic_filebuf@DU?$char_traits@D@std@@@std@@MAEHXZ 00418db0 f i memory_leak.obj
 0001:00017e00       ?uflow@?$basic_filebuf@DU?$char_traits@D@std@@@std@@MAEHXZ 00418e00 f i memory_leak.obj
 0001:00018080       ?seekoff@?$basic_filebuf@DU?$char_traits@D@std@@@std@@MAE?AV?$fpos@H@2@_JHH@Z 00419080 f i memory_leak.obj
 0001:00018160       ?seekpos@?$basic_filebuf@DU?$char_traits@D@std@@@std@@MAE?AV?$fpos@H@2@V32@H@Z 00419160 f i memory_leak.obj
 0001:00018240       ?setbuf@?$basic_filebuf@DU?$char_traits@D@std@@@std@@MAEPAV?$basic_streambuf@DU?$char_traits@D@std@@@2@PAD_J@Z 00419240 f i memory_leak.obj
 0001:000182a0       ?sync@?$basic_filebuf@DU?$char_traits@D@std@@@std@@MAEHXZ 004192a0 f i memory_leak.obj
 0001:000182d0       ?imbue@?$basic_filebuf@DU?$char_traits@D@std@@@std@@MAEXABVlocale@2@@Z 004192d0 f i memory_leak.obj
 0001:00018310       ??_E?$basic_ios@DU?$char_traits@D@std@@@std@@UAEPAXI@Z 00419310 f i  CIL library: CIL module
 0001:00018310       ??_G?$basic_ios@DU?$char_traits@D@std@@@std@@UAEPAXI@Z 00419310 f i memory_leak.obj
 0001:00018340       ??_E?$basic_istream@DU?$char_traits@D@std@@@std@@UAEPAXI@Z 00419340 f i  CIL library: CIL module
 0001:00018340       ??_G?$basic_istream@DU?$char_traits@D@std@@@std@@UAEPAXI@Z 00419340 f i memory_leak.obj
 0001:00018380       ??_E?$basic_streambuf@DU?$char_traits@D@std@@@std@@UAEPAXI@Z 00419380 f i  CIL library: CIL module
 0001:00018380       ??_G?$basic_streambuf@DU?$char_traits@D@std@@@std@@UAEPAXI@Z 00419380 f i memory_leak.obj
 0001:000183b0       ??_Glocale@std@@QAEPAXI@Z  004193b0 f i memory_leak.obj
 0001:00018420       ??_G?$basic_ifstream@DU?$char_traits@D@std@@@std@@UAEPAXI@Z 00419420 f i memory_leak.obj
 0001:00018420       ??_E?$basic_ifstream@DU?$char_traits@D@std@@@std@@UAEPAXI@Z 00419420 f i  CIL library: CIL module
 0001:00018460       ??_G?$basic_filebuf@DU?$char_traits@D@std@@@std@@UAEPAXI@Z 00419460 f i memory_leak.obj
 0001:00018460       ??_E?$basic_filebuf@DU?$char_traits@D@std@@@std@@UAEPAXI@Z 00419460 f i  CIL library: CIL module
 0001:00018500       ??_D?$basic_istream@DU?$char_traits@D@std@@@std@@QAEXXZ 00419500 f i memory_leak.obj
 0001:00018520       ??0?$basic_string@DU?$char_traits@D@std@@V?$allocator@D@2@@std@@QAE@XZ 00419520 f i memory_leak.obj
 0001:00018540       ??0?$basic_string@DU?$char_traits@D@std@@V?$allocator@D@2@@std@@QAE@ID@Z 00419540 f i memory_leak.obj
 0001:000185a0       ?append@?$basic_string@DU?$char_traits@D@std@@V?$allocator@D@2@@std@@QAEAAV12@ID@Z 004195a0 f i memory_leak.obj
 0001:00018670       ?erase@?$basic_string@DU?$char_traits@D@std@@V?$allocator@D@2@@std@@QAEAAV12@II@Z 00419670 f i memory_leak.obj
 0001:00018700       ?begin@?$basic_string@DU?$char_traits@D@std@@V?$allocator@D@2@@std@@QAE?AV?$_String_iterator@DU?$char_traits@D@std@@V?$allocator@D@2@@2@XZ 00419700 f i memory_leak.obj
 0001:00018710       ?size@?$basic_string@DU?$char_traits@D@std@@V?$allocator@D@2@@std@@QBEIXZ 00419710 f i memory_leak.obj
 0001:00018720       ?_Tidy@?$basic_string@DU?$char_traits@D@std@@V?$allocator@D@2@@std@@QAEX_NI@Z 00419720 f i memory_leak.obj
 0001:00018770       ??0?$_String_val@DV?$allocator@D@std@@@std@@QAE@V?$allocator@D@1@@Z 00419770 f i memory_leak.obj
 0001:00018780       ??1?$_String_val@DV?$allocator@D@std@@@std@@QAE@XZ 00419780 f i memory_leak.obj
 0001:00018790       ??0?$allocator@D@std@@QAE@XZ 00419790 f i memory_leak.obj
 0001:000187a0       ?_Tidy@?$_Yarn@D@std@@AAEXXZ 004197a0 f i memory_leak.obj
 0001:000187c0       ?clear@?$basic_ios@DU?$char_traits@D@std@@@std@@QAEXH_N@Z 004197c0 f i memory_leak.obj
 0001:000187f0       ?widen@?$basic_ios@DU?$char_traits@D@std@@@std@@QBEDD@Z 004197f0 f i memory_leak.obj
 0001:000188a0       ??0?$basic_ios@DU?$char_traits@D@std@@@std@@IAE@XZ 004198a0 f i memory_leak.obj
 0001:000188b0       ??0?$basic_istream@DU?$char_traits@D@std@@@std@@QAE@PAV?$basic_streambuf@DU?$char_traits@D@std@@@1@_N@Z 004198b0 f i memory_leak.obj
 0001:00018950       ?_Ipfx@?$basic_istream@DU?$char_traits@D@std@@@std@@QAE_N_N@Z 00419950 f i memory_leak.obj
 0001:000189f0       ?getline@?$basic_istream@DU?$char_traits@D@std@@@std@@QAEAAV12@PAD_JD@Z 004199f0 f i memory_leak.obj
 0001:00018c00       ??0_Sentry_base@?$basic_istream@DU?$char_traits@D@std@@@std@@QAE@AAV12@@Z 00419c00 f i memory_leak.obj
 0001:00018c20       ?pubsync@?$basic_streambuf@DU?$char_traits@D@std@@@std@@QAEHXZ 00419c20 f i memory_leak.obj
 0001:00018c30       ?sbumpc@?$basic_streambuf@DU?$char_traits@D@std@@@std@@QAEHXZ 00419c30 f i memory_leak.obj
 0001:00018c60       ?eback@?$basic_streambuf@DU?$char_traits@D@std@@@std@@IBEPADXZ 00419c60 f i memory_leak.obj
 0001:00018c70       ?gptr@?$basic_streambuf@DU?$char_traits@D@std@@@std@@IBEPADXZ 00419c70 f i memory_leak.obj
 0001:00018c80       ?pptr@?$basic_streambuf@DU?$char_traits@D@std@@@std@@IBEPADXZ 00419c80 f i memory_leak.obj
 0001:00018c90       ?egptr@?$basic_streambuf@DU?$char_traits@D@std@@@std@@IBEPADXZ 00419c90 f i memory_leak.obj
 0001:00018ca0       ?gbump@?$basic_streambuf@DU?$char_traits@D@std@@@std@@IAEXH@Z 00419ca0 f i memory_leak.obj
 0001:00018cb0       ?epptr@?$basic_streambuf@DU?$char_traits@D@std@@@std@@IBEPADXZ 00419cb0 f i memory_leak.obj
 0001:00018cc0       ?_Gndec@?$basic_streambuf@DU?$char_traits@D@std@@@std@@IAEPADXZ 00419cc0 f i memory_leak.obj
 0001:00018cd0       ?_Gninc@?$basic_streambuf@DU?$char_traits@D@std@@@std@@IAEPADXZ 00419cd0 f i memory_leak.obj
 0001:00018ce0       ?_Gnpreinc@?$basic_streambuf@DU?$char_traits@D@std@@@std@@IAEPADXZ 00419ce0 f i memory_leak.obj
 0001:00018cf0       ?_Gnavail@?$basic_streambuf@DU?$char_traits@D@std@@@std@@IBE_JXZ 00419cf0 f i memory_leak.obj
 0001:00018d10       ?pbump@?$basic_streambuf@DU?$char_traits@D@std@@@std@@IAEXH@Z 00419d10 f i memory_leak.obj
 0001:00018d20       ?_Pninc@?$basic_streambuf@DU?$char_traits@D@std@@@std@@IAEPADXZ 00419d20 f i memory_leak.obj
 0001:00018d30       ?_Pnavail@?$basic_streambuf@DU?$char_traits@D@std@@@std@@IBE_JXZ 00419d30 f i memory_leak.obj
 0001:00018d50       ??0?$basic_filebuf@DU?$char_traits@D@std@@@std@@QAE@PAU_iobuf@@@Z 00419d50 f i memory_leak.obj
 0001:00018d70       ?open@?$basic_filebuf@DU?$char_traits@D@std@@@std@@QAEPAV12@PBDHH@Z 00419d70 f i memory_leak.obj
 0001:00018e50       ?close@?$basic_filebuf@DU?$char_traits@D@std@@@std@@QAEPAV12@XZ 00419e50 f i memory_leak.obj
 0001:00018ee0       ?_Init@?$basic_filebuf@DU?$char_traits@D@std@@@std@@IAEXPAU_iobuf@@W4_Initfl@12@@Z 00419ee0 f i memory_leak.obj
 0001:00018f80       ?_Endwrite@?$basic_filebuf@DU?$char_traits@D@std@@@std@@IAE_NXZ 00419f80 f i memory_leak.obj
 0001:000190b0       ?_Initcvt@?$basic_filebuf@DU?$char_traits@D@std@@@std@@IAEXPBV?$codecvt@DDH@2@@Z 0041a0b0 f i memory_leak.obj
 0001:000190d0       ?_Reset_back@?$basic_filebuf@DU?$char_traits@D@std@@@std@@AAEXXZ 0041a0d0 f i memory_leak.obj
 0001:00019100       ?_Set_back@?$basic_filebuf@DU?$char_traits@D@std@@@std@@AAEXXZ 0041a100 f i memory_leak.obj
 0001:00019140       ??0?$fpos@H@std@@QAE@_J@Z  0041a140 f i memory_leak.obj
 0001:00019160       ??0?$fpos@H@std@@QAE@H_J@Z 0041a160 f i memory_leak.obj
 0001:00019190       ?state@?$fpos@H@std@@QBEHXZ 0041a190 f i memory_leak.obj
 0001:000191a0       ?seekpos@?$fpos@H@std@@QBE_JXZ 0041a1a0 f i memory_leak.obj
 0001:000191b0       ??B?$fpos@H@std@@QBE_JXZ   0041a1b0 f i memory_leak.obj
 0001:000191c0       ?in@?$codecvt@DDH@std@@QBEHAAHPBD1AAPBDPAD3AAPAD@Z 0041a1c0 f i memory_leak.obj
 0001:000191f0       ?out@?$codecvt@DDH@std@@QBEHAAHPBD1AAPBDPAD3AAPAD@Z 0041a1f0 f i memory_leak.obj
 0001:00019220       ??1?$codecvt@DDH@std@@MAE@XZ 0041a220 f i memory_leak.obj
 0001:00019230       ?do_in@?$codecvt@DDH@std@@MBEHAAHPBD1AAPBDPAD3AAPAD@Z 0041a230 f i memory_leak.obj
 0001:00019250       ?do_out@?$codecvt@DDH@std@@MBEHAAHPBD1AAPBDPAD3AAPAD@Z 0041a250 f i memory_leak.obj
 0001:00019270       ?do_unshift@?$codecvt@DDH@std@@MBEHAAHPAD1AAPAD@Z 0041a270 f i memory_leak.obj
 0001:00019290       ?do_length@?$codecvt@DDH@std@@MBEHABHPBD1I@Z 0041a290 f i memory_leak.obj
 0001:000192b0       ??D?$_String_iterator@DU?$char_traits@D@std@@V?$allocator@D@2@@std@@QBEAADXZ 0041a2b0 f i memory_leak.obj
 0001:000192c0       ??_E?$codecvt@DDH@std@@MAEPAXI@Z 0041a2c0 f i  CIL library: CIL module
 0001:000192c0       ??_G?$codecvt@DDH@std@@MAEPAXI@Z 0041a2c0 f i memory_leak.obj
 0001:000192f0       ?assign@?$basic_string@DU?$char_traits@D@std@@V?$allocator@D@2@@std@@QAEAAV12@ID@Z 0041a2f0 f i memory_leak.obj
 0001:00019340       ?_Chassign@?$basic_string@DU?$char_traits@D@std@@V?$allocator@D@2@@std@@QAEXIID@Z 0041a340 f i memory_leak.obj
 0001:00019370       ?_Eos@?$basic_string@DU?$char_traits@D@std@@V?$allocator@D@2@@std@@QAEXI@Z 0041a370 f i memory_leak.obj
 0001:00019390       ?_Grow@?$basic_string@DU?$char_traits@D@std@@V?$allocator@D@2@@std@@QAE_NI_N@Z 0041a390 f i memory_leak.obj
 0001:00019440       ?_Myptr@?$basic_string@DU?$char_traits@D@std@@V?$allocator@D@2@@std@@QAEPADXZ 0041a440 f i memory_leak.obj
 0001:00019450       ?_Xlen@?$basic_string@DU?$char_traits@D@std@@V?$allocator@D@2@@std@@QBEXXZ 0041a450 f i memory_leak.obj
 0001:00019460       ?_Xran@?$basic_string@DU?$char_traits@D@std@@V?$allocator@D@2@@std@@QBEXXZ 0041a460 f i memory_leak.obj
 0001:00019470       ??0?$allocator@D@std@@QAE@ABV01@@Z 0041a470 f i memory_leak.obj
 0001:00019480       ?deallocate@?$allocator@D@std@@QAEXPADI@Z 0041a480 f i memory_leak.obj
 0001:000194a0       ?tie@?$basic_ios@DU?$char_traits@D@std@@@std@@QBEPAV?$basic_ostream@DU?$char_traits@D@std@@@2@XZ 0041a4a0 f i memory_leak.obj
 0001:000194b0       ?init@?$basic_ios@DU?$char_traits@D@std@@@std@@IAEXPAV?$basic_streambuf@DU?$char_traits@D@std@@@2@_N@Z 0041a4b0 f i memory_leak.obj
 0001:00019500       ??0?$basic_streambuf@DU?$char_traits@D@std@@@std@@IAE@XZ 0041a500 f i memory_leak.obj
 0001:000195f0       ?getloc@?$basic_streambuf@DU?$char_traits@D@std@@@std@@QBE?AVlocale@2@XZ 0041a5f0 f i memory_leak.obj
 0001:00019630       ?setg@?$basic_streambuf@DU?$char_traits@D@std@@@std@@IAEXPAD00@Z 0041a630 f i memory_leak.obj
 0001:00019650       ?_Init@?$basic_streambuf@DU?$char_traits@D@std@@@std@@IAEXXZ 0041a650 f i memory_leak.obj
 0001:000196b0       ?_Init@?$basic_streambuf@DU?$char_traits@D@std@@@std@@IAEXPAPAD0PAH001@Z 0041a6b0 f i memory_leak.obj
 0001:000196e0       ??D?$_String_const_iterator@DU?$char_traits@D@std@@V?$allocator@D@2@@std@@QBEABDXZ 0041a6e0 f i memory_leak.obj
 0001:000196f0       ?unshift@?$codecvt@DDH@std@@QBEHAAHPAD1AAPAD@Z 0041a6f0 f i memory_leak.obj
 0001:00019710       ??0?$_String_iterator@DU?$char_traits@D@std@@V?$allocator@D@2@@std@@QAE@PADPBU_Container_base0@1@@Z 0041a710 f i memory_leak.obj
 0001:00019720       ?max_size@?$basic_string@DU?$char_traits@D@std@@V?$allocator@D@2@@std@@QBEIXZ 0041a720 f i memory_leak.obj
 0001:00019730       ?_Copy@?$basic_string@DU?$char_traits@D@std@@V?$allocator@D@2@@std@@QAEXII@Z 0041a730 f i memory_leak.obj
 0001:000198a0       ?setp@?$basic_streambuf@DU?$char_traits@D@std@@@std@@IAEXPAD0@Z 0041a8a0 f i memory_leak.obj
 0001:000198c0       ??0?$_String_const_iterator@DU?$char_traits@D@std@@V?$allocator@D@2@@std@@QAE@PBDPBU_Container_base0@1@@Z 0041a8c0 f i memory_leak.obj
 0001:000198d0       ?allocate@?$allocator@D@std@@QAEPADI@Z 0041a8d0 f i memory_leak.obj
 0001:00019920       ?max_size@?$allocator@D@std@@QBEIXZ 0041a920 f i memory_leak.obj
 0001:00019930       ??$use_facet@V?$ctype@D@std@@@std@@YAABV?$ctype@D@0@ABVlocale@0@@Z 0041a930 f i memory_leak.obj
 0001:00019a70       ??0?$BTree@H@@QAE@XZ       0041aa70 f i memory_leak.obj
 0001:00019a80       ??1?$BTree@H@@QAE@XZ       0041aa80 f i memory_leak.obj
 0001:00019a90       ?PutData@?$BTree@H@@QAEXPBDABH@Z 0041aa90 f i memory_leak.obj
 0001:00019be0       ?GetData@?$BTree@H@@QAEHPBD@Z 0041abe0 f i memory_leak.obj
 0001:00019bf0       ?LookupTree@?$BTree@H@@QAEPAV1@PBD@Z 0041abf0 f i memory_leak.obj
 0001:00019c40       ?ConvertToDArray@?$BTree@H@@QAEPAV?$DArray@H@@XZ 0041ac40 f i memory_leak.obj
 0001:00019c80       ?ConvertIndexToDArray@?$BTree@H@@QAEPAV?$DArray@PAD@@XZ 0041ac80 f i memory_leak.obj
 0001:00019cc0       ?PutDataAtIndex@?$LList@PAD@@QAEXABQADH@Z 0041acc0 f i memory_leak.obj
 0001:00019d40       ??1?$DArray@H@@QAE@XZ      0041ad40 f i memory_leak.obj
 0001:00019d50       ?GetData@?$DArray@H@@QBEHH@Z 0041ad50 f i memory_leak.obj
 0001:00019da0       ??$use_facet@V?$codecvt@DDH@std@@@std@@YAABV?$codecvt@DDH@0@ABVlocale@0@@Z 0041ada0 f i memory_leak.obj
 0001:00019ee0       ??$_Allocate@D@std@@YAPADIPAD@Z 0041aee0 f i memory_leak.obj
 0001:00019f30       ??0bad_alloc@std@@QAE@ABV01@@Z 0041af30 f i memory_leak.obj
 0001:00019f50       ?_Getcat@?$codecvt@DDH@std@@SAIPAPBVfacet@locale@2@PBV42@@Z 0041af50 f i memory_leak.obj
 0001:0001a000       ??0?$codecvt@DDH@std@@QAE@ABV_Locinfo@1@I@Z 0041b000 f i memory_leak.obj
 0001:0001a010       ?_Init@?$codecvt@DDH@std@@IAEXABV_Locinfo@2@@Z 0041b010 f i memory_leak.obj
 0001:0001a020       ?RecursiveConvertToDArray@?$BTree@H@@IAEXPAV?$DArray@H@@PAV1@@Z 0041b020 f i memory_leak.obj
 0001:0001a080       ?RecursiveConvertIndexToDArray@?$BTree@H@@IAEXPAV?$DArray@PAD@@PAV1@@Z 0041b080 f i memory_leak.obj
 0001:0001a0e0       ??0?$BTree@H@@QAE@PBDABH@Z 0041b0e0 f i memory_leak.obj
 0001:0001a130       ?Empty@?$BTree@H@@QAEXXZ   0041b130 f i memory_leak.obj
 0001:0001a180       ??0?$DArray@H@@QAE@XZ      0041b180 f i memory_leak.obj
 0001:0001a1a0       ?Empty@?$DArray@H@@QAEXXZ  0041b1a0 f i memory_leak.obj
 0001:0001a1d0       ?PutDataAtStart@?$LList@PAD@@QAEXABQAD@Z 0041b1d0 f i memory_leak.obj
 0001:0001a240       ??_G?$BTree@H@@QAEPAXI@Z   0041b240 f i memory_leak.obj
 0001:0001a260       ?Left@?$BTree@H@@QBEPAV1@XZ 0041b260 f i memory_leak.obj
 0001:0001a270       ?Right@?$BTree@H@@QBEPAV1@XZ 0041b270 f i memory_leak.obj
 0001:0001a280       ?PutData@?$DArray@H@@QAEHABH@Z 0041b280 f i memory_leak.obj
 0001:0001a2d0       ?Grow@?$DArray@H@@IAEXXZ   0041b2d0 f i memory_leak.obj
 0001:0001a300       ?SetSize@?$DArray@H@@QAEXH@Z 0041b300 f i memory_leak.obj
 0001:0001a400       ?strrchr@@YAPADPADH@Z      0041b400 f i memory_leak.obj
 0001:0001a440       ??0MultiLineText@@QAE@PBDMM_N@Z 0041b440 f   multiline_text.obj
 0001:0001a570       ?AddWrappedLines@MultiLineText@@AAEXPADIMMPAVBitmapFont@@@Z 0041b570 f   multiline_text.obj
 0001:0001a670       ??0PreferencesItem@@QAE@XZ 0041b670 f   preferences.obj
 0001:0001a680       ??0PreferencesItem@@QAE@PAD@Z 0041b680 f   preferences.obj
 0001:0001a7c0       ??0PreferencesItem@@QAE@PAD0@Z 0041b7c0 f   preferences.obj
 0001:0001a7f0       ??0PreferencesItem@@QAE@PADM@Z 0041b7f0 f   preferences.obj
 0001:0001a810       ??0PreferencesItem@@QAE@PADH@Z 0041b810 f   preferences.obj
 0001:0001a830       ??1PreferencesItem@@QAE@XZ 0041b830 f   preferences.obj
 0001:0001a860       ??0Preferences@@QAE@XZ     0041b860 f   preferences.obj
 0001:0001a880       ??1?$FastDArray@PAD@@QAE@XZ 0041b880 f i preferences.obj
 0001:0001a890       ??1Preferences@@QAE@XZ     0041b890 f   preferences.obj
 0001:0001a9c0       ?IsLineEmpty@Preferences@@IAE_NPAD@Z 0041b9c0 f   preferences.obj
 0001:0001aa00       ?Load@Preferences@@QAEXPBD@Z 0041ba00 f   preferences.obj
 0001:0001aa90       ?SaveItem@Preferences@@IAEXPAU_iobuf@@PAVPreferencesItem@@@Z 0041ba90 f   preferences.obj
 0001:0001ab00       ?Save@Preferences@@QAEXXZ  0041bb00 f   preferences.obj
 0001:0001ad50       ?GetFloat@Preferences@@QAEMPADM@Z 0041bd50 f   preferences.obj
 0001:0001ad90       ?GetInt@Preferences@@QAEHPADH@Z 0041bd90 f   preferences.obj
 0001:0001adc0       ?GetString@Preferences@@QAEPADPAD0@Z 0041bdc0 f   preferences.obj
 0001:0001adf0       ?SetString@Preferences@@QAEXPAD0@Z 0041bdf0 f   preferences.obj
 0001:0001aeb0       ?SetFloat@Preferences@@QAEXPADM@Z 0041beb0 f   preferences.obj
 0001:0001af70       ?SetInt@Preferences@@QAEXPADH@Z 0041bf70 f   preferences.obj
 0001:0001b020       ?AddLine@Preferences@@QAEXPAD@Z 0041c020 f   preferences.obj
 0001:0001b1a0       ?DoesKeyExist@Preferences@@QAE_NPAD@Z 0041c1a0 f   preferences.obj
 0001:0001b1c0       ??0?$HashTable@PAVPreferencesItem@@@@QAE@XZ 0041c1c0 f i preferences.obj
 0001:0001b240       ??1?$HashTable@PAVPreferencesItem@@@@QAE@XZ 0041c240 f i preferences.obj
 0001:0001b260       ?GetIndex@?$HashTable@PAVPreferencesItem@@@@QBEHPBD@Z 0041c260 f i preferences.obj
 0001:0001b2c0       ?PutData@?$HashTable@PAVPreferencesItem@@@@QAEHPBDABQAVPreferencesItem@@@Z 0041c2c0 f i preferences.obj
 0001:0001b330       ?GetData@?$HashTable@PAVPreferencesItem@@@@QBEPAVPreferencesItem@@I@Z 0041c330 f i preferences.obj
 0001:0001b340       ?EmptyAndDelete@?$HashTable@PAVPreferencesItem@@@@QAEXXZ 0041c340 f i preferences.obj
 0001:0001b380       ?ValidIndex@?$HashTable@PAVPreferencesItem@@@@QBE_NI@Z 0041c380 f i preferences.obj
 0001:0001b390       ?Size@?$HashTable@PAVPreferencesItem@@@@QBEIXZ 0041c390 f i preferences.obj
 0001:0001b3a0       ??A?$HashTable@PAVPreferencesItem@@@@QBEPAVPreferencesItem@@I@Z 0041c3a0 f i preferences.obj
 0001:0001b3b0       ??A?$DArray@PAD@@QAEAAPADH@Z 0041c3b0 f i preferences.obj
 0001:0001b400       ??0?$FastDArray@PAD@@QAE@XZ 0041c400 f i preferences.obj
 0001:0001b420       ?PutData@?$FastDArray@PAD@@QAEHABQAD@Z 0041c420 f i preferences.obj
 0001:0001b490       ?RemoveData@?$FastDArray@PAD@@QAEXH@Z 0041c490 f i preferences.obj
 0001:0001b4f0       ?EmptyAndDelete@?$FastDArray@PAD@@QAEXXZ 0041c4f0 f i preferences.obj
 0001:0001b520       ??_GPreferencesItem@@QAEPAXI@Z 0041c520 f i preferences.obj
 0001:0001b540       ?HashFunc@?$HashTable@PAVPreferencesItem@@@@IBEIPBD@Z 0041c540 f i preferences.obj
 0001:0001b5c0       ?Grow@?$HashTable@PAVPreferencesItem@@@@IAEXXZ 0041c5c0 f i preferences.obj
 0001:0001b6c0       ?GetInsertPos@?$HashTable@PAVPreferencesItem@@@@IBEIPBD@Z 0041c6c0 f i preferences.obj
 0001:0001b730       ?Empty@?$HashTable@PAVPreferencesItem@@@@QAEXXZ 0041c730 f i preferences.obj
 0001:0001b780       ?Grow@?$FastDArray@PAD@@IAEXXZ 0041c780 f i preferences.obj
 0001:0001b7b0       ?DumpKeys@?$HashTable@PAVPreferencesItem@@@@QBEXXZ 0041c7b0 f i preferences.obj
 0001:0001b810       ?SetSize@?$FastDArray@PAD@@QAEXH@Z 0041c810 f i preferences.obj
 0001:0001b9f0       ?RebuildFreeList@?$FastDArray@PAD@@IAEXXZ 0041c9f0 f i preferences.obj
 0001:0001ba80       ?RebuildNumUsed@?$FastDArray@PAD@@IAEXXZ 0041ca80 f i preferences.obj
 0001:0001baa0       ??0ProfiledElement@@QAE@PBDPAV0@@Z 0041caa0 f   profiler.obj
 0001:0001bb00       ??1ProfiledElement@@QAE@XZ 0041cb00 f   profiler.obj
 0001:0001bb10       ?Start@ProfiledElement@@QAEXXZ 0041cb10 f   profiler.obj
 0001:0001bb30       ?End@ProfiledElement@@QAEXXZ 0041cb30 f   profiler.obj
 0001:0001bb70       ?Advance@ProfiledElement@@QAEXXZ 0041cb70 f   profiler.obj
 0001:0001bc10       ?ResetHistory@ProfiledElement@@QAEXXZ 0041cc10 f   profiler.obj
 0001:0001bc70       ?GetMaxChildTime@ProfiledElement@@QAENXZ 0041cc70 f   profiler.obj
 0001:0001bcf0       ??0Profiler@@QAE@XZ        0041ccf0 f   profiler.obj
 0001:0001bda0       ??1Profiler@@QAE@XZ        0041cda0 f   profiler.obj
 0001:0001bdb0       ?Start@Profiler@@SAXXZ     0041cdb0 f   profiler.obj
 0001:0001be30       ?Stop@Profiler@@SAXXZ      0041ce30 f   profiler.obj
 0001:0001be60       ?Advance@Profiler@@QAEXXZ  0041ce60 f   profiler.obj
 0001:0001bf00       ?RenderStarted@Profiler@@QAEXXZ 0041cf00 f   profiler.obj
 0001:0001bf10       ?RenderEnded@Profiler@@QAEXXZ 0041cf10 f   profiler.obj
 0001:0001bf20       ?ResetHistory@Profiler@@QAEXXZ 0041cf20 f   profiler.obj
 0001:0001bf30       ?StartProfile@Profiler@@QAEXPBD@Z 0041cf30 f   profiler.obj
 0001:0001c010       ?EndProfile@Profiler@@QAEXPBD@Z 0041d010 f   profiler.obj
 0001:0001c060       ?PutDataAtStart@?$LList@H@@QAEXABH@Z 0041d060 f i profiler.obj
 0001:0001c0d0       ?RemoveData@?$LList@H@@QAEXH@Z 0041d0d0 f i profiler.obj
 0001:0001c180       ?GetData@?$HashTable@PAVProfiledElement@@@@QBEPAVProfiledElement@@PBDABQAV2@@Z 0041d180 f i profiler.obj
 0001:0001c1b0       ?ValidIndex@?$HashTable@PAVProfiledElement@@@@QBE_NI@Z 0041d1b0 f i profiler.obj
 0001:0001c1c0       ?Size@?$HashTable@PAVProfiledElement@@@@QBEIXZ 0041d1c0 f i profiler.obj
 0001:0001c1d0       ??A?$HashTable@PAVProfiledElement@@@@QBEPAVProfiledElement@@I@Z 0041d1d0 f i profiler.obj
 0001:0001c1e0       ??0?$SortingHashTable@PAVProfiledElement@@@@QAE@XZ 0041d1e0 f i profiler.obj
 0001:0001c260       ??1?$SortingHashTable@PAVProfiledElement@@@@QAE@XZ 0041d260 f i profiler.obj
 0001:0001c280       ?PutData@?$SortingHashTable@PAVProfiledElement@@@@QAEHPBDABQAVProfiledElement@@@Z 0041d280 f i profiler.obj
 0001:0001c310       ?StartOrderedWalk@?$SortingHashTable@PAVProfiledElement@@@@QAEFXZ 0041d310 f i profiler.obj
 0001:0001c330       ?GetNextOrderedIndex@?$SortingHashTable@PAVProfiledElement@@@@QAEFXZ 0041d330 f i profiler.obj
 0001:0001c350       ?GetInsertPos@?$HashTable@PAVProfiledElement@@@@IBEIPBD@Z 0041d350 f i profiler.obj
 0001:0001c3c0       ??0?$HashTable@PAVProfiledElement@@@@QAE@XZ 0041d3c0 f i profiler.obj
 0001:0001c440       ??1?$HashTable@PAVProfiledElement@@@@QAE@XZ 0041d440 f i profiler.obj
 0001:0001c460       ?GetIndex@?$HashTable@PAVProfiledElement@@@@QBEHPBD@Z 0041d460 f i profiler.obj
 0001:0001c4c0       ?Grow@?$SortingHashTable@PAVProfiledElement@@@@IAEXXZ 0041d4c0 f i profiler.obj
 0001:0001c630       ?FindPrevKey@?$SortingHashTable@PAVProfiledElement@@@@IBEFPBD@Z 0041d630 f i profiler.obj
 0001:0001c680       ?HashFunc@?$HashTable@PAVProfiledElement@@@@IBEIPBD@Z 0041d680 f i profiler.obj
 0001:0001c700       ?Empty@?$HashTable@PAVProfiledElement@@@@QAEXXZ 0041d700 f i profiler.obj
 0001:0001c750       ?DumpKeys@?$HashTable@PAVProfiledElement@@@@QBEXXZ 0041d750 f i profiler.obj
 0001:0001c7b0       ?newStr@@YAPADPBD@Z        0041d7b0 f   string_utils.obj
 0001:0001c7f0       ?StringReplace@@YAXPBD0PAD@Z 0041d7f0 f   string_utils.obj
 0001:0001c940       ?SafetyString@@YAXPAD@Z    0041d940 f   string_utils.obj
 0001:0001c970       ?ReplaceExtendedCharacters@@YAXPAD@Z 0041d970 f   string_utils.obj
 0001:0001c9a0       ?StripExtendedCharacters@@YAXPAD@Z 0041d9a0 f   string_utils.obj
 0001:0001c9c0       ?StripTrailingWhitespace@@YAXPAD@Z 0041d9c0 f   string_utils.obj
 0001:0001c9f0       ?ReadBMPFileHeader@Bitmap@@AAEXPAVBinaryReader@@PAVBitmapFileHeader@@@Z 0041d9f0 f   bitmap.obj
 0001:0001ca50       ?ReadWinBMPInfoHeader@Bitmap@@AAEXPAVBinaryReader@@PAVBitmapInfoHeader@@@Z 0041da50 f   bitmap.obj
 0001:0001cae0       ?ReadOS2BMPInfoHeader@Bitmap@@AAEXPAVBinaryReader@@PAVBitmapInfoHeader@@@Z 0041dae0 f   bitmap.obj
 0001:0001cb30       ?ReadBMPPalette@Bitmap@@AAEXHQAVColour@@PAVBinaryReader@@H@Z 0041db30 f   bitmap.obj
 0001:0001cb90       ?Read4BitLine@Bitmap@@AAEXHPAVBinaryReader@@PAVColour@@H@Z 0041db90 f   bitmap.obj
 0001:0001cbf0       ?Read8BitLine@Bitmap@@AAEXHPAVBinaryReader@@PAVColour@@H@Z 0041dbf0 f   bitmap.obj
 0001:0001cc30       ?Read24BitLine@Bitmap@@AAEXHPAVBinaryReader@@H@Z 0041dc30 f   bitmap.obj
 0001:0001ccb0       ?LoadBmp@Bitmap@@AAEXPAVBinaryReader@@@Z 0041dcb0 f   bitmap.obj
 0001:0001cea0       ??_H@YGXPAXIHP6EPAX0@Z@Z   0041dea0 f i bitmap.obj
 0001:0001cf40       ?WriteBMPFileHeader@Bitmap@@AAEXPAU_iobuf@@@Z 0041df40 f   bitmap.obj
 0001:0001cf80       ?WriteWinBMPInfoHeader@Bitmap@@AAEXPAU_iobuf@@@Z 0041df80 f   bitmap.obj
 0001:0001cff0       ?Write24BitLine@Bitmap@@AAEXPAU_iobuf@@H@Z 0041dff0 f   bitmap.obj
 0001:0001d070       ?SaveBmp@Bitmap@@QAEXPAD@Z 0041e070 f   bitmap.obj
 0001:0001d100       ??0Bitmap@@QAE@XZ          0041e100 f   bitmap.obj
 0001:0001d120       ??0Bitmap@@QAE@AAV0@@Z     0041e120 f   bitmap.obj
 0001:0001d150       ??0Bitmap@@QAE@HH@Z        0041e150 f   bitmap.obj
 0001:0001d180       ??0Bitmap@@QAE@PAVBinaryReader@@PAD@Z 0041e180 f   bitmap.obj
 0001:0001d1b0       ??1Bitmap@@QAE@XZ          0041e1b0 f   bitmap.obj
 0001:0001d1e0       ?Initialise@Bitmap@@QAEXHH@Z 0041e1e0 f   bitmap.obj
 0001:0001d2b0       ?Initialise@Bitmap@@QAEXPAVBinaryReader@@PAD@Z 0041e2b0 f   bitmap.obj
 0001:0001d2f0       ?PutPixel@Bitmap@@QAEXHHABVColour@@@Z 0041e2f0 f   bitmap.obj
 0001:0001d310       ?GetPixel@Bitmap@@QAEAAVColour@@HH@Z 0041e310 f   bitmap.obj
 0001:0001d330       ?PutPixelClipped@Bitmap@@QAEXHHABVColour@@@Z 0041e330 f   bitmap.obj
 0001:0001d360       ?GetPixelClipped@Bitmap@@QAEAAVColour@@HH@Z 0041e360 f   bitmap.obj
 0001:0001d3b0       ?DrawLine@Bitmap@@QAEXHHHHABVColour@@@Z 0041e3b0 f   bitmap.obj
 0001:0001d470       ?GetInterpolatedPixel@Bitmap@@QAE?AVColour@@MM@Z 0041e470 f   bitmap.obj
 0001:0001d6f0       ?Blit@Bitmap@@QAEXHHHHPAV1@HHHH_N@Z 0041e6f0 f   bitmap.obj
 0001:0001d890       ?ApplyDilateFilter@Bitmap@@QAEXXZ 0041e890 f   bitmap.obj
 0001:0001dc20       ?ApplyBlurFilter@Bitmap@@QAEXM@Z 0041ec20 f   bitmap.obj
 0001:0001e000       ?ConvertColourToAlpha@Bitmap@@QAEXXZ 0041f000 f   bitmap.obj
 0001:0001e080       ?ConvertPinkToTransparent@Bitmap@@QAEXXZ 0041f080 f   bitmap.obj
 0001:0001e110       ?Clear@Bitmap@@QAEXABVColour@@@Z 0041f110 f   bitmap.obj
 0001:0001e160       ?ConvertToTexture@Bitmap@@QAEH_N@Z 0041f160 f   bitmap.obj
 0001:0001e230       _ceilf                     0041f230 f i bitmap.obj
 0001:0001e260       _floorf                    0041f260 f i bitmap.obj
 0001:0001e280       ??0BitmapFont@@QAE@PAD@Z   0041f280 f   bitmapfont.obj
 0001:0001e530       ?GetTexCoordX@BitmapFont@@IAEME@Z 0041f530 f   bitmapfont.obj
 0001:0001e570       ?GetTexCoordY@BitmapFont@@IAEME@Z 0041f570 f   bitmapfont.obj
 0001:0001e5b0       ?GetTexWidth@BitmapFont@@IAEME@Z 0041f5b0 f   bitmapfont.obj
 0001:0001e5e0       ?SetHoriztonalFlip@BitmapFont@@IAEX_N@Z 0041f5e0 f   bitmapfont.obj
 0001:0001e5f0       ?SetFixedWidth@BitmapFont@@IAEX_N@Z 0041f5f0 f   bitmapfont.obj
 0001:0001e600       ?SetSpacing@BitmapFont@@IAEXM@Z 0041f600 f   bitmapfont.obj
 0001:0001e610       ?GetSpacing@BitmapFont@@IAEMXZ 0041f610 f   bitmapfont.obj
 0001:0001e620       ?DrawText2DSimple@BitmapFont@@QAEXMMMPBD@Z 0041f620 f   bitmapfont.obj
 0001:0001e810       ?DrawText2D@BitmapFont@@QAAXMMMPBDZZ 0041f810 f   bitmapfont.obj
 0001:0001e870       ?DrawText2DRight@BitmapFont@@QAAXMMMPBDZZ 0041f870 f   bitmapfont.obj
 0001:0001e8f0       ?DrawText2DCentre@BitmapFont@@QAAXMMMPBDZZ 0041f8f0 f   bitmapfont.obj
 0001:0001e980       ?GetTextWidth@BitmapFont@@QAEMPBDM@Z 0041f980 f   bitmapfont.obj
 0001:0001e9b0       ?GetTextWidth@BitmapFont@@QAEMPBDIM@Z 0041f9b0 f   bitmapfont.obj
 0001:0001ea30       _fabsf                     0041fa30 f i bitmapfont.obj
 0001:0001ea50       ?fabs@@YAMM@Z              0041fa50 f i bitmapfont.obj
 0001:0001ea70       ??0Image@@QAE@PAD@Z        0041fa70 f   image.obj
 0001:0001ec80       ??0Image@@QAE@PAVBitmap@@@Z 0041fc80 f   image.obj
 0001:0001ec90       ??1Image@@QAE@XZ           0041fc90 f   image.obj
 0001:0001ecb0       ?Width@Image@@QAEHXZ       0041fcb0 f   image.obj
 0001:0001ecc0       ?Height@Image@@QAEHXZ      0041fcc0 f   image.obj
 0001:0001ecd0       ?MakeTexture@Image@@QAEX_N0@Z 0041fcd0 f   image.obj
 0001:0001ed00       ?GetColour@Image@@QAE?AVColour@@HH@Z 0041fd00 f   image.obj
 0001:0001ed20       ??0Resource@@QAE@XZ        0041fd20 f   resource.obj
 0001:0001ed50       ?Restart@Resource@@QAEXXZ  0041fd50 f   resource.obj
 0001:0001ed60       ?Shutdown@Resource@@QAEXXZ 0041fd60 f   resource.obj
 0001:0001eed0       ??_GImage@@QAEPAXI@Z       0041fed0 f i resource.obj
 0001:0001eef0       ??_G?$DArray@PAVImage@@@@QAEPAXI@Z 0041fef0 f i resource.obj
 0001:0001ef10       ??_G?$DArray@PAVBitmapFont@@@@QAEPAXI@Z 0041ff10 f i resource.obj
 0001:0001ef30       ??_G?$DArray@I@@QAEPAXI@Z  0041ff30 f i resource.obj
 0001:0001ef50       ?GetImage@Resource@@QAEPAVImage@@PBD@Z 0041ff50 f   resource.obj
 0001:0001f040       ?GetBitmapFont@Resource@@QAEPAVBitmapFont@@PBD@Z 00420040 f   resource.obj
 0001:0001f130       ?TestBitmapFont@Resource@@QAE_NPBD@Z 00420130 f   resource.obj
 0001:0001f200       ?GetDisplayList@Resource@@QAE_NPBDAAI@Z 00420200 f   resource.obj
 0001:0001f240       ?DeleteDisplayList@Resource@@QAEXPBD@Z 00420240 f   resource.obj
 0001:0001f270       ??0?$BTree@PAVImage@@@@QAE@XZ 00420270 f i resource.obj
 0001:0001f280       ?PutData@?$BTree@PAVImage@@@@QAEXPBDABQAVImage@@@Z 00420280 f i resource.obj
 0001:0001f3d0       ?GetData@?$BTree@PAVImage@@@@QAEPAVImage@@PBD@Z 004203d0 f i resource.obj
 0001:0001f3e0       ?ConvertToDArray@?$BTree@PAVImage@@@@QAEPAV?$DArray@PAVImage@@@@XZ 004203e0 f i resource.obj
 0001:0001f420       ??0?$BTree@PAVBitmapFont@@@@QAE@XZ 00420420 f i resource.obj
 0001:0001f430       ?PutData@?$BTree@PAVBitmapFont@@@@QAEXPBDABQAVBitmapFont@@@Z 00420430 f i resource.obj
 0001:0001f580       ?GetData@?$BTree@PAVBitmapFont@@@@QAEPAVBitmapFont@@PBD@Z 00420580 f i resource.obj
 0001:0001f590       ?ConvertToDArray@?$BTree@PAVBitmapFont@@@@QAEPAV?$DArray@PAVBitmapFont@@@@XZ 00420590 f i resource.obj
 0001:0001f5d0       ??0?$BTree@_N@@QAE@XZ      004205d0 f i resource.obj
 0001:0001f5e0       ?PutData@?$BTree@_N@@QAEXPBDAB_N@Z 004205e0 f i resource.obj
 0001:0001f730       ?GetData@?$BTree@_N@@QAE_NPBD@Z 00420730 f i resource.obj
 0001:0001f740       ??0?$BTree@I@@QAE@XZ       00420740 f i resource.obj
 0001:0001f750       ?PutData@?$BTree@I@@QAEXPBDABI@Z 00420750 f i resource.obj
 0001:0001f8a0       ?RemoveData@?$BTree@I@@QAEXPBD@Z 004208a0 f i resource.obj
 0001:0001fa00       ?LookupTree@?$BTree@I@@QAEPAV1@PBD@Z 00420a00 f i resource.obj
 0001:0001fa50       ?ConvertToDArray@?$BTree@I@@QAEPAV?$DArray@I@@XZ 00420a50 f i resource.obj
 0001:0001fa90       ??1?$DArray@PAVImage@@@@QAE@XZ 00420a90 f i resource.obj
 0001:0001faa0       ?GetData@?$DArray@PAVImage@@@@QBEPAVImage@@H@Z 00420aa0 f i resource.obj
 0001:0001faf0       ?Size@?$DArray@PAVImage@@@@QBEHXZ 00420af0 f i resource.obj
 0001:0001fb00       ??1?$DArray@PAVBitmapFont@@@@QAE@XZ 00420b00 f i resource.obj
 0001:0001fb10       ?GetData@?$DArray@PAVBitmapFont@@@@QBEPAVBitmapFont@@H@Z 00420b10 f i resource.obj
 0001:0001fb60       ?Size@?$DArray@PAVBitmapFont@@@@QBEHXZ 00420b60 f i resource.obj
 0001:0001fb70       ??1?$DArray@I@@QAE@XZ      00420b70 f i resource.obj
 0001:0001fb80       ?GetData@?$DArray@I@@QBEIH@Z 00420b80 f i resource.obj
 0001:0001fbd0       ?Size@?$DArray@I@@QBEHXZ   00420bd0 f i resource.obj
 0001:0001fbe0       ?RecursiveConvertToDArray@?$BTree@PAVImage@@@@IAEXPAV?$DArray@PAVImage@@@@PAV1@@Z 00420be0 f i resource.obj
 0001:0001fc40       ??0?$BTree@PAVImage@@@@QAE@PBDABQAVImage@@@Z 00420c40 f i resource.obj
 0001:0001fc90       ?LookupTree@?$BTree@PAVImage@@@@QAEPAV1@PBD@Z 00420c90 f i resource.obj
 0001:0001fce0       ??0?$DArray@PAVImage@@@@QAE@XZ 00420ce0 f i resource.obj
 0001:0001fd00       ?Empty@?$DArray@PAVImage@@@@QAEXXZ 00420d00 f i resource.obj
 0001:0001fd30       ?RecursiveConvertToDArray@?$BTree@PAVBitmapFont@@@@IAEXPAV?$DArray@PAVBitmapFont@@@@PAV1@@Z 00420d30 f i resource.obj
 0001:0001fd90       ??0?$BTree@PAVBitmapFont@@@@QAE@PBDABQAVBitmapFont@@@Z 00420d90 f i resource.obj
 0001:0001fde0       ?LookupTree@?$BTree@PAVBitmapFont@@@@QAEPAV1@PBD@Z 00420de0 f i resource.obj
 0001:0001fe30       ??0?$DArray@PAVBitmapFont@@@@QAE@XZ 00420e30 f i resource.obj
 0001:0001fe50       ?Empty@?$DArray@PAVBitmapFont@@@@QAEXXZ 00420e50 f i resource.obj
 0001:0001fe80       ??0?$BTree@_N@@QAE@PBDAB_N@Z 00420e80 f i resource.obj
 0001:0001fed0       ?LookupTree@?$BTree@_N@@QAEPAV1@PBD@Z 00420ed0 f i resource.obj
 0001:0001ff20       ?RecursiveConvertToDArray@?$BTree@I@@IAEXPAV?$DArray@I@@PAV1@@Z 00420f20 f i resource.obj
 0001:0001ff80       ?AppendRight@?$BTree@I@@IAEXPAV1@@Z 00420f80 f i resource.obj
 0001:0001ffa0       ??0?$BTree@I@@QAE@PBDABI@Z 00420fa0 f i resource.obj
 0001:0001fff0       ?Left@?$BTree@I@@QBEPAV1@XZ 00420ff0 f i resource.obj
 0001:00020000       ?Right@?$BTree@I@@QBEPAV1@XZ 00421000 f i resource.obj
 0001:00020010       ??0?$DArray@I@@QAE@XZ      00421010 f i resource.obj
 0001:00020030       ?Empty@?$DArray@I@@QAEXXZ  00421030 f i resource.obj
 0001:00020060       ?Left@?$BTree@PAVImage@@@@QBEPAV1@XZ 00421060 f i resource.obj
 0001:00020070       ?Right@?$BTree@PAVImage@@@@QBEPAV1@XZ 00421070 f i resource.obj
 0001:00020080       ?PutData@?$DArray@PAVImage@@@@QAEHABQAVImage@@@Z 00421080 f i resource.obj
 0001:000200d0       ?Left@?$BTree@PAVBitmapFont@@@@QBEPAV1@XZ 004210d0 f i resource.obj
 0001:000200e0       ?Right@?$BTree@PAVBitmapFont@@@@QBEPAV1@XZ 004210e0 f i resource.obj
 0001:000200f0       ?PutData@?$DArray@PAVBitmapFont@@@@QAEHABQAVBitmapFont@@@Z 004210f0 f i resource.obj
 0001:00020140       ?PutData@?$DArray@I@@QAEHABI@Z 00421140 f i resource.obj
 0001:00020190       ?Grow@?$DArray@PAVImage@@@@IAEXXZ 00421190 f i resource.obj
 0001:000201c0       ?Grow@?$DArray@PAVBitmapFont@@@@IAEXXZ 004211c0 f i resource.obj
 0001:000201f0       ?Grow@?$DArray@I@@IAEXXZ   004211f0 f i resource.obj
 0001:00020220       ?SetSize@?$DArray@PAVImage@@@@QAEXH@Z 00421220 f i resource.obj
 0001:00020320       ?SetSize@?$DArray@PAVBitmapFont@@@@QAEXH@Z 00421320 f i resource.obj
 0001:00020420       ?SetSize@?$DArray@I@@QAEXH@Z 00421420 f i resource.obj
 0001:00020520       ??0Colour@@QAE@XZ          00421520 f   colour.obj
 0001:00020540       ??0Colour@@QAE@EEEE@Z      00421540 f   colour.obj
 0001:00020560       ??0Colour@@QAE@H@Z         00421560 f   colour.obj
 0001:00020570       ?Set@Colour@@QAEXEEEE@Z    00421570 f   colour.obj
 0001:00020590       ?Set@Colour@@QAEXH@Z       00421590 f   colour.obj
 0001:000205b0       ??HColour@@QBE?AV0@ABV0@@Z 004215b0 f   colour.obj
 0001:000205e0       ??GColour@@QBE?AV0@ABV0@@Z 004215e0 f   colour.obj
 0001:00020610       ??DColour@@QBE?AV0@M@Z     00421610 f   colour.obj
 0001:000206d0       ??KColour@@QBE?AV0@M@Z     004216d0 f   colour.obj
 0001:000207a0       ??4Colour@@QAEABV0@ABV0@@Z 004217a0 f   colour.obj
 0001:000207c0       ??XColour@@QAEABV0@M@Z     004217c0 f   colour.obj
 0001:00020880       ??_0Colour@@QAEABV0@M@Z    00421880 f   colour.obj
 0001:00020950       ??YColour@@QAEABV0@ABV0@@Z 00421950 f   colour.obj
 0001:00020970       ??ZColour@@QAEABV0@ABV0@@Z 00421970 f   colour.obj
 0001:00020990       ??8Colour@@QBE_NABV0@@Z    00421990 f   colour.obj
 0001:000209c0       ??9Colour@@QBE_NABV0@@Z    004219c0 f   colour.obj
 0001:000209f0       ?GetData@Colour@@QBEPBEXZ  004219f0 f   colour.obj
 0001:00020a00       ?GetHexValue@Colour@@QAEXPAD@Z 00421a00 f   colour.obj
 0001:00020a30       ?LoadFromHex@Colour@@QAEXPAD@Z 00421a30 f   colour.obj
 0001:00020b70       ?AddWithClamp@Colour@@QAEXABV1@@Z 00421b70 f   colour.obj
 0001:00020c80       ?MultiplyWithClamp@Colour@@QAEXM@Z 00421c80 f   colour.obj
 0001:00020e20       ??0Renderer@@QAE@XZ        00421e20 f   renderer.obj
 0001:00020e50       ??_GRenderer@@UAEPAXI@Z    00421e50 f i renderer.obj
 0001:00020e50       ??_ERenderer@@UAEPAXI@Z    00421e50 f i  CIL library: CIL module
 0001:00020e80       ??1Renderer@@UAE@XZ        00421e80 f   renderer.obj
 0001:00020ee0       ?Set2DViewport@Renderer@@QAEXMMMMHHHH@Z 00421ee0 f   renderer.obj
 0001:00020f70       ?BeginScene@Renderer@@QAEXXZ 00421f70 f   renderer.obj
 0001:00021010       ?ClearScreen@Renderer@@QAEX_N0@Z 00422010 f   renderer.obj
 0001:00021020       ?Reset2DViewport@Renderer@@QAEXXZ 00422020 f   renderer.obj
 0001:00021070       ?Shutdown@Renderer@@QAEXXZ 00422070 f   renderer.obj
 0001:00021080       ?SetBlendMode@Renderer@@QAEXH@Z 00422080 f   renderer.obj
 0001:000210e0       ?SetDepthBuffer@Renderer@@QAEX_N0@Z 004220e0 f   renderer.obj
 0001:00021120       ?SetDefaultFont@Renderer@@QAEXPBD0@Z 00422120 f   renderer.obj
 0001:000211b0       ?SetFontSpacing@Renderer@@QAEXPBDM@Z 004221b0 f   renderer.obj
 0001:000211f0       ?GetFontSpacing@Renderer@@QAEMPBD@Z 004221f0 f   renderer.obj
 0001:00021210       ?SetFont@Renderer@@QAEXPBD_N110@Z 00422210 f   renderer.obj
 0001:000212d0       ?SetFont@Renderer@@QAEXPBD0@Z 004222d0 f   renderer.obj
 0001:000212f0       ?IsFontLanguageSpecific@Renderer@@QAE_NXZ 004222f0 f   renderer.obj
 0001:00021320       ?GetBitmapFont@Renderer@@QAEPAVBitmapFont@@XZ 00422320 f   renderer.obj
 0001:00021380       ?Text@Renderer@@QAAXMMABVColour@@MPBDZZ 00422380 f   renderer.obj
 0001:000213e0       ?TextCentre@Renderer@@QAAXMMABVColour@@MPBDZZ 004223e0 f   renderer.obj
 0001:00021470       ?TextRight@Renderer@@QAAXMMABVColour@@MPBDZZ 00422470 f   renderer.obj
 0001:00021500       ?TextCentreSimple@Renderer@@QAEXMMABVColour@@MPBD@Z 00422500 f   renderer.obj
 0001:00021560       ?TextRightSimple@Renderer@@QAEXMMABVColour@@MPBD@Z 00422560 f   renderer.obj
 0001:000215b0       ?TextSimple@Renderer@@QAEXMMABVColour@@MPBD@Z 004225b0 f   renderer.obj
 0001:000216b0       ?TextWidth@Renderer@@QAEMPBDM@Z 004226b0 f   renderer.obj
 0001:00021720       ?TextWidth@Renderer@@QAEMPBDIMPAVBitmapFont@@@Z 00422720 f   renderer.obj
 0001:00021750       ?Rect@Renderer@@QAEXMMMMABVColour@@M@Z 00422750 f   renderer.obj
 0001:000217f0       ?RectFill@Renderer@@QAEXMMMMABVColour@@@Z 004227f0 f   renderer.obj
 0001:00021830       ?RectFill@Renderer@@QAEXMMMMABVColour@@0_N@Z 00422830 f   renderer.obj
 0001:00021880       ?RectFill@Renderer@@QAEXMMMMABVColour@@000@Z 00422880 f   renderer.obj
 0001:00021970       ?Line@Renderer@@QAEXMMMMABVColour@@M@Z 00422970 f   renderer.obj
 0001:000219e0       ?Circle@Renderer@@QAEXMMMHABVColour@@M@Z 004229e0 f   renderer.obj
 0001:00021ab0       ?CircleFill@Renderer@@QAEXMMMHABVColour@@@Z 00422ab0 f   renderer.obj
 0001:00021ba0       ?BeginLines@Renderer@@QAEXABVColour@@M@Z 00422ba0 f   renderer.obj
 0001:00021be0       ?Line@Renderer@@QAEXMM@Z   00422be0 f   renderer.obj
 0001:00021c00       ?EndLines@Renderer@@QAEXXZ 00422c00 f   renderer.obj
 0001:00021c10       ?SetClip@Renderer@@QAEXHHHH@Z 00422c10 f   renderer.obj
 0001:00021c40       ?ResetClip@Renderer@@QAEXXZ 00422c40 f   renderer.obj
 0001:00021c50       ?Blit@Renderer@@QAEXPAVImage@@MMMMABVColour@@@Z 00422c50 f   renderer.obj
 0001:00021dd0       ?Blit@Renderer@@QAEXPAVImage@@MMABVColour@@@Z 00422dd0 f   renderer.obj
 0001:00021e20       ?Blit@Renderer@@QAEXPAVImage@@MMMMABVColour@@M@Z 00422e20 f   renderer.obj
 0001:00022090       ?SaveScreenshot@Renderer@@QAEXXZ 00423090 f   renderer.obj
 0001:00022320       ?ScreenshotsDirectory@Renderer@@IAEPADXZ 00423320 f   renderer.obj
 0001:00022330       ??Y?$Vector3@M@@QAEABV0@ABV0@@Z 00423330 f i renderer.obj
 0001:00022350       ?RotateAroundZ@?$Vector3@M@@QAEXM@Z 00423350 f i renderer.obj
 0001:00022380       ?FastRotateAround@?$Vector3@M@@QAEXABV1@M@Z 00423380 f i renderer.obj
 0001:000224f0       ??T?$Vector3@M@@QBE?AV0@ABV0@@Z 004234f0 f i renderer.obj
 0001:00022520       ??D?$Vector3@M@@QBEMABV0@@Z 00423520 f i renderer.obj
 0001:00022550       ??H?$Vector3@M@@QBE?AV0@ABV0@@Z 00423550 f i renderer.obj
 0001:00022570       ??D?$Vector3@M@@QBE?AV0@M@Z 00423570 f i renderer.obj
 0001:000225a0       ??0?$BTree@M@@QAE@XZ       004235a0 f i renderer.obj
 0001:000225b0       ??1?$BTree@M@@QAE@XZ       004235b0 f i renderer.obj
 0001:000225c0       ?PutData@?$BTree@M@@QAEXPBDABM@Z 004235c0 f i renderer.obj
 0001:00022710       ?LookupTree@?$BTree@M@@QAEPAV1@PBD@Z 00423710 f i renderer.obj
 0001:00022760       ??$?DM@@YA?AV?$Vector3@M@@MABV0@@Z 00423760 f i renderer.obj
 0001:00022780       ??0?$BTree@M@@QAE@PBDABM@Z 00423780 f i renderer.obj
 0001:000227d0       ?Empty@?$BTree@M@@QAEXXZ   004237d0 f i renderer.obj
 0001:00022820       ??_G?$BTree@M@@QAEPAXI@Z   00423820 f i renderer.obj
 0001:00022840       ?cos@@YAMM@Z               00423840 f i renderer.obj
 0001:00022860       ?sin@@YAMM@Z               00423860 f i renderer.obj
 0001:00022880       ??0StyleTable@@QAE@XZ      00423880 f   styletable.obj
 0001:000228a0       ?Clear@StyleTable@@QAEXXZ  004238a0 f   styletable.obj
 0001:000228b0       ?Load@StyleTable@@QAE_NPAD@Z 004238b0 f   styletable.obj
 0001:00022bb0       ?Save@StyleTable@@QAE_NPAD@Z 00423bb0 f   styletable.obj
 0001:00022d80       ?AddStyle@StyleTable@@QAEXPAVStyle@@@Z 00423d80 f   styletable.obj
 0001:00022dc0       ?GetStyle@StyleTable@@QAEPAVStyle@@PAD@Z 00423dc0 f   styletable.obj
 0001:00022e30       ?GetPrimaryColour@StyleTable@@QAE?AVColour@@PAD@Z 00423e30 f   styletable.obj
 0001:00022ec0       ?GetSecondaryColour@StyleTable@@QAE?AVColour@@PAD@Z 00423ec0 f   styletable.obj
 0001:00022f50       ??0Style@@QAE@PAD@Z        00423f50 f   styletable.obj
 0001:00022fd0       ??0?$LList@PAVStyle@@@@QAE@XZ 00423fd0 f i styletable.obj
 0001:00022ff0       ??1?$LList@PAVStyle@@@@QAE@XZ 00423ff0 f i styletable.obj
 0001:00023000       ?PutData@?$LList@PAVStyle@@@@QAEXABQAVStyle@@@Z 00424000 f i styletable.obj
 0001:00023010       ?Size@?$LList@PAVStyle@@@@QBEHXZ 00424010 f i styletable.obj
 0001:00023020       ?EmptyAndDelete@?$LList@PAVStyle@@@@QAEXXZ 00424020 f i styletable.obj
 0001:00023060       ??A?$LList@PAVStyle@@@@QAEPAVStyle@@H@Z 00424060 f i styletable.obj
 0001:00023070       ?PutDataAtEnd@?$LList@PAVStyle@@@@QAEXABQAVStyle@@@Z 00424070 f i styletable.obj
 0001:000230d0       ?GetData@?$LList@PAVStyle@@@@QBEPAVStyle@@H@Z 004240d0 f i styletable.obj
 0001:000230e0       ?RemoveData@?$LList@PAVStyle@@@@QAEXH@Z 004240e0 f i styletable.obj
 0001:00023160       ?Empty@?$LList@PAVStyle@@@@QAEXXZ 00424160 f i styletable.obj
 0001:000231a0       ??_G?$LListItem@PAVStyle@@@@QAEPAXI@Z 004241a0 f i styletable.obj
 0001:000231b0       ?GetItem@?$LList@PAVStyle@@@@IBEPAV?$LListItem@PAVStyle@@@@H@Z 004241b0 f i styletable.obj
 0001:00023240       ??0?$LListItem@PAVStyle@@@@QAE@XZ 00424240 f i styletable.obj
 0001:00023250       ??1?$LListItem@PAVStyle@@@@QAE@XZ 00424250 f i styletable.obj
 0001:00023260       ?ValidIndex@?$LList@PAVStyle@@@@QBE_NH@Z 00424260 f i styletable.obj
 0001:00023280       ?strstr@@YAPADPADPBD@Z     00424280 f i styletable.obj
 0001:00023290       ??0EclButton@@QAE@XZ       00424290 f   eclbutton.obj
 0001:00023300       ??_EEclButton@@UAEPAXI@Z   00424300 f i  CIL library: CIL module
 0001:00023300       ??_GEclButton@@UAEPAXI@Z   00424300 f i eclbutton.obj
 0001:00023330       ??1EclButton@@UAE@XZ       00424330 f   eclbutton.obj
 0001:00023370       ?SetProperties@EclButton@@UAEXPADHHHH00_N1@Z 00424370 f   eclbutton.obj
 0001:00023440       ?SetCaption@EclButton@@UAEXPAD_N@Z 00424440 f   eclbutton.obj
 0001:000234a0       ?SetTooltip@EclButton@@UAEXPAD_N@Z 004244a0 f   eclbutton.obj
 0001:000234f0       ?SetParent@EclButton@@UAEXPAVEclWindow@@@Z 004244f0 f   eclbutton.obj
 0001:00023500       ?Render@EclButton@@UAEXHH_N0@Z 00424500 f   eclbutton.obj
 0001:00023510       ?MouseUp@EclButton@@UAEXXZ 00424510 f   eclbutton.obj
 0001:00023520       ?MouseDown@EclButton@@UAEXXZ 00424520 f   eclbutton.obj
 0001:00023530       ?MouseMove@EclButton@@UAEXXZ 00424530 f   eclbutton.obj
 0001:00023540       ?Keypress@EclButton@@UAEXH_N00E@Z 00424540 f   eclbutton.obj
 0001:00023550       ?EclInitialise@@YAXHH@Z    00424550 f   eclipse.obj
 0001:00023560       ?EclUpdateMouse@@YAXHH_N0@Z 00424560 f   eclipse.obj
 0001:00023a40       ?EclMouseStatus@@YAHXZ     00424a40 f   eclipse.obj
 0001:00023af0       ?EclUpdateKeyboard@@YAXH_N00E@Z 00424af0 f   eclipse.obj
 0001:00023b20       ?EclRegisterTooltipCallback@@YAXP6AXPAVEclWindow@@PAVEclButton@@M@Z@Z 00424b20 f   eclipse.obj
 0001:00023b30       ?EclRender@@YAXXZ          00424b30 f   eclipse.obj
 0001:00023c70       ?EclUpdate@@YAXXZ          00424c70 f   eclipse.obj
 0001:00023cb0       ?EclShutdown@@YAXXZ        00424cb0 f   eclipse.obj
 0001:00023cc0       ?EclGetCurrentButton@@YAPADXZ 00424cc0 f   eclipse.obj
 0001:00023cd0       ?EclGetCurrentClickedButton@@YAPADXZ 00424cd0 f   eclipse.obj
 0001:00023cf0       ?EclGenerateUniqueWindowName@@YAPADPAD@Z 00424cf0 f   eclipse.obj
 0001:00023d50       ?EclRegisterWindow@@YAXPAVEclWindow@@0@Z 00424d50 f   eclipse.obj
 0001:00023ee0       ?EclRemoveWindow@@YAXPAD@Z 00424ee0 f   eclipse.obj
 0001:00023fe0       ?EclRemoveAllWindows@@YAXXZ 00424fe0 f   eclipse.obj
 0001:000240a0       ?EclRemoveAllWindowsExclude@@YAXPAD@Z 004250a0 f   eclipse.obj
 0001:00024160       ?EclSetWindowPosition@@YAXPADHH@Z 00425160 f   eclipse.obj
 0001:00024190       ?EclSetWindowSize@@YAXPADHH@Z 00425190 f   eclipse.obj
 0001:000241e0       ?EclBringWindowToFront@@YAXPAD@Z 004251e0 f   eclipse.obj
 0001:00024240       ?EclMouseInWindow@@YA_NPAVEclWindow@@@Z 00425240 f   eclipse.obj
 0001:000242a0       ?EclMouseInButton@@YA_NPAVEclWindow@@PAVEclButton@@@Z 004252a0 f   eclipse.obj
 0001:00024340       ?EclGetWindowIndex@@YAHPAD@Z 00425340 f   eclipse.obj
 0001:000243b0       ?EclGetWindow@@YAPAVEclWindow@@PAD@Z 004253b0 f   eclipse.obj
 0001:000243d0       ?EclGetWindow@@YAPAVEclWindow@@HH@Z 004253d0 f   eclipse.obj
 0001:00024430       ?EclGetWindow@@YAPAVEclWindow@@XZ 00425430 f   eclipse.obj
 0001:00024450       ?EclMaximiseWindow@@YAXPAD@Z 00425450 f   eclipse.obj
 0001:000244f0       ?EclUnMaximise@@YAXXZ      004254f0 f   eclipse.obj
 0001:00024540       ?EclGetWindows@@YAPAV?$LList@PAVEclWindow@@@@XZ 00425540 f   eclipse.obj
 0001:00024550       ?EclGetCurrentFocus@@YAPADXZ 00425550 f   eclipse.obj
 0001:00024560       ?EclSetCurrentFocus@@YAXPAD@Z 00425560 f   eclipse.obj
 0001:00024590       ?EclGrabButton@@YAXXZ      00425590 f   eclipse.obj
 0001:000245a0       ?EclReleaseButton@@YAXXZ   004255a0 f   eclipse.obj
 0001:000245b0       ??0?$LList@PAVEclWindow@@@@QAE@XZ 004255b0 f i eclipse.obj
 0001:000245e0       ??1?$LList@PAVEclWindow@@@@QAE@XZ 004255e0 f i eclipse.obj
 0001:000245f0       ?PutDataAtStart@?$LList@PAVEclWindow@@@@QAEXABQAVEclWindow@@@Z 004255f0 f i eclipse.obj
 0001:00024680       ?GetData@?$LList@PAVEclWindow@@@@QBEPAVEclWindow@@H@Z 00425680 f i eclipse.obj
 0001:00024690       ?RemoveData@?$LList@PAVEclWindow@@@@QAEXH@Z 00425690 f i eclipse.obj
 0001:00024770       ?ValidIndex@?$LList@PAVEclWindow@@@@QBE_NH@Z 00425770 f i eclipse.obj
 0001:00024780       ?EmptyAndDelete@?$LList@PAVEclWindow@@@@QAEXXZ 00425780 f i eclipse.obj
 0001:000247d0       ??A?$LList@PAVEclWindow@@@@QAEPAVEclWindow@@H@Z 004257d0 f i eclipse.obj
 0001:000247f0       ??_G?$LListItem@PAVEclWindow@@@@QAEPAXI@Z 004257f0 f i eclipse.obj
 0001:00024800       ?GetItem@?$LList@PAVEclWindow@@@@IBEPAV?$LListItem@PAVEclWindow@@@@H@Z 00425800 f i eclipse.obj
 0001:00024890       ?Empty@?$LList@PAVEclWindow@@@@QAEXXZ 00425890 f i eclipse.obj
 0001:000248e0       ??0?$LListItem@PAVEclWindow@@@@QAE@XZ 004258e0 f i eclipse.obj
 0001:000248f0       ??1?$LListItem@PAVEclWindow@@@@QAE@XZ 004258f0 f i eclipse.obj
 0001:00024900       ??0EclWindow@@QAE@PAD0_N@Z 00425900 f   eclwindow.obj
 0001:000249b0       ??_GEclWindow@@UAEPAXI@Z   004259b0 f i eclwindow.obj
 0001:000249b0       ??_EEclWindow@@UAEPAXI@Z   004259b0 f i  CIL library: CIL module
 0001:000249e0       ??1EclWindow@@UAE@XZ       004259e0 f   eclwindow.obj
 0001:00024a80       ?SetName@EclWindow@@QAEXPAD@Z 00425a80 f   eclwindow.obj
 0001:00024ad0       ?SetTitle@EclWindow@@QAEXPAD_N@Z 00425ad0 f   eclwindow.obj
 0001:00024b20       ?SetPosition@EclWindow@@QAEXHH@Z 00425b20 f   eclwindow.obj
 0001:00024b30       ?SetSize@EclWindow@@QAEXHH@Z 00425b30 f   eclwindow.obj
 0001:00024b50       ?SetMovable@EclWindow@@QAEX_N@Z 00425b50 f   eclwindow.obj
 0001:00024b60       ?BeginTextEdit@EclWindow@@QAEXPAD@Z 00425b60 f   eclwindow.obj
 0001:00024b80       ?EndTextEdit@EclWindow@@QAEXXZ 00425b80 f   eclwindow.obj
 0001:00024ba0       ?RegisterButton@EclWindow@@QAEXPAVEclButton@@@Z 00425ba0 f   eclwindow.obj
 0001:00024bd0       ?RemoveButton@EclWindow@@QAEXPAD@Z 00425bd0 f   eclwindow.obj
 0001:00024c60       ?GetButton@EclWindow@@UAEPAVEclButton@@PAD@Z 00425c60 f   eclwindow.obj
 0001:00024cd0       ?GetButton@EclWindow@@UAEPAVEclButton@@HH@Z 00425cd0 f   eclwindow.obj
 0001:00024d50       ?Create@EclWindow@@UAEXXZ  00425d50 f   eclwindow.obj
 0001:00024d60       ?Remove@EclWindow@@UAEXXZ  00425d60 f   eclwindow.obj
 0001:00024d70       ?Update@EclWindow@@UAEXXZ  00425d70 f   eclwindow.obj
 0001:00024d80       ?Keypress@EclWindow@@UAEXH_N00E@Z 00425d80 f   eclwindow.obj
 0001:00024db0       ?MouseEvent@EclWindow@@UAEX_N000@Z 00425db0 f   eclwindow.obj
 0001:00024dc0       ?Render@EclWindow@@UAEX_N@Z 00425dc0 f   eclwindow.obj
 0001:00024ed0       ??0?$LList@PAVEclButton@@@@QAE@XZ 00425ed0 f i eclwindow.obj
 0001:00024ef0       ??1?$LList@PAVEclButton@@@@QAE@XZ 00425ef0 f i eclwindow.obj
 0001:00024f00       ?PutDataAtStart@?$LList@PAVEclButton@@@@QAEXABQAVEclButton@@@Z 00425f00 f i eclwindow.obj
 0001:00024f70       ?GetData@?$LList@PAVEclButton@@@@QBEPAVEclButton@@H@Z 00425f70 f i eclwindow.obj
 0001:00024f80       ?RemoveData@?$LList@PAVEclButton@@@@QAEXH@Z 00425f80 f i eclwindow.obj
 0001:00025030       ?Size@?$LList@PAVEclButton@@@@QBEHXZ 00426030 f i eclwindow.obj
 0001:00025040       ?Empty@?$LList@PAVEclButton@@@@QAEXXZ 00426040 f i eclwindow.obj
 0001:00025080       ?EmptyAndDelete@?$LList@PAVEclButton@@@@QAEXXZ 00426080 f i eclwindow.obj
 0001:000250d0       ??_G?$LListItem@PAVEclButton@@@@QAEPAXI@Z 004260d0 f i eclwindow.obj
 0001:000250e0       ?GetItem@?$LList@PAVEclButton@@@@IBEPAV?$LListItem@PAVEclButton@@@@H@Z 004260e0 f i eclwindow.obj
 0001:00025170       ??0?$LListItem@PAVEclButton@@@@QAE@XZ 00426170 f i eclwindow.obj
 0001:00025180       ??1?$LListItem@PAVEclButton@@@@QAE@XZ 00426180 f i eclwindow.obj
 0001:00025190       ?ValidIndex@?$LList@PAVEclButton@@@@QBE_NH@Z 00426190 f i eclwindow.obj
 0001:000251b0       ??0BinaryReader@@QAE@XZ    004261b0 f   binary_stream_readers.obj
 0001:000251c0       ??_GBinaryReader@@UAEPAXI@Z 004261c0 f i binary_stream_readers.obj
 0001:000251c0       ??_EBinaryReader@@UAEPAXI@Z 004261c0 f i  CIL library: CIL module
 0001:000251f0       ??1BinaryReader@@UAE@XZ    004261f0 f   binary_stream_readers.obj
 0001:00025200       ??0BinaryFileReader@@QAE@PBD@Z 00426200 f   binary_stream_readers.obj
 0001:00025260       ??_GBinaryFileReader@@UAEPAXI@Z 00426260 f i binary_stream_readers.obj
 0001:00025260       ??_EBinaryFileReader@@UAEPAXI@Z 00426260 f i  CIL library: CIL module
 0001:00025290       ??1BinaryFileReader@@UAE@XZ 00426290 f   binary_stream_readers.obj
 0001:000252b0       ?IsOpen@BinaryFileReader@@UAE_NXZ 004262b0 f   binary_stream_readers.obj
 0001:000252c0       ?GetFileType@BinaryFileReader@@UAEPADXZ 004262c0 f   binary_stream_readers.obj
 0001:000252f0       ?ReadS8@BinaryFileReader@@UAECXZ 004262f0 f   binary_stream_readers.obj
 0001:00025310       ?ReadU8@BinaryFileReader@@UAEEXZ 00426310 f   binary_stream_readers.obj
 0001:00025330       ?ReadS16@BinaryFileReader@@UAEFXZ 00426330 f   binary_stream_readers.obj
 0001:00025370       ?ReadS32@BinaryFileReader@@UAEHXZ 00426370 f   binary_stream_readers.obj
 0001:000253f0       ?ReadBytes@BinaryFileReader@@UAEIIPAE@Z 004263f0 f   binary_stream_readers.obj
 0001:00025420       ?Seek@BinaryFileReader@@UAEHHH@Z 00426420 f   binary_stream_readers.obj
 0001:00025440       ?Tell@BinaryFileReader@@UAEHXZ 00426440 f   binary_stream_readers.obj
 0001:00025450       ??0BinaryDataReader@@QAE@PBEIPBD@Z 00426450 f   binary_stream_readers.obj
 0001:000254a0       ??_EBinaryDataReader@@UAEPAXI@Z 004264a0 f i  CIL library: CIL module
 0001:000254a0       ??_GBinaryDataReader@@UAEPAXI@Z 004264a0 f i binary_stream_readers.obj
 0001:000254d0       ??1BinaryDataReader@@UAE@XZ 004264d0 f   binary_stream_readers.obj
 0001:000254e0       ?IsOpen@BinaryDataReader@@UAE_NXZ 004264e0 f   binary_stream_readers.obj
 0001:000254f0       ?GetFileType@BinaryDataReader@@UAEPADXZ 004264f0 f   binary_stream_readers.obj
 0001:00025520       ?ReadS8@BinaryDataReader@@UAECXZ 00426520 f   binary_stream_readers.obj
 0001:00025550       ?ReadU8@BinaryDataReader@@UAEEXZ 00426550 f   binary_stream_readers.obj
 0001:00025580       ?ReadS16@BinaryDataReader@@UAEFXZ 00426580 f   binary_stream_readers.obj
 0001:000255c0       ?ReadS32@BinaryDataReader@@UAEHXZ 004265c0 f   binary_stream_readers.obj
 0001:00025640       ?ReadBytes@BinaryDataReader@@UAEIIPAE@Z 00426640 f   binary_stream_readers.obj
 0001:000256a0       ?Seek@BinaryDataReader@@UAEHHH@Z 004266a0 f   binary_stream_readers.obj
 0001:000256f0       ?Tell@BinaryDataReader@@UAEHXZ 004266f0 f   binary_stream_readers.obj
 0001:00025700       ??0FileSystem@@QAE@XZ      00426700 f   file_system.obj
 0001:00025720       ??1FileSystem@@QAE@XZ      00426720 f   file_system.obj
 0001:00025740       ?ParseArchives@FileSystem@@QAEXPBD0@Z 00426740 f   file_system.obj
 0001:000257f0       ?ParseArchive@FileSystem@@QAEXPBD@Z 004267f0 f   file_system.obj
 0001:00025930       ??_GMemMappedFile@@QAEPAXI@Z 00426930 f i file_system.obj
 0001:00025950       ?GetTextReader@FileSystem@@QAEPAVTextReader@@PBD@Z 00426950 f   file_system.obj
 0001:00025b40       ?GetBinaryReader@FileSystem@@QAEPAVBinaryReader@@PBD@Z 00426b40 f   file_system.obj
 0001:00025cf0       ?WildCmp@@YAHPBD0@Z        00426cf0 f   file_system.obj
 0001:00025d90       ?OrderedInsert@@YAXPAV?$LList@PAD@@PAD@Z 00426d90 f   file_system.obj
 0001:00025ea0       ?ListArchive@FileSystem@@QAEPAV?$LList@PAD@@PAD0_N@Z 00426ea0 f   file_system.obj
 0001:000260e0       ?ClearSearchPath@FileSystem@@QAEXXZ 004270e0 f   file_system.obj
 0001:000260f0       ?AddSearchPath@FileSystem@@QAEXPAD@Z 004270f0 f   file_system.obj
 0001:00026120       ??0?$BTree@PAVMemMappedFile@@@@QAE@XZ 00427120 f i file_system.obj
 0001:00026130       ??1?$BTree@PAVMemMappedFile@@@@QAE@XZ 00427130 f i file_system.obj
 0001:00026140       ?PutData@?$BTree@PAVMemMappedFile@@@@QAEXPBDABQAVMemMappedFile@@@Z 00427140 f i file_system.obj
 0001:00026290       ?RemoveData@?$BTree@PAVMemMappedFile@@@@QAEXPBD@Z 00427290 f i file_system.obj
 0001:000263f0       ?GetData@?$BTree@PAVMemMappedFile@@@@QAEPAVMemMappedFile@@PBD@Z 004273f0 f i file_system.obj
 0001:00026400       ?Size@?$BTree@PAVMemMappedFile@@@@QBEHXZ 00427400 f i file_system.obj
 0001:00026440       ?ConvertIndexToDArray@?$BTree@PAVMemMappedFile@@@@QAEPAV?$DArray@PAD@@XZ 00427440 f i file_system.obj
 0001:00026480       ?RecursiveConvertIndexToDArray@?$BTree@PAVMemMappedFile@@@@IAEXPAV?$DArray@PAD@@PAV1@@Z 00427480 f i file_system.obj
 0001:000264e0       ?AppendRight@?$BTree@PAVMemMappedFile@@@@IAEXPAV1@@Z 004274e0 f i file_system.obj
 0001:00026500       ??0?$BTree@PAVMemMappedFile@@@@QAE@PBDABQAVMemMappedFile@@@Z 00427500 f i file_system.obj
 0001:00026550       ?LookupTree@?$BTree@PAVMemMappedFile@@@@QAEPAV1@PBD@Z 00427550 f i file_system.obj
 0001:000265a0       ?Empty@?$BTree@PAVMemMappedFile@@@@QAEXXZ 004275a0 f i file_system.obj
 0001:000265f0       ?Left@?$BTree@PAVMemMappedFile@@@@QBEPAV1@XZ 004275f0 f i file_system.obj
 0001:00026600       ?Right@?$BTree@PAVMemMappedFile@@@@QBEPAV1@XZ 00427600 f i file_system.obj
 0001:00026610       ??_G?$BTree@PAVMemMappedFile@@@@QAEPAXI@Z 00427610 f i file_system.obj
 0001:00026630       ?ListDirectory@@YAPAV?$LList@PAD@@PBD0_N@Z 00427630 f   filesys_utils.obj
 0001:000267f0       ?ListSubDirectoryNames@@YAPAV?$LList@PAD@@PBD@Z 004277f0 f   filesys_utils.obj
 0001:00026920       ?DoesFileExist@@YA_NPBD@Z  00427920 f   filesys_utils.obj
 0001:00026950       ?ConcatPaths@@YAPADPBDZZ   00427950 f   filesys_utils.obj
 0001:00026a10       ?GetDirectoryPart@@YAPADPBD@Z 00427a10 f   filesys_utils.obj
 0001:00026a40       ?GetFilenamePart@@YAPADPBD@Z 00427a40 f   filesys_utils.obj
 0001:00026a70       ?GetExtensionPart@@YAPBDPBD@Z 00427a70 f   filesys_utils.obj
 0001:00026a80       ?RemoveExtension@@YAPADPBD@Z 00427a80 f   filesys_utils.obj
 0001:00026ab0       ?AreFilesIdentical@@YA_NPBD0@Z 00427ab0 f   filesys_utils.obj
 0001:00026b60       ?CreateDirectoryA@@YA_NPBD@Z 00427b60 f   filesys_utils.obj
 0001:00026b90       ?CreateDirectoryRecursively@@YA_NPBD@Z 00427b90 f   filesys_utils.obj
 0001:00026c50       ?DeleteThisFile@@YAXPBD@Z  00427c50 f   filesys_utils.obj
 0001:00026c60       ?IsDirectory@@YA_NPBD@Z    00427c60 f   filesys_utils.obj
 0001:00026c80       ?FindCaseInsensitive@@YAPBDPBD@Z 00427c80 f   filesys_utils.obj
 0001:00026c90       ??0TextFileWriter@@QAE@PAD_N@Z 00427c90 f   text_file_writer.obj
 0001:00026ce0       ??1TextFileWriter@@QAE@XZ  00427ce0 f   text_file_writer.obj
 0001:00026cf0       ?printf@TextFileWriter@@QAAHPADZZ 00427cf0 f   text_file_writer.obj
 0001:00026da0       ??0TextReader@@QAE@XZ      00427da0 f   text_stream_readers.obj
 0001:00026e00       ??_GTextReader@@UAEPAXI@Z  00427e00 f i text_stream_readers.obj
 0001:00026e00       ??_ETextReader@@UAEPAXI@Z  00427e00 f i  CIL library: CIL module
 0001:00026e30       ??1TextReader@@UAE@XZ      00427e30 f   text_stream_readers.obj
 0001:00026e50       ?DoubleMaxLineLen@TextReader@@IAEXXZ 00427e50 f   text_stream_readers.obj
 0001:00026eb0       ?CleanLine@TextReader@@IAEXXZ 00427eb0 f   text_stream_readers.obj
 0001:00026fb0       ?SetSeperatorChars@TextReader@@QAEXPBD@Z 00427fb0 f   text_stream_readers.obj
 0001:00026fc0       ?SetDefaultSeperatorChars@TextReader@@QAEXXZ 00427fc0 f   text_stream_readers.obj
 0001:00026fe0       ?TokenAvailable@TextReader@@QAE_NXZ 00427fe0 f   text_stream_readers.obj
 0001:00027030       ?GetFilename@TextReader@@QAEPBDXZ 00428030 f   text_stream_readers.obj
 0001:00027040       ?GetNextToken@TextReader@@QAEPADXZ 00428040 f   text_stream_readers.obj
 0001:00027110       ?GetRestOfLine@TextReader@@QAEPADXZ 00428110 f   text_stream_readers.obj
 0001:00027160       ??0TextFileReader@@QAE@PBD@Z 00428160 f   text_stream_readers.obj
 0001:000271c0       ??_ETextFileReader@@UAEPAXI@Z 004281c0 f i  CIL library: CIL module
 0001:000271c0       ??_GTextFileReader@@UAEPAXI@Z 004281c0 f i text_stream_readers.obj
 0001:000271f0       ??1TextFileReader@@UAE@XZ  004281f0 f   text_stream_readers.obj
 0001:00027210       ?IsOpen@TextFileReader@@UAE_NXZ 00428210 f   text_stream_readers.obj
 0001:00027230       ?ReadLine@TextFileReader@@UAE_NXZ 00428230 f   text_stream_readers.obj
 0001:000272b0       ??0TextDataReader@@QAE@PBDI0@Z 004282b0 f   text_stream_readers.obj
 0001:00027300       ??_GTextDataReader@@UAEPAXI@Z 00428300 f i text_stream_readers.obj
 0001:00027300       ??_ETextDataReader@@UAEPAXI@Z 00428300 f i  CIL library: CIL module
 0001:00027330       ??1TextDataReader@@UAE@XZ  00428330 f i text_stream_readers.obj
 0001:00027340       ?IsOpen@TextDataReader@@UAE_NXZ 00428340 f   text_stream_readers.obj
 0001:00027350       ?ReadLine@TextDataReader@@UAE_NXZ 00428350 f   text_stream_readers.obj
 0001:00027400       ??0InputManager@@QAE@XZ    00428400 f   input.obj
 0001:00027490       ?Advance@InputManager@@QAEXXZ 00428490 f   input.obj
 0001:000275d0       ?SetMousePos@InputManager@@QAEXHH@Z 004285d0 f   input.obj
 0001:000275f0       ?GetKeyName@InputManager@@QAEPBDH@Z 004285f0 f   input.obj
 0001:00027620       ?GetKeyId@InputManager@@QAEHPBD@Z 00428620 f   input.obj
 0001:00027650       ?Create@InputManager@@SAPAV1@XZ 00428650 f   input.obj
 0001:00027670       ??0InputManagerWin32@@QAE@XZ 00428670 f   input_win32.obj
 0001:00027690       ?ResetWindowHandle@InputManagerWin32@@UAEXXZ 00428690 f   input_win32.obj
 0001:000276b0       ?BindAltTab@InputManagerWin32@@UAEXXZ 004286b0 f   input_win32.obj
 0001:000276f0       ?UnbindAltTab@InputManagerWin32@@UAEXXZ 004286f0 f   input_win32.obj
 0001:00027740       ?WaitEvent@InputManagerWin32@@UAEXXZ 00428740 f   input_win32.obj
 0001:00027750       ?EventHandler@InputManagerWin32@@UAEHI_JH_N@Z 00428750 f   input_win32.obj
 0001:00027b70       ??0WindowManager@@QAE@XZ   00428b70 f   window_manager.obj
 0001:00027ba0       ??_EWindowManager@@UAEPAXI@Z 00428ba0 f i  CIL library: CIL module
 0001:00027ba0       ??_GWindowManager@@UAEPAXI@Z 00428ba0 f i window_manager.obj
 0001:00027bd0       ??1WindowManager@@UAE@XZ   00428bd0 f   window_manager.obj
 0001:00027bf0       ?SuggestDefaultRes@WindowManager@@QAEXPAH000@Z 00428bf0 f   window_manager.obj
 0001:00027c20       ?GetResolutionId@WindowManager@@QAEHHH@Z 00428c20 f   window_manager.obj
 0001:00027c70       ?GetResolution@WindowManager@@QAEPAVWindowResolution@@H@Z 00428c70 f   window_manager.obj
 0001:00027c90       ?Windowed@WindowManager@@QAE_NXZ 00428c90 f   window_manager.obj
 0001:00027ca0       ?Captured@WindowManager@@QAE_NXZ 00428ca0 f   window_manager.obj
 0001:00027cb0       ?RegisterMessageHandler@WindowManager@@QAEXP6AJIIJ@Z@Z 00428cb0 f   window_manager.obj
 0001:00027cc0       ?GetSecondaryMessageHandler@WindowManager@@QAEP6AJIIJ@ZXZ 00428cc0 f   window_manager.obj
 0001:00027cd0       ??1DeleteWindowManagerOnExit@@QAE@XZ 00428cd0 f i window_manager.obj
 0001:00027d00       ?Create@WindowManager@@SAPAV1@XZ 00428d00 f   window_manager.obj
 0001:00027d70       ??0?$LList@PAVWindowResolution@@@@QAE@XZ 00428d70 f i window_manager.obj
 0001:00027d90       ??1?$LList@PAVWindowResolution@@@@QAE@XZ 00428d90 f i window_manager.obj
 0001:00027da0       ?Size@?$LList@PAVWindowResolution@@@@QBEHXZ 00428da0 f i window_manager.obj
 0001:00027db0       ?ValidIndex@?$LList@PAVWindowResolution@@@@QBE_NH@Z 00428db0 f i window_manager.obj
 0001:00027dd0       ??A?$LList@PAVWindowResolution@@@@QAEPAVWindowResolution@@H@Z 00428dd0 f i window_manager.obj
 0001:00027de0       ?GetData@?$LList@PAVWindowResolution@@@@QBEPAVWindowResolution@@H@Z 00428de0 f i window_manager.obj
 0001:00027df0       ?Empty@?$LList@PAVWindowResolution@@@@QAEXXZ 00428df0 f i window_manager.obj
 0001:00027e30       ??_G?$LListItem@PAVWindowResolution@@@@QAEPAXI@Z 00428e30 f i window_manager.obj
 0001:00027e40       ?GetItem@?$LList@PAVWindowResolution@@@@IBEPAV?$LListItem@PAVWindowResolution@@@@H@Z 00428e40 f i window_manager.obj
 0001:00027ed0       ??1?$LListItem@PAVWindowResolution@@@@QAE@XZ 00428ed0 f i window_manager.obj
 0001:00027ee0       ??0WindowResolution@@QAE@HH@Z 00428ee0 f i window_manager_win32.obj
 0001:00027ef0       ?WndProc@@YGJPAUHWND__@@IIJ@Z 00428ef0 f   window_manager_win32.obj
 0001:00027f70       ??0WindowManagerWin32@@QAE@XZ 00428f70 f   window_manager_win32.obj
 0001:00027ff0       ??_EWindowManagerWin32@@UAEPAXI@Z 00428ff0 f i  CIL library: CIL module
 0001:00027ff0       ??_GWindowManagerWin32@@UAEPAXI@Z 00428ff0 f i window_manager_win32.obj
 0001:00028020       ??1WindowManagerWin32@@UAE@XZ 00429020 f i window_manager_win32.obj
 0001:00028030       ?SaveDesktop@WindowManagerWin32@@QAEXXZ 00429030 f   window_manager_win32.obj
 0001:000280a0       ?RestoreDesktop@WindowManagerWin32@@QAEXXZ 004290a0 f   window_manager_win32.obj
 0001:00028160       ?EnableOpenGL@WindowManagerWin32@@IAEXHH@Z 00429160 f   window_manager_win32.obj
 0001:00028220       ?DisableOpenGL@WindowManagerWin32@@IAEXXZ 00429220 f   window_manager_win32.obj
 0001:00028250       ?ListAllDisplayModes@WindowManagerWin32@@IAEXXZ 00429250 f   window_manager_win32.obj
 0001:000283d0       ?CreateWin@WindowManagerWin32@@UAE_NHH_NHHHHPBD@Z 004293d0 f   window_manager_win32.obj
 0001:000285e0       ?HideWin@WindowManagerWin32@@UAEXXZ 004295e0 f   window_manager_win32.obj
 0001:00028610       ?DestroyWin@WindowManagerWin32@@UAEXXZ 00429610 f   window_manager_win32.obj
 0001:00028630       ?Flip@WindowManagerWin32@@UAEXXZ 00429630 f   window_manager_win32.obj
 0001:00028650       ?PollForMessages@WindowManagerWin32@@UAEXXZ 00429650 f   window_manager_win32.obj
 0001:000286b0       ?SetMousePos@WindowManagerWin32@@UAEXHH@Z 004296b0 f   window_manager_win32.obj
 0001:00028730       ?GethInstance@WindowManagerWin32@@QAEPAUHINSTANCE__@@XZ 00429730 f   window_manager_win32.obj
 0001:00028740       ?CaptureMouse@WindowManagerWin32@@UAEXXZ 00429740 f   window_manager_win32.obj
 0001:00028760       ?UncaptureMouse@WindowManagerWin32@@UAEXXZ 00429760 f   window_manager_win32.obj
 0001:00028770       ?HideMousePointer@WindowManagerWin32@@UAEXXZ 00429770 f   window_manager_win32.obj
 0001:00028790       ?UnhideMousePointer@WindowManagerWin32@@UAEXXZ 00429790 f   window_manager_win32.obj
 0001:000287b0       ?OpenWebsite@WindowManagerWin32@@UAEXPBD@Z 004297b0 f   window_manager_win32.obj
 0001:000287d0       _WinMain@16                004297d0 f   window_manager_win32.obj
 0001:000287f0       ?PutDataAtEnd@?$LList@PAVWindowResolution@@@@QAEXABQAVWindowResolution@@@Z 004297f0 f i window_manager_win32.obj
 0001:00028850       ?PutDataAtIndex@?$LList@PAVWindowResolution@@@@QAEXABQAVWindowResolution@@H@Z 00429850 f i window_manager_win32.obj
 0001:000288d0       ?FindData@?$LList@H@@QAEHABH@Z 004298d0 f i window_manager_win32.obj
 0001:00028910       ?PutDataAtStart@?$LList@PAVWindowResolution@@@@QAEXABQAVWindowResolution@@@Z 00429910 f i window_manager_win32.obj
 0001:00028980       ??0?$LListItem@PAVWindowResolution@@@@QAE@XZ 00429980 f i window_manager_win32.obj
 0001:00028990       ?length@?$char_traits@D@std@@SAIPBD@Z 00429990 f i fixed_float.obj
 0001:000289b0       ?_Getcvt@_Locinfo@std@@QBE?AU_Cvtvec@@XZ 004299b0 f i fixed_float.obj
 0001:000289c0       ?_Getlconv@_Locinfo@std@@QBEPBUlconv@@XZ 004299c0 f i fixed_float.obj
 0001:000289d0       ?_Getfalse@_Locinfo@std@@QBEPBDXZ 004299d0 f i fixed_float.obj
 0001:000289e0       ?_Gettrue@_Locinfo@std@@QBEPBDXZ 004299e0 f i fixed_float.obj
 0001:000289f0       ?setf@ios_base@std@@QAEHHH@Z 004299f0 f i fixed_float.obj
 0001:00028a10       ?precision@ios_base@std@@QBE_JXZ 00429a10 f i fixed_float.obj
 0001:00028a20       ?width@ios_base@std@@QBE_JXZ 00429a20 f i fixed_float.obj
 0001:00028a30       ?width@ios_base@std@@QAE_J_J@Z 00429a30 f i fixed_float.obj
 0001:00028a50       ?hex@std@@YAAAVios_base@1@AAV21@@Z 00429a50 f i fixed_float.obj
 0001:00028a70       ?InternalValue@Fixed@@QBE_KXZ 00429a70 f i fixed_float.obj
 0001:00028a80       ??PFixed@@QBE_NABV0@@Z     00429a80 f i fixed_float.obj
 0001:00028aa0       ??GFixed@@QBE?AV0@XZ       00429aa0 f i fixed_float.obj
 0001:00028ab0       ?Hundredths@Fixed@@SA?AV1@H@Z 00429ab0 f   fixed_float.obj
 0001:00028ae0       ?IntValue@Fixed@@QBEHXZ    00429ae0 f   fixed_float.obj
 0001:00028af0       ?min@@YA?AVFixed@@ABV1@0@Z 00429af0 f   fixed_float.obj
 0001:00028b10       ?max@@YA?AVFixed@@ABV1@0@Z 00429b10 f   fixed_float.obj
 0001:00028b30       ?sin@@YA?AVFixed@@ABV1@@Z  00429b30 f   fixed_float.obj
 0001:00028c10       ?cos@@YA?AVFixed@@ABV1@@Z  00429c10 f   fixed_float.obj
 0001:00028c50       ?asin@@YA?AVFixed@@ABV1@@Z 00429c50 f   fixed_float.obj
 0001:00028cf0       ?acos@@YA?AVFixed@@ABV1@@Z 00429cf0 f   fixed_float.obj
 0001:00028d30       ??6@YAAAV?$basic_ostream@DU?$char_traits@D@std@@@std@@AAV01@ABVFixed@@@Z 00429d30 f   fixed_float.obj
 0001:00028da0       ??0?$basic_string@DU?$char_traits@D@std@@V?$allocator@D@2@@std@@QAE@PBD@Z 00429da0 f i fixed_float.obj
 0001:00028de0       ?c_str@?$basic_string@DU?$char_traits@D@std@@V?$allocator@D@2@@std@@QBEPBDXZ 00429de0 f i fixed_float.obj
 0001:00028df0       ??6?$basic_ostream@DU?$char_traits@D@std@@@std@@QAEAAV01@P6AAAVios_base@1@AAV21@@Z@Z 00429df0 f i fixed_float.obj
 0001:00028e30       ??6?$basic_ostream@DU?$char_traits@D@std@@@std@@QAEAAV01@_K@Z 00429e30 f i fixed_float.obj
 0001:00029020       ??6?$basic_ostream@DU?$char_traits@D@std@@@std@@QAEAAV01@N@Z 0042a020 f i fixed_float.obj
 0001:00029210       ?assign@?$basic_string@DU?$char_traits@D@std@@V?$allocator@D@2@@std@@QAEAAV12@PBD@Z 0042a210 f i fixed_float.obj
 0001:00029240       ?_Myptr@?$basic_string@DU?$char_traits@D@std@@V?$allocator@D@2@@std@@QBEPBDXZ 0042a240 f i fixed_float.obj
 0001:00029250       ?fill@?$basic_ios@DU?$char_traits@D@std@@@std@@QBEDXZ 0042a250 f i fixed_float.obj
 0001:00029260       ??0sentry@?$basic_ostream@DU?$char_traits@D@std@@@std@@QAE@AAV12@@Z 0042a260 f i fixed_float.obj
 0001:000292f0       ??1sentry@?$basic_ostream@DU?$char_traits@D@std@@@std@@QAE@XZ 0042a2f0 f i fixed_float.obj
 0001:00029360       ??Bsentry@?$basic_ostream@DU?$char_traits@D@std@@@std@@QBEPQ_Bool_struct@2@HXZ 0042a360 f i fixed_float.obj
 0001:00029370       ??1?$num_put@DV?$ostreambuf_iterator@DU?$char_traits@D@std@@@std@@@std@@MAE@XZ 0042a370 f i fixed_float.obj
 0001:00029380       ?put@?$num_put@DV?$ostreambuf_iterator@DU?$char_traits@D@std@@@std@@@std@@QBE?AV?$ostreambuf_iterator@DU?$char_traits@D@std@@@2@V32@AAVios_base@2@D_K@Z 0042a380 f i fixed_float.obj
 0001:000293b0       ?put@?$num_put@DV?$ostreambuf_iterator@DU?$char_traits@D@std@@@std@@@std@@QBE?AV?$ostreambuf_iterator@DU?$char_traits@D@std@@@2@V32@AAVios_base@2@DN@Z 0042a3b0 f i fixed_float.obj
 0001:000293e0       ?do_put@?$num_put@DV?$ostreambuf_iterator@DU?$char_traits@D@std@@@std@@@std@@MBE?AV?$ostreambuf_iterator@DU?$char_traits@D@std@@@2@V32@AAVios_base@2@D_N@Z 0042a3e0 f i fixed_float.obj
 0001:00029630       ?do_put@?$num_put@DV?$ostreambuf_iterator@DU?$char_traits@D@std@@@std@@@std@@MBE?AV?$ostreambuf_iterator@DU?$char_traits@D@std@@@2@V32@AAVios_base@2@DJ@Z 0042a630 f i fixed_float.obj
 0001:000296b0       ?do_put@?$num_put@DV?$ostreambuf_iterator@DU?$char_traits@D@std@@@std@@@std@@MBE?AV?$ostreambuf_iterator@DU?$char_traits@D@std@@@2@V32@AAVios_base@2@DK@Z 0042a6b0 f i fixed_float.obj
 0001:00029730       ?do_put@?$num_put@DV?$ostreambuf_iterator@DU?$char_traits@D@std@@@std@@@std@@MBE?AV?$ostreambuf_iterator@DU?$char_traits@D@std@@@2@V32@AAVios_base@2@D_J@Z 0042a730 f i fixed_float.obj
 0001:000297b0       ?do_put@?$num_put@DV?$ostreambuf_iterator@DU?$char_traits@D@std@@@std@@@std@@MBE?AV?$ostreambuf_iterator@DU?$char_traits@D@std@@@2@V32@AAVios_base@2@D_K@Z 0042a7b0 f i fixed_float.obj
 0001:00029830       ?do_put@?$num_put@DV?$ostreambuf_iterator@DU?$char_traits@D@std@@@std@@@std@@MBE?AV?$ostreambuf_iterator@DU?$char_traits@D@std@@@2@V32@AAVios_base@2@DN@Z 0042a830 f i fixed_float.obj
 0001:00029a40       ?do_put@?$num_put@DV?$ostreambuf_iterator@DU?$char_traits@D@std@@@std@@@std@@MBE?AV?$ostreambuf_iterator@DU?$char_traits@D@std@@@2@V32@AAVios_base@2@DO@Z 0042aa40 f i fixed_float.obj
 0001:00029c40       ?do_put@?$num_put@DV?$ostreambuf_iterator@DU?$char_traits@D@std@@@std@@@std@@MBE?AV?$ostreambuf_iterator@DU?$char_traits@D@std@@@2@V32@AAVios_base@2@DPBX@Z 0042ac40 f i fixed_float.obj
 0001:00029cb0       ??0?$ostreambuf_iterator@DU?$char_traits@D@std@@@std@@QAE@PAV?$basic_streambuf@DU?$char_traits@D@std@@@1@@Z 0042acb0 f i fixed_float.obj
 0001:00029cc0       ?failed@?$ostreambuf_iterator@DU?$char_traits@D@std@@@std@@QBE_NXZ 0042acc0 f i fixed_float.obj
 0001:00029cd0       ?sputc@?$basic_streambuf@DU?$char_traits@D@std@@@std@@QAEHD@Z 0042acd0 f i fixed_float.obj
 0001:00029d00       ??_E?$num_put@DV?$ostreambuf_iterator@DU?$char_traits@D@std@@@std@@@std@@MAEPAXI@Z 0042ad00 f i  CIL library: CIL module
 0001:00029d00       ??_G?$num_put@DV?$ostreambuf_iterator@DU?$char_traits@D@std@@@std@@@std@@MAEPAXI@Z 0042ad00 f i fixed_float.obj
 0001:00029d30       ?assign@?$basic_string@DU?$char_traits@D@std@@V?$allocator@D@2@@std@@QAEAAV12@$$QAV12@@Z 0042ad30 f i fixed_float.obj
 0001:00029da0       ?assign@?$basic_string@DU?$char_traits@D@std@@V?$allocator@D@2@@std@@QAEAAV12@PBDI@Z 0042ada0 f i fixed_float.obj
 0001:00029ea0       ?_Osfx@?$basic_ostream@DU?$char_traits@D@std@@@std@@QAEXXZ 0042aea0 f i fixed_float.obj
 0001:00029f00       ??0_Sentry_base@?$basic_ostream@DU?$char_traits@D@std@@@std@@QAE@AAV12@@Z 0042af00 f i fixed_float.obj
 0001:00029f20       ??1_Sentry_base@?$basic_ostream@DU?$char_traits@D@std@@@std@@QAE@XZ 0042af20 f i fixed_float.obj
 0001:00029f40       ?_Ffmt@?$num_put@DV?$ostreambuf_iterator@DU?$char_traits@D@std@@@std@@@std@@ABAPADPADDH@Z 0042af40 f i fixed_float.obj
 0001:00029fb0       ?_Fput@?$num_put@DV?$ostreambuf_iterator@DU?$char_traits@D@std@@@std@@@std@@ABA?AV?$ostreambuf_iterator@DU?$char_traits@D@std@@@2@V32@AAVios_base@2@DPBDIIII@Z 0042afb0 f i fixed_float.obj
 0001:0002a520       ?_Ifmt@?$num_put@DV?$ostreambuf_iterator@DU?$char_traits@D@std@@@std@@@std@@ABAPADPADPBDH@Z 0042b520 f i fixed_float.obj
 0001:0002a5a0       ?_Iput@?$num_put@DV?$ostreambuf_iterator@DU?$char_traits@D@std@@@std@@@std@@ABA?AV?$ostreambuf_iterator@DU?$char_traits@D@std@@@2@V32@AAVios_base@2@DPADI@Z 0042b5a0 f i fixed_float.obj
 0001:0002a810       ?_Put@?$num_put@DV?$ostreambuf_iterator@DU?$char_traits@D@std@@@std@@@std@@ABA?AV?$ostreambuf_iterator@DU?$char_traits@D@std@@@2@V32@PBDI@Z 0042b810 f i fixed_float.obj
 0001:0002a880       ?_Rep@?$num_put@DV?$ostreambuf_iterator@DU?$char_traits@D@std@@@std@@@std@@ABA?AV?$ostreambuf_iterator@DU?$char_traits@D@std@@@2@V32@DI@Z 0042b880 f i fixed_float.obj
 0001:0002a8e0       ?falsename@?$numpunct@D@std@@QBE?AV?$basic_string@DU?$char_traits@D@std@@V?$allocator@D@2@@2@XZ 0042b8e0 f i fixed_float.obj
 0001:0002a900       ?truename@?$numpunct@D@std@@QBE?AV?$basic_string@DU?$char_traits@D@std@@V?$allocator@D@2@@2@XZ 0042b900 f i fixed_float.obj
 0001:0002a920       ??1?$numpunct@D@std@@MAE@XZ 0042b920 f i fixed_float.obj
 0001:0002a950       ?do_decimal_point@?$numpunct@D@std@@MBEDXZ 0042b950 f i fixed_float.obj
 0001:0002a960       ?do_thousands_sep@?$numpunct@D@std@@MBEDXZ 0042b960 f i fixed_float.obj
 0001:0002a970       ?do_grouping@?$numpunct@D@std@@MBE?AV?$basic_string@DU?$char_traits@D@std@@V?$allocator@D@2@@2@XZ 0042b970 f i fixed_float.obj
 0001:0002a9c0       ?do_falsename@?$numpunct@D@std@@MBE?AV?$basic_string@DU?$char_traits@D@std@@V?$allocator@D@2@@2@XZ 0042b9c0 f i fixed_float.obj
 0001:0002aa10       ?do_truename@?$numpunct@D@std@@MBE?AV?$basic_string@DU?$char_traits@D@std@@V?$allocator@D@2@@2@XZ 0042ba10 f i fixed_float.obj
 0001:0002aa60       ??_G?$numpunct@D@std@@MAEPAXI@Z 0042ba60 f i fixed_float.obj
 0001:0002aa60       ??_E?$numpunct@D@std@@MAEPAXI@Z 0042ba60 f i  CIL library: CIL module
 0001:0002aab0       ??4?$basic_string@DU?$char_traits@D@std@@V?$allocator@D@2@@std@@QAEAAV01@ABV01@@Z 0042bab0 f i fixed_float.obj
 0001:0002aac0       ?append@?$basic_string@DU?$char_traits@D@std@@V?$allocator@D@2@@std@@QAEAAV12@PBDI@Z 0042bac0 f i fixed_float.obj
 0001:0002abe0       ?assign@?$basic_string@DU?$char_traits@D@std@@V?$allocator@D@2@@std@@QAEAAV12@ABV12@II@Z 0042bbe0 f i fixed_float.obj
 0001:0002acd0       ?insert@?$basic_string@DU?$char_traits@D@std@@V?$allocator@D@2@@std@@QAEAAV12@IID@Z 0042bcd0 f i fixed_float.obj
 0001:0002adc0       ??A?$basic_string@DU?$char_traits@D@std@@V?$allocator@D@2@@std@@QAEAADI@Z 0042bdc0 f i fixed_float.obj
 0001:0002add0       ?get_allocator@?$basic_string@DU?$char_traits@D@std@@V?$allocator@D@2@@std@@QBE?AV?$allocator@D@2@XZ 0042bdd0 f i fixed_float.obj
 0001:0002ade0       ?_Inside@?$basic_string@DU?$char_traits@D@std@@V?$allocator@D@2@@std@@QAE_NPBD@Z 0042bde0 f i fixed_float.obj
 0001:0002ae20       ?_Putc@?$num_put@DV?$ostreambuf_iterator@DU?$char_traits@D@std@@@std@@@std@@ABA?AV?$ostreambuf_iterator@DU?$char_traits@D@std@@@2@V32@PBDI@Z 0042be20 f i fixed_float.obj
 0001:0002ae90       ?_Putgrouped@?$num_put@DV?$ostreambuf_iterator@DU?$char_traits@D@std@@@std@@@std@@ABA?AV?$ostreambuf_iterator@DU?$char_traits@D@std@@@2@V32@PBDID@Z 0042be90 f i fixed_float.obj
 0001:0002af30       ??4?$ostreambuf_iterator@DU?$char_traits@D@std@@@std@@QAEAAV01@D@Z 0042bf30 f i fixed_float.obj
 0001:0002af80       ??D?$ostreambuf_iterator@DU?$char_traits@D@std@@@std@@QAEAAV01@XZ 0042bf80 f i fixed_float.obj
 0001:0002af90       ??E?$ostreambuf_iterator@DU?$char_traits@D@std@@@std@@QAEAAV01@XZ 0042bf90 f i fixed_float.obj
 0001:0002afa0       ?decimal_point@?$numpunct@D@std@@QBEDXZ 0042bfa0 f i fixed_float.obj
 0001:0002afb0       ?thousands_sep@?$numpunct@D@std@@QBEDXZ 0042bfb0 f i fixed_float.obj
 0001:0002afc0       ?grouping@?$numpunct@D@std@@QBE?AV?$basic_string@DU?$char_traits@D@std@@V?$allocator@D@2@@2@XZ 0042bfc0 f i fixed_float.obj
 0001:0002afe0       ?_Tidy@?$numpunct@D@std@@AAEXXZ 0042bfe0 f i fixed_float.obj
 0001:0002b000       ?append@?$basic_string@DU?$char_traits@D@std@@V?$allocator@D@2@@std@@QAEAAV12@ABV12@II@Z 0042c000 f i fixed_float.obj
 0001:0002b0f0       ?assign@?$basic_string@DU?$char_traits@D@std@@V?$allocator@D@2@@std@@QAEAAV12@ABV12@@Z 0042c0f0 f i fixed_float.obj
 0001:0002b100       ??$?6U?$char_traits@D@std@@@std@@YAAAV?$basic_ostream@DU?$char_traits@D@std@@@0@AAV10@PBD@Z 0042c100 f i fixed_float.obj
 0001:0002b3c0       ??$use_facet@V?$num_put@DV?$ostreambuf_iterator@DU?$char_traits@D@std@@@std@@@std@@@std@@YAABV?$num_put@DV?$ostreambuf_iterator@DU?$char_traits@D@std@@@std@@@0@ABVlocale@0@@Z 0042c3c0 f i fixed_float.obj
 0001:0002b500       ??$use_facet@V?$numpunct@D@std@@@std@@YAABV?$numpunct@D@0@ABVlocale@0@@Z 0042c500 f i fixed_float.obj
 0001:0002b640       ??$?9DD@std@@YA_NABV?$allocator@D@0@0@Z 0042c640 f i fixed_float.obj
 0001:0002b650       ??$_Maklocchr@D@std@@YADDPADABU_Cvtvec@@@Z 0042c650 f i fixed_float.obj
 0001:0002b660       ?_Getcat@?$num_put@DV?$ostreambuf_iterator@DU?$char_traits@D@std@@@std@@@std@@SAIPAPBVfacet@locale@2@PBV42@@Z 0042c660 f i fixed_float.obj
 0001:0002b720       ?sputn@?$basic_streambuf@DU?$char_traits@D@std@@@std@@QAE_JPBD_J@Z 0042c720 f i fixed_float.obj
 0001:0002b740       ?_Getcat@?$numpunct@D@std@@SAIPAPBVfacet@locale@2@PBV42@@Z 0042c740 f i fixed_float.obj
 0001:0002b800       ??0?$num_put@DV?$ostreambuf_iterator@DU?$char_traits@D@std@@@std@@@std@@QAE@ABV_Locinfo@1@I@Z 0042c800 f i fixed_float.obj
 0001:0002b820       ??0?$numpunct@D@std@@QAE@ABV_Locinfo@1@I_N@Z 0042c820 f i fixed_float.obj
 0001:0002b870       ?_Init@?$num_put@DV?$ostreambuf_iterator@DU?$char_traits@D@std@@@std@@@std@@IAEXABV_Locinfo@2@@Z 0042c870 f i fixed_float.obj
 0001:0002b880       ?_Init@?$numpunct@D@std@@IAEXABV_Locinfo@2@_N@Z 0042c880 f i fixed_float.obj
 0001:0002b9b0       ??$?8DD@std@@YA_NABV?$allocator@D@0@0@Z 0042c9b0 f i fixed_float.obj
 0001:0002b9c0       ??$_Maklocstr@D@std@@YAPADPBDPADABU_Cvtvec@@@Z 0042c9c0 f i fixed_float.obj
 0001:0002b9f0       ?HashData@@YAXPADH0@Z      0042c9f0 f   hash.obj
 0001:0002baa0       ?HashData@@YAXPAD0@Z       0042caa0 f   hash.obj
 0001:0002bb20       ?Log2@@YAMM@Z              0042cb20 f   math_utils.obj
 0001:0002bb70       ?RampUpAndDown@@YANNNN@Z   0042cb70 f   math_utils.obj
 0001:0002bbd0       ?TruncateFloatPrecision@@YAXAAM@Z 0042cbd0 f   math_utils.obj
 0001:0002bbe0       _logf                      0042cbe0 f i math_utils.obj
 0001:0002bc00       ??YFixed@@QAEAAV0@ABV0@@Z  0042cc00 f i random_number.obj
 0001:0002bc20       ?AppSeedRandom@@YAXI@Z     0042cc20 f   random_number.obj
 0001:0002bc30       ?AppRandom@@YAHXZ          0042cc30 f   random_number.obj
 0001:0002bc50       ?SyncRandLog@@YAXPADZZ     0042cc50 f   random_number.obj
 0001:0002bc60       ?LogSyncRand@@YAXPADHM@Z   0042cc60 f   random_number.obj
 0001:0002bc70       ?DebugSyncRand@@YAKPADH@Z  0042cc70 f   random_number.obj
 0001:0002bc80       ?DebugSyncFrand@@YA?AVFixed@@PADHV1@1@Z 0042cc80 f   random_number.obj
 0001:0002bd50       ?DumpSyncRandLog@@YAXPAD@Z 0042cd50 f   random_number.obj
 0001:0002bdb0       ?FlushSyncRandLog@@YAXXZ   0042cdb0 f   random_number.obj
 0001:0002be70       ?getSeed@@YAKH@Z           0042ce70 f   random_number.obj
 0001:0002be90       ?setSeed@@YAXHK@Z          0042ce90 f   random_number.obj
 0001:0002beb0       ?syncrandseed@@YAXK@Z      0042ceb0 f   random_number.obj
 0001:0002bf10       ?_syncrand@@YAKXZ          0042cf10 f   random_number.obj
 0001:0002c020       ?_syncfrand@@YA?AVFixed@@V1@@Z 0042d020 f   random_number.obj
 0001:0002c0b0       ?_syncsfrand@@YA?AVFixed@@V1@@Z 0042d0b0 f   random_number.obj
 0001:0002c140       ?frand@@YAMM@Z             0042d140 f   random_number.obj
 0001:0002c170       ?sfrand@@YAMM@Z            0042d170 f   random_number.obj
 0001:0002c1a0       ?RandomNormalNumber@@YA?AVFixed@@V1@0@Z 0042d1a0 f   random_number.obj
 0001:0002c370       ?RandomApplyVariance@@YA?AVFixed@@V1@0@Z 0042d370 f   random_number.obj
 0001:0002c410       ?Compare@?$Vector3@M@@ABE_NABV1@@Z 0042d410 f   vector3.obj
 0001:0002c4a0       ?Compare@?$Vector3@VFixed@@@@ABE_NABV1@@Z 0042d4a0 f   vector3.obj
 0001:0002c510       ??$?0VFixed@@@?$Vector3@M@@QAE@ABV?$Vector3@VFixed@@@@@Z 0042d510 f   vector3.obj
 0001:0002c530       ??$?0M@?$Vector3@VFixed@@@@QAE@ABV?$Vector3@M@@@Z 0042d530 f   vector3.obj
 0001:0002c580       ??0NetLib@@QAE@XZ          0042d580 f   net_lib.obj
 0001:0002c590       ??1NetLib@@QAE@XZ          0042d590 f   net_lib.obj
 0001:0002c5a0       ?Initialise@NetLib@@QAE_NXZ 0042d5a0 f   net_lib.obj
 0001:0002c630       ?GetLocalHost@@YAHXZ       0042d630 f   net_lib.obj
 0001:0002c6c0       ?GetLocalHostIP@@YAXPADH@Z 0042d6c0 f   net_lib.obj
 0001:0002c7e0       ?IpAddressToStr@@YAXABUsockaddr_in@@PAD@Z 0042d7e0 f   net_lib.obj
 0001:0002c810       ??0NetMutex@@QAE@XZ        0042d810 f   net_mutex_win32.obj
 0001:0002c830       ??1NetMutex@@QAE@XZ        0042d830 f   net_mutex_win32.obj
 0001:0002c850       ?Lock@NetMutex@@QAEXXZ     0042d850 f   net_mutex_win32.obj
 0001:0002c870       ?Unlock@NetMutex@@QAEXXZ   0042d870 f   net_mutex_win32.obj
 0001:0002c890       ??0NetSocket@@QAE@XZ       0042d890 f   net_socket.obj
 0001:0002c920       ??1NetSocket@@QAE@XZ       0042d920 f   net_socket.obj
 0001:0002c940       ?GetRemoteAddress@NetSocket@@QAE?AUsockaddr_in@@XZ 0042d940 f   net_socket.obj
 0001:0002c970       ?GetLocalAddress@NetSocket@@QAE?AUsockaddr_in@@XZ 0042d970 f   net_socket.obj
 0001:0002c9a0       ?CheckTimeout@NetSocket@@IAE?AW4NetRetCode@@PAI0H@Z 0042d9a0 f   net_socket.obj
 0001:0002c9f0       ?Connect@NetSocket@@QAE?AW4NetRetCode@@PBDG@Z 0042d9f0 f   net_socket.obj
 0001:0002ca80       ?Close@NetSocket@@QAEXXZ   0042da80 f   net_socket.obj
 0001:0002caa0       ?Connect@NetSocket@@IAE?AW4NetRetCode@@XZ 0042daa0 f   net_socket.obj
 0001:0002cc10       ?WriteData@NetSocket@@QAE?AW4NetRetCode@@PAXHPAH@Z 0042dc10 f   net_socket.obj
 0001:0002cdc0       ??0NetSocketListener@@QAE@G@Z 0042ddc0 f   net_socket_listener.obj
 0001:0002cde0       ??1NetSocketListener@@QAE@XZ 0042dde0 f   net_socket_listener.obj
 0001:0002cdf0       ?GetBoundSocketHandle@NetSocketListener@@QAEIXZ 0042ddf0 f   net_socket_listener.obj
 0001:0002ce10       ?GetPort@NetSocketListener@@QBEHXZ 0042de10 f   net_socket_listener.obj
 0001:0002ce20       ?Bind@NetSocketListener@@QAE?AW4NetRetCode@@XZ 0042de20 f   net_socket_listener.obj
 0001:0002cf80       ?GetListenAddress@NetSocketListener@@QBE?AUsockaddr_in@@XZ 0042df80 f   net_socket_listener.obj
 0001:0002cfa0       ?EnableBroadcast@NetSocketListener@@QAE?AW4NetRetCode@@XZ 0042dfa0 f   net_socket_listener.obj
 0001:0002cfd0       ?DebugOutNetSocketError@@YAXH@Z 0042dfd0 f   net_socket_listener.obj
 0001:0002d000       ?StartListening@NetSocketListener@@QAE?AW4NetRetCode@@P6GKPAVNetUdpPacket@@@Z@Z 0042e000 f   net_socket_listener.obj
 0001:0002d0e0       ?StopListening@NetSocketListener@@QAEXXZ 0042e0e0 f   net_socket_listener.obj
 0001:0002d110       ??0NetSocketSession@@QAE@AAVNetSocketListener@@PBDI@Z 0042e110 f   net_socket_session.obj
 0001:0002d250       ??0NetSocketSession@@QAE@AAVNetSocketListener@@Usockaddr_in@@@Z 0042e250 f   net_socket_session.obj
 0001:0002d280       ?WriteData@NetSocketSession@@QAE?AW4NetRetCode@@PAXHPAH@Z 0042e280 f   net_socket_session.obj
 0001:0002d2e0       _WspiapiFreeAddrInfo@4     0042e2e0 f i net_socket_session.obj
 0001:0002d310       _gai_strerrorA             0042e310 f i net_socket_session.obj
 0001:0002d340       _WspiapiParseV4Address@8   0042e340 f i net_socket_session.obj
 0001:0002d390       _WspiapiQueryDNS@24        0042e390 f i net_socket_session.obj
 0001:0002d470       _WspiapiStrdup@4           0042e470 f i net_socket_session.obj
 0001:0002d4c0       _WspiapiLookupNode@24      0042e4c0 f i net_socket_session.obj
 0001:0002d650       _WspiapiNewAddrInfo@16     0042e650 f i net_socket_session.obj
 0001:0002d6c0       _WspiapiClone@8            0042e6c0 f i net_socket_session.obj
 0001:0002d760       _WspiapiLegacyGetAddrInfo@16 0042e760 f i net_socket_session.obj
 0001:0002da10       _WspiapiLegacyGetNameInfo@28 0042ea10 f i net_socket_session.obj
 0001:0002dc90       _WspiapiLegacyFreeAddrInfo@4 0042ec90 f i net_socket_session.obj
 0001:0002dce0       _WspiapiLoad@4             0042ece0 f i net_socket_session.obj
 0001:0002dea0       _WspiapiGetAddrInfo@16     0042eea0 f i net_socket_session.obj
 0001:0002dee0       ?NetStartThread@@YA?AW4NetRetCode@@P6GKPAX@Z0@Z 0042eee0 f   net_thread_win32.obj
 0001:0002df20       ??0NetUdpPacket@@QAE@XZ    0042ef20 f   net_udp_packet.obj
 0001:0002df50       ?IpAddressToStr@NetUdpPacket@@QAEXPAD@Z 0042ef50 f   net_udp_packet.obj
 0001:0002df70       ?GetPort@NetUdpPacket@@QAEHXZ 0042ef70 f   net_udp_packet.obj
 0001:0002df80       ?eq@?$char_traits@D@std@@SA_NABD0@Z 0042ef80 f i directory.obj
 0001:0002df90       ??7ios_base@std@@QBE_NXZ   0042ef90 f i directory.obj
 0001:0002dfa0       ?IsInt@DirectoryData@@QAE_NXZ 0042efa0 f i directory.obj
 0001:0002dfb0       ?IsFloat@DirectoryData@@QAE_NXZ 0042efb0 f i directory.obj
 0001:0002dfc0       ?IsFixed@DirectoryData@@QAE_NXZ 0042efc0 f i directory.obj
 0001:0002dfd0       ?IsChar@DirectoryData@@QAE_NXZ 0042efd0 f i directory.obj
 0001:0002dfe0       ?IsString@DirectoryData@@QAE_NXZ 0042efe0 f i directory.obj
 0001:0002dff0       ?IsBool@DirectoryData@@QAE_NXZ 0042eff0 f i directory.obj
 0001:0002e000       ?IsVoid@DirectoryData@@QAE_NXZ 0042f000 f i directory.obj
 0001:0002e010       ??0Directory@@QAE@XZ       0042f010 f   directory.obj
 0001:0002e080       ??0Directory@@QAE@PAV0@@Z  0042f080 f   directory.obj
 0001:0002e100       ??1Directory@@QAE@XZ       0042f100 f   directory.obj
 0001:0002e180       ?SetName@Directory@@QAEXPAD@Z 0042f180 f   directory.obj
 0001:0002e1c0       ?GetDirectory@Directory@@QAEPAV1@PAD@Z 0042f1c0 f   directory.obj
 0001:0002e2c0       ?RemoveDirectoryA@Directory@@QAEXPAD@Z 0042f2c0 f   directory.obj
 0001:0002e320       ?AddDirectory@Directory@@QAEPAV1@PAD@Z 0042f320 f   directory.obj
 0001:0002e490       ?AddDirectory@Directory@@QAEXPAV1@@Z 0042f490 f   directory.obj
 0001:0002e4d0       ?CopyData@Directory@@QAEXPAV1@_N1@Z 0042f4d0 f   directory.obj
 0001:0002e650       ?GetFirstSubDir@Directory@@SAPADPAD@Z 0042f650 f   directory.obj
 0001:0002e6d0       ?GetOtherSubDirs@Directory@@SAPADPAD@Z 0042f6d0 f   directory.obj
 0001:0002e730       ?CreateData@Directory@@QAEXPADH@Z 0042f730 f   directory.obj
 0001:0002e7e0       ?CreateData@Directory@@QAEXPADM@Z 0042f7e0 f   directory.obj
 0001:0002e8a0       ?CreateData@Directory@@QAEXPADVFixed@@@Z 0042f8a0 f   directory.obj
 0001:0002e960       ?CreateData@Directory@@QAEXPADE@Z 0042f960 f   directory.obj
 0001:0002e970       ?CreateData@Directory@@QAEXPADD@Z 0042f970 f   directory.obj
 0001:0002ea20       ?CreateData@Directory@@QAEXPAD0@Z 0042fa20 f   directory.obj
 0001:0002ead0       ?CreateData@Directory@@QAEXPAD_N@Z 0042fad0 f   directory.obj
 0001:0002eb80       ?CreateData@Directory@@QAEXPADPAXH@Z 0042fb80 f   directory.obj
 0001:0002ec40       ?GetDataInt@Directory@@QAEHPAD@Z 0042fc40 f   directory.obj
 0001:0002ec70       ?GetDataFloat@Directory@@QAEMPAD@Z 0042fc70 f   directory.obj
 0001:0002eca0       ?GetDataFixed@Directory@@QAE?AVFixed@@PAD@Z 0042fca0 f   directory.obj
 0001:0002ed10       ?GetDataUChar@Directory@@QAEEPAD@Z 0042fd10 f   directory.obj
 0001:0002ed20       ?GetDataChar@Directory@@QAEDPAD@Z 0042fd20 f   directory.obj
 0001:0002ed50       ?GetDataString@Directory@@QAEPADPAD@Z 0042fd50 f   directory.obj
 0001:0002ed80       ?GetDataBool@Directory@@QAE_NPAD@Z 0042fd80 f   directory.obj
 0001:0002edb0       ?GetDataVoid@Directory@@QAEPAXPADPAH@Z 0042fdb0 f   directory.obj
 0001:0002edf0       ?GetData@Directory@@QAEPAVDirectoryData@@PAD@Z 0042fdf0 f   directory.obj
 0001:0002ee80       ?CreateData@Directory@@QAEXPADPAV?$DArray@H@@@Z 0042fe80 f   directory.obj
 0001:0002efc0       ?CreateData@Directory@@QAEXPADPAV?$LList@PAVDirectory@@@@@Z 0042ffc0 f   directory.obj
 0001:0002f0b0       ?CreateData@Directory@@QAEXPADPAV?$LList@H@@@Z 004300b0 f   directory.obj
 0001:0002f180       ?GetDataDArray@Directory@@QAEXPADPAV?$DArray@H@@@Z 00430180 f   directory.obj
 0001:0002f300       ?GetDataLList@Directory@@QAEXPADPAV?$LList@PAVDirectory@@@@@Z 00430300 f   directory.obj
 0001:0002f470       ?GetDataLList@Directory@@QAEXPADPAV?$LList@H@@@Z 00430470 f   directory.obj
 0001:0002f5a0       ?RemoveData@Directory@@QAEXPAD@Z 004305a0 f   directory.obj
 0001:0002f620       ??_GDirectoryData@@QAEPAXI@Z 00430620 f i directory.obj
 0001:0002f640       ?HasData@Directory@@QAE_NPADH@Z 00430640 f   directory.obj
 0001:0002f6a0       ?WriteXML@Directory@@QAEXAAV?$basic_ostream@DU?$char_traits@D@std@@@std@@H@Z 004306a0 f   directory.obj
 0001:0002f7a0       ?DebugPrint@Directory@@QAEXH@Z 004307a0 f   directory.obj
 0001:0002f870       ?WritePackedInt@Directory@@SAXAAV?$basic_ostream@DU?$char_traits@D@std@@@std@@H@Z 00430870 f   directory.obj
 0001:0002f8b0       ?ReadPackedInt@Directory@@SAHAAV?$basic_istream@DU?$char_traits@D@std@@@std@@@Z 004308b0 f   directory.obj
 0001:0002f8f0       ?Read@Directory@@QAE_NAAV?$basic_istream@DU?$char_traits@D@std@@@std@@@Z 004308f0 f   directory.obj
 0001:0002fa80       ?Write@Directory@@QAEXAAV?$basic_ostream@DU?$char_traits@D@std@@@std@@@Z 00430a80 f   directory.obj
 0001:0002fb90       ?HexDumpData@@YAXPBDHH@Z   00430b90 f   directory.obj
 0001:0002fce0       ?Read@Directory@@QAE_NPADH@Z 00430ce0 f   directory.obj
 0001:0002ff00       ??_D?$basic_istringstream@DU?$char_traits@D@std@@V?$allocator@D@2@@std@@QAEXXZ 00430f00 f i directory.obj
 0001:0002ff90       ?Write@Directory@@QAEPADAAH@Z 00430f90 f   directory.obj
 0001:00030110       ??_D?$basic_ostringstream@DU?$char_traits@D@std@@V?$allocator@D@2@@std@@QAEXXZ 00431110 f i directory.obj
 0001:000301a0       ?ReadDynamicString@Directory@@SAPADAAV?$basic_istream@DU?$char_traits@D@std@@@std@@@Z 004311a0 f   directory.obj
 0001:00030200       ?WriteDynamicString@Directory@@SAXAAV?$basic_ostream@DU?$char_traits@D@std@@@std@@PAD@Z 00431200 f   directory.obj
 0001:00030240       ?GetByteSize@Directory@@QAEHXZ 00431240 f   directory.obj
 0001:000302f0       ?WriteVoidData@Directory@@SAXAAV?$basic_ostream@DU?$char_traits@D@std@@@std@@PAXH@Z 004312f0 f   directory.obj
 0001:00030320       ?ReadVoidData@Directory@@SAPAXAAV?$basic_istream@DU?$char_traits@D@std@@@std@@PAH@Z 00431320 f   directory.obj
 0001:00030350       ??0DirectoryData@@QAE@XZ   00431350 f   directory.obj
 0001:00030390       ??1DirectoryData@@QAE@XZ   00431390 f   directory.obj
 0001:000303c0       ?SetName@DirectoryData@@QAEXPAD@Z 004313c0 f   directory.obj
 0001:000303e0       ?SetData@DirectoryData@@QAEXH@Z 004313e0 f   directory.obj
 0001:000303f0       ?SetData@DirectoryData@@QAEXM@Z 004313f0 f   directory.obj
 0001:00030410       ?SetData@DirectoryData@@QAEXVFixed@@@Z 00431410 f   directory.obj
 0001:00030430       ?SetData@DirectoryData@@QAEXD@Z 00431430 f   directory.obj
 0001:00030440       ?SetData@DirectoryData@@QAEXPAD@Z 00431440 f   directory.obj
 0001:00030470       ?SetData@DirectoryData@@QAEXPAXH@Z 00431470 f   directory.obj
 0001:000304c0       ?SetData@DirectoryData@@QAEX_N@Z 004314c0 f   directory.obj
 0001:000304d0       ?SetData@DirectoryData@@QAEXPAV1@@Z 004314d0 f   directory.obj
 0001:00030600       ?WriteXML@DirectoryData@@QAEXAAV?$basic_ostream@DU?$char_traits@D@std@@@std@@H@Z 00431600 f   directory.obj
 0001:000306d0       ?DebugPrint@DirectoryData@@QAEXH@Z 004316d0 f   directory.obj
 0001:000306e0       ?Read@DirectoryData@@QAE_NAAV?$basic_istream@DU?$char_traits@D@std@@@std@@@Z 004316e0 f   directory.obj
 0001:00030800       ?Write@DirectoryData@@QAEXAAV?$basic_ostream@DU?$char_traits@D@std@@@std@@@Z 00431800 f   directory.obj
 0001:000308d0       ??0?$basic_string@DU?$char_traits@D@std@@V?$allocator@D@2@@std@@QAE@PBDI@Z 004318d0 f i directory.obj
 0001:000308f0       ??0?$basic_string@DU?$char_traits@D@std@@V?$allocator@D@2@@std@@QAE@$$QAV01@@Z 004318f0 f i directory.obj
 0001:00030910       ?copy@?$basic_string@DU?$char_traits@D@std@@V?$allocator@D@2@@std@@QBEIPADII@Z 00431910 f i directory.obj
 0001:00030940       ??1?$basic_ostream@DU?$char_traits@D@std@@@std@@UAE@XZ 00431940 f i directory.obj
 0001:00030950       ??6?$basic_ostream@DU?$char_traits@D@std@@@std@@QAEAAV01@H@Z 00431950 f i directory.obj
 0001:00030b40       ??6?$basic_ostream@DU?$char_traits@D@std@@@std@@QAEAAV01@M@Z 00431b40 f i directory.obj
 0001:00030d30       ?put@?$basic_ostream@DU?$char_traits@D@std@@@std@@QAEAAV12@D@Z 00431d30 f i directory.obj
 0001:00030ec0       ?write@?$basic_ostream@DU?$char_traits@D@std@@@std@@QAEAAV12@PBD_J@Z 00431ec0 f i directory.obj
 0001:00031030       ?tellp@?$basic_ostream@DU?$char_traits@D@std@@@std@@QAE?AV?$fpos@H@2@XZ 00432030 f i directory.obj
 0001:00031080       ?get@?$basic_istream@DU?$char_traits@D@std@@@std@@QAEHXZ 00432080 f i directory.obj
 0001:00031220       ?read@?$basic_istream@DU?$char_traits@D@std@@@std@@QAEAAV12@PAD_J@Z 00432220 f i directory.obj
 0001:00031360       ?tellg@?$basic_istream@DU?$char_traits@D@std@@@std@@QAE?AV?$fpos@H@2@XZ 00432360 f i directory.obj
 0001:000313b0       ??0?$basic_istringstream@DU?$char_traits@D@std@@V?$allocator@D@2@@std@@QAE@ABV?$basic_string@DU?$char_traits@D@std@@V?$allocator@D@2@@1@H@Z 004323b0 f i directory.obj
 0001:00031470       ??1?$basic_istringstream@DU?$char_traits@D@std@@V?$allocator@D@2@@std@@UAE@XZ 00432470 f i directory.obj
 0001:000314e0       ??1?$basic_stringbuf@DU?$char_traits@D@std@@V?$allocator@D@2@@std@@UAE@XZ 004324e0 f i directory.obj
 0001:00031500       ?overflow@?$basic_stringbuf@DU?$char_traits@D@std@@V?$allocator@D@2@@std@@MAEHH@Z 00432500 f i directory.obj
 0001:000316b0       ?pbackfail@?$basic_stringbuf@DU?$char_traits@D@std@@V?$allocator@D@2@@std@@MAEHH@Z 004326b0 f i directory.obj
 0001:00031700       ?underflow@?$basic_stringbuf@DU?$char_traits@D@std@@V?$allocator@D@2@@std@@MAEHXZ 00432700 f i directory.obj
 0001:00031770       ?seekoff@?$basic_stringbuf@DU?$char_traits@D@std@@V?$allocator@D@2@@std@@MAE?AV?$fpos@H@2@_JHH@Z 00432770 f i directory.obj
 0001:00031930       ?seekpos@?$basic_stringbuf@DU?$char_traits@D@std@@V?$allocator@D@2@@std@@MAE?AV?$fpos@H@2@V32@H@Z 00432930 f i directory.obj
 0001:00031a60       ??0?$basic_ostringstream@DU?$char_traits@D@std@@V?$allocator@D@2@@std@@QAE@H@Z 00432a60 f i directory.obj
 0001:00031b00       ??1?$basic_ostringstream@DU?$char_traits@D@std@@V?$allocator@D@2@@std@@UAE@XZ 00432b00 f i directory.obj
 0001:00031b80       ?str@?$basic_ostringstream@DU?$char_traits@D@std@@V?$allocator@D@2@@std@@QBE?AV?$basic_string@DU?$char_traits@D@std@@V?$allocator@D@2@@2@XZ 00432b80 f i directory.obj
 0001:00031ba0       ??_G?$basic_ostream@DU?$char_traits@D@std@@@std@@UAEPAXI@Z 00432ba0 f i directory.obj
 0001:00031ba0       ??_E?$basic_ostream@DU?$char_traits@D@std@@@std@@UAEPAXI@Z 00432ba0 f i  CIL library: CIL module
 0001:00031be0       ??_G?$basic_istringstream@DU?$char_traits@D@std@@V?$allocator@D@2@@std@@UAEPAXI@Z 00432be0 f i directory.obj
 0001:00031be0       ??_E?$basic_istringstream@DU?$char_traits@D@std@@V?$allocator@D@2@@std@@UAEPAXI@Z 00432be0 f i  CIL library: CIL module
 0001:00031c10       ??_G?$basic_stringbuf@DU?$char_traits@D@std@@V?$allocator@D@2@@std@@UAEPAXI@Z 00432c10 f i directory.obj
 0001:00031c10       ??_E?$basic_stringbuf@DU?$char_traits@D@std@@V?$allocator@D@2@@std@@UAEPAXI@Z 00432c10 f i  CIL library: CIL module
 0001:00031c40       ??_E?$basic_ostringstream@DU?$char_traits@D@std@@V?$allocator@D@2@@std@@UAEPAXI@Z 00432c40 f i  CIL library: CIL module
 0001:00031c40       ??_G?$basic_ostringstream@DU?$char_traits@D@std@@V?$allocator@D@2@@std@@UAEPAXI@Z 00432c40 f i directory.obj
 0001:00031c70       ??_D?$basic_ostream@DU?$char_traits@D@std@@@std@@QAEXXZ 00432c70 f i directory.obj
 0001:00031c90       ??0?$basic_ostream@DU?$char_traits@D@std@@@std@@QAE@PAV?$basic_streambuf@DU?$char_traits@D@std@@@1@_N@Z 00432c90 f i directory.obj
 0001:00031d30       ?pubseekoff@?$basic_streambuf@DU?$char_traits@D@std@@@std@@QAE?AV?$fpos@H@2@_JHH@Z 00432d30 f i directory.obj
 0001:00031d50       ?sgetn@?$basic_streambuf@DU?$char_traits@D@std@@@std@@QAE_JPAD_J@Z 00432d50 f i directory.obj
 0001:00031d70       ?pbase@?$basic_streambuf@DU?$char_traits@D@std@@@std@@IBEPADXZ 00432d70 f i directory.obj
 0001:00031d80       ?setp@?$basic_streambuf@DU?$char_traits@D@std@@@std@@IAEXPAD00@Z 00432d80 f i directory.obj
 0001:00031da0       ??0?$basic_stringbuf@DU?$char_traits@D@std@@V?$allocator@D@2@@std@@QAE@H@Z 00432da0 f i directory.obj
 0001:00031e00       ??0?$basic_stringbuf@DU?$char_traits@D@std@@V?$allocator@D@2@@std@@QAE@ABV?$basic_string@DU?$char_traits@D@std@@V?$allocator@D@2@@1@H@Z 00432e00 f i directory.obj
 0001:00031e70       ?str@?$basic_stringbuf@DU?$char_traits@D@std@@V?$allocator@D@2@@std@@QBE?AV?$basic_string@DU?$char_traits@D@std@@V?$allocator@D@2@@2@XZ 00432e70 f i directory.obj
 0001:00031fb0       ?_Tidy@?$basic_stringbuf@DU?$char_traits@D@std@@V?$allocator@D@2@@std@@IAEXXZ 00432fb0 f i directory.obj
 0001:00032010       ?put@?$num_put@DV?$ostreambuf_iterator@DU?$char_traits@D@std@@@std@@@std@@QBE?AV?$ostreambuf_iterator@DU?$char_traits@D@std@@@2@V32@AAVios_base@2@DJ@Z 00433010 f i directory.obj
 0001:00032040       ?_Init@?$basic_stringbuf@DU?$char_traits@D@std@@V?$allocator@D@2@@std@@IAEXPBDIH@Z 00433040 f i directory.obj
 0001:00032110       ?_Getstate@?$basic_stringbuf@DU?$char_traits@D@std@@V?$allocator@D@2@@std@@AAEHH@Z 00433110 f i directory.obj
 0001:00032140       ??0?$DArray@PAVDirectory@@@@QAE@XZ 00433140 f i directory.obj
 0001:00032160       ??1?$DArray@PAVDirectory@@@@QAE@XZ 00433160 f i directory.obj
 0001:00032170       ?PutData@?$DArray@PAVDirectory@@@@QAEHABQAVDirectory@@@Z 00433170 f i directory.obj
 0001:000321c0       ?NumUsed@?$DArray@PAVDirectory@@@@QBEHXZ 004331c0 f i directory.obj
 0001:000321e0       ??A?$DArray@PAVDirectory@@@@QAEAAPAVDirectory@@H@Z 004331e0 f i directory.obj
 0001:00032230       ??0?$DArray@PAVDirectoryData@@@@QAE@XZ 00433230 f i directory.obj
 0001:00032250       ??1?$DArray@PAVDirectoryData@@@@QAE@XZ 00433250 f i directory.obj
 0001:00032260       ?PutData@?$DArray@PAVDirectoryData@@@@QAEHABQAVDirectoryData@@@Z 00433260 f i directory.obj
 0001:000322b0       ?RemoveData@?$DArray@PAVDirectoryData@@@@QAEXH@Z 004332b0 f i directory.obj
 0001:00032300       ?NumUsed@?$DArray@PAVDirectoryData@@@@QBEHXZ 00433300 f i directory.obj
 0001:00032320       ?Size@?$DArray@PAVDirectoryData@@@@QBEHXZ 00433320 f i directory.obj
 0001:00032330       ?ValidIndex@?$DArray@PAVDirectoryData@@@@QBE_NH@Z 00433330 f i directory.obj
 0001:00032350       ?EmptyAndDelete@?$DArray@PAVDirectoryData@@@@QAEXXZ 00433350 f i directory.obj
 0001:000323a0       ??A?$DArray@PAVDirectoryData@@@@QAEAAPAVDirectoryData@@H@Z 004333a0 f i directory.obj
 0001:000323f0       ?PutData@?$DArray@H@@QAEXABHH@Z 004333f0 f i directory.obj
 0001:00032440       ?RemoveData@?$DArray@H@@QAEXH@Z 00433440 f i directory.obj
 0001:00032490       ?Size@?$DArray@H@@QBEHXZ   00433490 f i directory.obj
 0001:000324a0       ?ValidIndex@?$DArray@H@@QBE_NH@Z 004334a0 f i directory.obj
 0001:000324c0       ?PutData@?$LList@PAVDirectory@@@@QAEXABQAVDirectory@@@Z 004334c0 f i directory.obj
 0001:000324d0       ?GetData@?$LList@PAVDirectory@@@@QBEPAVDirectory@@H@Z 004334d0 f i directory.obj
 0001:000324e0       ?Size@?$LList@PAVDirectory@@@@QBEHXZ 004334e0 f i directory.obj
 0001:000324f0       ??$?6U?$char_traits@D@std@@@std@@YAAAV?$basic_ostream@DU?$char_traits@D@std@@@0@AAV10@D@Z 004334f0 f i directory.obj
 0001:000327a0       ??$writeNetworkValue@H@@YAAAV?$basic_ostream@DU?$char_traits@D@std@@@std@@AAV01@H@Z 004337a0 f i directory.obj
 0001:000327c0       ??$readNetworkValue@H@@YAAAV?$basic_istream@DU?$char_traits@D@std@@@std@@AAV01@AAH@Z 004337c0 f i directory.obj
 0001:000327d0       ??$readNetworkValue@M@@YAAAV?$basic_istream@DU?$char_traits@D@std@@@std@@AAV01@AAM@Z 004337d0 f i directory.obj
 0001:000327e0       ??$readNetworkValue@N@@YAAAV?$basic_istream@DU?$char_traits@D@std@@@std@@AAV01@AAN@Z 004337e0 f i directory.obj
 0001:000327f0       ??$writeNetworkValue@M@@YAAAV?$basic_ostream@DU?$char_traits@D@std@@@std@@AAV01@M@Z 004337f0 f i directory.obj
 0001:00032810       ??$writeNetworkValue@N@@YAAAV?$basic_ostream@DU?$char_traits@D@std@@@std@@AAV01@N@Z 00433810 f i directory.obj
 0001:00032830       ??$forward@V?$allocator@D@std@@@std@@YA$$QAV?$allocator@D@0@AAV10@@Z 00433830 f i directory.obj
 0001:00032840       ??$forward@V?$basic_string@DU?$char_traits@D@std@@V?$allocator@D@2@@std@@@std@@YA$$QAV?$basic_string@DU?$char_traits@D@std@@V?$allocator@D@2@@0@AAV10@@Z 00433840 f i directory.obj
 0001:00032850       ?Grow@?$DArray@PAVDirectory@@@@IAEXXZ 00433850 f i directory.obj
 0001:00032880       ?Grow@?$DArray@PAVDirectoryData@@@@IAEXXZ 00433880 f i directory.obj
 0001:000328b0       ?Empty@?$DArray@PAVDirectoryData@@@@QAEXXZ 004338b0 f i directory.obj
 0001:000328e0       ?GetItem@?$LList@PAVDirectory@@@@IBEPAV?$LListItem@PAVDirectory@@@@H@Z 004338e0 f i directory.obj
 0001:00032970       ?PutDataAtEnd@?$LList@PAVDirectory@@@@QAEXABQAVDirectory@@@Z 00433970 f i directory.obj
 0001:000329d0       ?SetSize@?$DArray@PAVDirectory@@@@QAEXH@Z 004339d0 f i directory.obj
 0001:00032ad0       ?SetSize@?$DArray@PAVDirectoryData@@@@QAEXH@Z 00433ad0 f i directory.obj
 0001:00032bd0       ?ValidIndex@?$LList@PAVDirectory@@@@QBE_NH@Z 00433bd0 f i directory.obj
 0001:00032bf0       ??0?$LListItem@PAVDirectory@@@@QAE@XZ 00433bf0 f i directory.obj
 0001:00032c00       ??0AuthenticationResult@@QAE@XZ 00433c00 f i authentication.obj
 0001:00032c20       ?Authentication_GenerateKey@@YAXPAD_N@Z 00433c20 f   authentication.obj
 0001:00032cb0       ?Authentication_SimpleKeyCheck@@YAHPAD@Z 00433cb0 f   authentication.obj
 0001:00032d30       ?Authentication_SaveKey@@YAXPBD0@Z 00433d30 f   authentication.obj
 0001:00032d80       ?Authentication_LoadKey@@YAXPADPBD@Z 00433d80 f   authentication.obj
 0001:00032e10       ?Authentication_SetKey@@YAXPAD@Z 00433e10 f   authentication.obj
 0001:00032ed0       ?Authentication_IsKeyFound@@YA_NXZ 00433ed0 f   authentication.obj
 0001:00032ef0       ?Authentication_GetKey@@YAXPAD@Z 00433ef0 f   authentication.obj
 0001:00032f40       ?Authentication_SetHashToken@@YAXH@Z 00433f40 f   authentication.obj
 0001:00032f60       ?Authentication_GetHashToken@@YAHXZ 00433f60 f   authentication.obj
 0001:00032f70       ?Authentication_GetKeyHash@@YAXPAD0H@Z 00433f70 f   authentication.obj
 0001:00032f80       ?Authentication_IsHashKey@@YA_NPAD@Z 00433f80 f   authentication.obj
 0001:00032fa0       ?Authentication_GetKeyHash@@YAXPAD@Z 00433fa0 f   authentication.obj
 0001:00032fe0       ?Authentication_IsDemoKey@@YA_NPAD@Z 00433fe0 f   authentication.obj
 0001:00032ff0       ?Anthentication_EnforceDemo@@YAXXZ 00433ff0 f   authentication.obj
 0001:00033010       ?Authentication_GetKeyId@@YAHPAD@Z 00434010 f   authentication.obj
 0001:000330c0       ?Authentication_RequestStatus@@YAXPADH0@Z 004340c0 f   authentication.obj
 0001:00033200       ?Authentication_GetStatus@@YAHPAD@Z 00434200 f   authentication.obj
 0001:000332b0       ?Authentication_SetStatus@@YAXPADHH@Z 004342b0 f   authentication.obj
 0001:000333d0       ?Authentication_GetStatusString@@YAPADH@Z 004343d0 f   authentication.obj
 0001:00033450       ?Authentication_GetStatusStringLanguagePhrase@@YAPADH@Z 00434450 f   authentication.obj
 0001:000334d0       ??0?$LList@PAVAuthenticationResult@@@@QAE@XZ 004344d0 f i authentication.obj
 0001:00033500       ??1?$LList@PAVAuthenticationResult@@@@QAE@XZ 00434500 f i authentication.obj
 0001:00033510       ?PutData@?$LList@PAVAuthenticationResult@@@@QAEXABQAVAuthenticationResult@@@Z 00434510 f i authentication.obj
 0001:00033520       ?Size@?$LList@PAVAuthenticationResult@@@@QBEHXZ 00434520 f i authentication.obj
 0001:00033530       ??A?$LList@PAVAuthenticationResult@@@@QAEPAVAuthenticationResult@@H@Z 00434530 f i authentication.obj
 0001:00033540       ?PutDataAtEnd@?$LList@PAVAuthenticationResult@@@@QAEXABQAVAuthenticationResult@@@Z 00434540 f i authentication.obj
 0001:000335b0       ?GetData@?$LList@PAVAuthenticationResult@@@@QBEPAVAuthenticationResult@@H@Z 004345b0 f i authentication.obj
 0001:000335c0       ?Empty@?$LList@PAVAuthenticationResult@@@@QAEXXZ 004345c0 f i authentication.obj
 0001:00033610       ??_G?$LListItem@PAVAuthenticationResult@@@@QAEPAXI@Z 00434610 f i authentication.obj
 0001:00033620       ?GetItem@?$LList@PAVAuthenticationResult@@@@IBEPAV?$LListItem@PAVAuthenticationResult@@@@H@Z 00434620 f i authentication.obj
 0001:000336d0       ??0?$LListItem@PAVAuthenticationResult@@@@QAE@XZ 004346d0 f i authentication.obj
 0001:000336e0       ??1?$LListItem@PAVAuthenticationResult@@@@QAE@XZ 004346e0 f i authentication.obj
 0001:000336f0       ?ValidIndex@?$LList@PAVAuthenticationResult@@@@QBE_NH@Z 004346f0 f i authentication.obj
 0001:00033710       ??0MatchMakerListener@@QAE@XZ 00434710 f i matchmaker.obj
 0001:00033730       ?MatchMaker_LocateService@@YAXPADH@Z 00434730 f   matchmaker.obj
 0001:00033770       ?GetListenerIndex@@YAHPAVNetSocketListener@@@Z 00434770 f   matchmaker.obj
 0001:000337d0       ?GetListener@@YAPAUMatchMakerListener@@PAVNetSocketListener@@@Z 004347d0 f   matchmaker.obj
 0001:00033b10       ?MatchMaker_IsRequestingIdentity@@YA_NPAVNetSocketListener@@@Z 00434b10 f   matchmaker.obj
 0001:00033b30       ?MatchMaker_StartRequestingIdentity@@YAXPAVNetSocketListener@@@Z 00434b30 f   matchmaker.obj
 0001:00033bd0       ?MatchMaker_StopRequestingIdentity@@YAXPAVNetSocketListener@@@Z 00434bd0 f   matchmaker.obj
 0001:00033c00       ?MatchMaker_IsIdentityKnown@@YA_NPAVNetSocketListener@@@Z 00434c00 f   matchmaker.obj
 0001:00033c10       ?MatchMaker_GetIdentity@@YA_NPAVNetSocketListener@@PADPAH@Z 00434c10 f   matchmaker.obj
 0001:00033c50       ?MatchMaker_RequestConnection@@YAXPADHPAVDirectory@@@Z 00434c50 f   matchmaker.obj
 0001:00033d90       ?MatchMaker_ReceiveMessage@@YA_NPAVNetSocketListener@@PAVDirectory@@@Z 00434d90 f   matchmaker.obj
 0001:00034100       ??0?$DArray@PAUMatchMakerListener@@@@QAE@XZ 00435100 f i matchmaker.obj
 0001:00034130       ??1?$DArray@PAUMatchMakerListener@@@@QAE@XZ 00435130 f i matchmaker.obj
 0001:00034140       ?PutData@?$DArray@PAUMatchMakerListener@@@@QAEHABQAUMatchMakerListener@@@Z 00435140 f i matchmaker.obj
 0001:00034190       ?RemoveData@?$DArray@PAUMatchMakerListener@@@@QAEXH@Z 00435190 f i matchmaker.obj
 0001:000341e0       ?Size@?$DArray@PAUMatchMakerListener@@@@QBEHXZ 004351e0 f i matchmaker.obj
 0001:000341f0       ?ValidIndex@?$DArray@PAUMatchMakerListener@@@@QBE_NH@Z 004351f0 f i matchmaker.obj
 0001:00034210       ??A?$DArray@PAUMatchMakerListener@@@@QAEAAPAUMatchMakerListener@@H@Z 00435210 f i matchmaker.obj
 0001:00034270       ?Grow@?$DArray@PAUMatchMakerListener@@@@IAEXXZ 00435270 f i matchmaker.obj
 0001:000342a0       ?Empty@?$DArray@PAUMatchMakerListener@@@@QAEXXZ 004352a0 f i matchmaker.obj
 0001:000342d0       ?SetSize@?$DArray@PAUMatchMakerListener@@@@QAEXH@Z 004352d0 f i matchmaker.obj
 0001:00034400       ??0GameServer@@QAE@XZ      00435400 f i metaserver.obj
 0001:00034420       ??0MetaServerData@@QAE@XZ  00435420 f i metaserver.obj
 0001:00034440       ?MetaServer_SendDirectory@@YA_NPAVDirectory@@PAVNetSocket@@@Z 00435440 f   metaserver.obj
 0001:000344b0       ?MetaServer_SendDirectory@@YA_NPAVDirectory@@PAVNetSocketSession@@@Z 004354b0 f   metaserver.obj
 0001:00034520       ?MetaServer_SendToMetaServer@@YA_NPAVDirectory@@@Z 00435520 f   metaserver.obj
 0001:00034540       ?MetaServer_Initialise@@YAXXZ 00435540 f   metaserver.obj
 0001:00034580       ?ReceiveMetaServerData@@YAXPAVDirectory@@@Z 00435580 f   metaserver.obj
 0001:00034690       ?ReceiveDirectory@@YAXPAVDirectory@@@Z 00435690 f   metaserver.obj
 0001:00034b70       ?MetaServer_Connect@@YAXPADHH@Z 00435b70 f   metaserver.obj
 0001:00034cf0       ??_GNetSocketListener@@QAEPAXI@Z 00435cf0 f i metaserver.obj
 0001:00034d10       ?MetaServer_Disconnect@@YAXXZ 00435d10 f   metaserver.obj
 0001:00034d60       ?MetaServer_IsConnected@@YA_NXZ 00435d60 f   metaserver.obj
 0001:00034d70       ?MetaServer_SetServerProperties@@YAXPAVDirectory@@@Z 00435d70 f   metaserver.obj
 0001:00034e10       ?MetaServer_SetClientProperties@@YAXPAVDirectory@@@Z 00435e10 f   metaserver.obj
 0001:00034eb0       ?MetaServer_GetClientProperties@@YAPAVDirectory@@XZ 00435eb0 f   metaserver.obj
 0001:00035120       ?MetaServer_StartRegisteringOverWAN@@YAXXZ 00436120 f   metaserver.obj
 0001:00035150       ?MetaServer_StopRegisteringOverWAN@@YAXXZ 00436150 f   metaserver.obj
 0001:00035210       ?MetaServer_StartRegisteringOverLAN@@YAXXZ 00436210 f   metaserver.obj
 0001:000352d0       ?MetaServer_StopRegisteringOverLAN@@YAXXZ 004362d0 f   metaserver.obj
 0001:000352f0       ?MetaServer_IsRegisteringOverWAN@@YA_NXZ 004362f0 f   metaserver.obj
 0001:00035310       ?MetaServer_IsRegisteringOverLAN@@YA_NXZ 00436310 f   metaserver.obj
 0001:00035320       ?MetaServer_RequestServerListWAN@@YAXXZ 00436320 f   metaserver.obj
 0001:00035410       ?MetaServer_RequestServerDetails@@YAXPADH@Z 00436410 f   metaserver.obj
 0001:000354c0       ?MetaServer_HasReceivedListWAN@@YA_NXZ 004364c0 f   metaserver.obj
 0001:000354d0       ?MetaServer_GetNumServers@@YAH_N0@Z 004364d0 f   metaserver.obj
 0001:00035570       ?MetaServer_ClearServerList@@YAXXZ 00436570 f   metaserver.obj
 0001:00035590       ?MetaServer_UpdateServerList@@YAXPADH_NPAVDirectory@@@Z 00436590 f   metaserver.obj
 0001:00035820       ?MetaServer_SetServerTTL@@YAXH@Z 00436820 f   metaserver.obj
 0001:00035830       ?MetaServer_GetServer@@YAPAVDirectory@@PADH_N@Z 00436830 f   metaserver.obj
 0001:00035920       ?MetaServer_PurgeServerList@@YAXXZ 00436920 f   metaserver.obj
 0001:000359b0       ?MetaServer_GetServerList@@YAPAV?$LList@PAVDirectory@@@@_N00H@Z 004369b0 f   metaserver.obj
 0001:00035ae0       ?MetaServer_SetAuthenticationStatus@@YAXPADHH@Z 00436ae0 f   metaserver.obj
 0001:00035b80       ?MetaServer_RequestData@@YAPAVDirectory@@PAD@Z 00436b80 f   metaserver.obj
 0001:00035e80       ?MetaServer_RemoveData@@YAXPAD@Z 00436e80 f   metaserver.obj
 0001:00035f00       ?MetaServer_GetServerTTL@@YAHXZ 00436f00 f   metaserver.obj
 0001:00035f70       ?MetaServer_BytesSent@@YAHXZ 00436f70 f   metaserver.obj
 0001:00035f80       ?GetServerSortScore@@YAHPAUGameServer@@@Z 00436f80 f   metaserver.obj
 0001:00036050       ?MetaServer_GraduallySortList@@YAXXZ 00437050 f   metaserver.obj
 0001:000360e0       ?MetaServer_DelistServers@@YAXPAD@Z 004370e0 f   metaserver.obj
 0001:00036190       ??0?$LList@PAUGameServer@@@@QAE@XZ 00437190 f i metaserver.obj
 0001:000361c0       ??1?$LList@PAUGameServer@@@@QAE@XZ 004371c0 f i metaserver.obj
 0001:000361d0       ?PutData@?$LList@PAUGameServer@@@@QAEXABQAUGameServer@@@Z 004371d0 f i metaserver.obj
 0001:000361e0       ?PutDataAtIndex@?$LList@PAUGameServer@@@@QAEXABQAUGameServer@@H@Z 004371e0 f i metaserver.obj
 0001:00036270       ?RemoveData@?$LList@PAUGameServer@@@@QAEXH@Z 00437270 f i metaserver.obj
 0001:00036340       ?Size@?$LList@PAUGameServer@@@@QBEHXZ 00437340 f i metaserver.obj
 0001:00036350       ?EmptyAndDelete@?$LList@PAUGameServer@@@@QAEXXZ 00437350 f i metaserver.obj
 0001:00036390       ??A?$LList@PAUGameServer@@@@QAEPAUGameServer@@H@Z 00437390 f i metaserver.obj
 0001:000363a0       ??0?$LList@PAUMetaServerData@@@@QAE@XZ 004373a0 f i metaserver.obj
 0001:000363d0       ??1?$LList@PAUMetaServerData@@@@QAE@XZ 004373d0 f i metaserver.obj
 0001:000363e0       ?PutData@?$LList@PAUMetaServerData@@@@QAEXABQAUMetaServerData@@@Z 004373e0 f i metaserver.obj
 0001:000363f0       ?RemoveData@?$LList@PAUMetaServerData@@@@QAEXH@Z 004373f0 f i metaserver.obj
 0001:000364c0       ?Size@?$LList@PAUMetaServerData@@@@QBEHXZ 004374c0 f i metaserver.obj
 0001:000364d0       ??A?$LList@PAUMetaServerData@@@@QAEPAUMetaServerData@@H@Z 004374d0 f i metaserver.obj
 0001:000364e0       ??0?$LList@PAVDirectory@@@@QAE@XZ 004374e0 f i metaserver.obj
 0001:00036500       ??_G?$LListItem@PAUGameServer@@@@QAEPAXI@Z 00437500 f i metaserver.obj
 0001:00036510       ??_G?$LListItem@PAUMetaServerData@@@@QAEPAXI@Z 00437510 f i metaserver.obj
 0001:00036520       ?GetItem@?$LList@PAUGameServer@@@@IBEPAV?$LListItem@PAUGameServer@@@@H@Z 00437520 f i metaserver.obj
 0001:000365d0       ?PutDataAtEnd@?$LList@PAUGameServer@@@@QAEXABQAUGameServer@@@Z 004375d0 f i metaserver.obj
 0001:00036640       ?PutDataAtStart@?$LList@PAUGameServer@@@@QAEXABQAUGameServer@@@Z 00437640 f i metaserver.obj
 0001:000366d0       ?GetData@?$LList@PAUGameServer@@@@QBEPAUGameServer@@H@Z 004376d0 f i metaserver.obj
 0001:000366e0       ?Empty@?$LList@PAUGameServer@@@@QAEXXZ 004376e0 f i metaserver.obj
 0001:00036730       ??0?$LListItem@PAUGameServer@@@@QAE@XZ 00437730 f i metaserver.obj
 0001:00036740       ??1?$LListItem@PAUGameServer@@@@QAE@XZ 00437740 f i metaserver.obj
 0001:00036750       ?GetItem@?$LList@PAUMetaServerData@@@@IBEPAV?$LListItem@PAUMetaServerData@@@@H@Z 00437750 f i metaserver.obj
 0001:00036800       ?PutDataAtEnd@?$LList@PAUMetaServerData@@@@QAEXABQAUMetaServerData@@@Z 00437800 f i metaserver.obj
 0001:00036870       ?GetData@?$LList@PAUMetaServerData@@@@QBEPAUMetaServerData@@H@Z 00437870 f i metaserver.obj
 0001:00036880       ?Empty@?$LList@PAUMetaServerData@@@@QAEXXZ 00437880 f i metaserver.obj
 0001:000368d0       ??1?$LListItem@PAUMetaServerData@@@@QAE@XZ 004378d0 f i metaserver.obj
 0001:000368e0       ?ValidIndex@?$LList@PAUGameServer@@@@QBE_NH@Z 004378e0 f i metaserver.obj
 0001:00036900       ?ValidIndex@?$LList@PAUMetaServerData@@@@QBE_NH@Z 00437900 f i metaserver.obj
 0001:00036920       ??0?$LListItem@PAUMetaServerData@@@@QAE@XZ 00437920 f i metaserver.obj
 0001:00036930       ??0SoundBlueprintManager@@QAE@XZ 00437930 f   sound_blueprint_manager.obj
 0001:00036950       ??1SoundBlueprintManager@@QAE@XZ 00437950 f   sound_blueprint_manager.obj
 0001:00036990       ?GetBlueprint@SoundBlueprintManager@@QAEPAVSoundEventBlueprint@@PAD@Z 00437990 f   sound_blueprint_manager.obj
 0001:000369e0       ??0SoundEventBlueprint@@QAE@XZ 004379e0 f i sound_blueprint_manager.obj
 0001:000369f0       ?GetDspBlueprint@SoundBlueprintManager@@QAEPAVDspBlueprint@@H@Z 004379f0 f   sound_blueprint_manager.obj
 0001:00036a20       ?ClearAll@SoundBlueprintManager@@QAEXXZ 00437a20 f   sound_blueprint_manager.obj
 0001:00036a70       ?LoadEffects@SoundBlueprintManager@@QAEXXZ 00437a70 f   sound_blueprint_manager.obj
 0001:00036c40       ??0DspBlueprint@@QAE@XZ    00437c40 f i sound_blueprint_manager.obj
 0001:00036c50       ?AreBlueprintsModified@SoundBlueprintManager@@QAE_NXZ 00437c50 f   sound_blueprint_manager.obj
 0001:00036c60       ?LoadBlueprints@SoundBlueprintManager@@QAEXXZ 00437c60 f   sound_blueprint_manager.obj
 0001:00036da0       ?SaveBlueprints@SoundBlueprintManager@@QAEXXZ 00437da0 f   sound_blueprint_manager.obj
 0001:00036f30       ?ParseSoundInstanceBlueprint@SoundBlueprintManager@@IAEXPAVTextReader@@PADPAVSoundEventBlueprint@@@Z 00437f30 f   sound_blueprint_manager.obj
 0001:000372a0       ?ParseSoundEffect@SoundBlueprintManager@@IAEXPAVTextReader@@PAVSoundInstance@@@Z 004382a0 f   sound_blueprint_manager.obj
 0001:000373c0       ?ParseSampleGroup@SoundBlueprintManager@@IAEXPAVTextReader@@PAVSampleGroup@@@Z 004383c0 f   sound_blueprint_manager.obj
 0001:00037430       ?WriteSoundInstanceBlueprint@SoundBlueprintManager@@IAEXPAVTextFileWriter@@PAVSoundInstanceBlueprint@@@Z 00438430 f   sound_blueprint_manager.obj
 0001:000376e0       ?WriteSampleGroup@SoundBlueprintManager@@IAEXPAVTextFileWriter@@PAVSampleGroup@@@Z 004386e0 f   sound_blueprint_manager.obj
 0001:00037730       ?GetSampleGroup@SoundBlueprintManager@@QAEPAVSampleGroup@@PAD@Z 00438730 f   sound_blueprint_manager.obj
 0001:00037780       ?NewSampleGroup@SoundBlueprintManager@@QAEPAVSampleGroup@@PAD@Z 00438780 f   sound_blueprint_manager.obj
 0001:00037850       ??0SampleGroup@@QAE@XZ     00438850 f i sound_blueprint_manager.obj
 0001:00037860       ?RenameSampleGroup@SoundBlueprintManager@@QAE_NPAD0@Z 00438860 f   sound_blueprint_manager.obj
 0001:00037970       ?IsSampleUsed@SoundBlueprintManager@@QAE_NPBD@Z 00438970 f   sound_blueprint_manager.obj
 0001:00037ac0       ?LoadtimeVerify@SoundBlueprintManager@@QAEXXZ 00438ac0 f   sound_blueprint_manager.obj
 0001:00037ad0       ?IsSoundSourceOK@SoundBlueprintManager@@QAEPBDPBD@Z 00438ad0 f   sound_blueprint_manager.obj
 0001:00037ae0       ?GetParameter@DspBlueprint@@QAEPADHPAM00PAH@Z 00438ae0 f   sound_blueprint_manager.obj
 0001:00037b50       ?SetName@SampleGroup@@QAEXPAD@Z 00438b50 f   sound_blueprint_manager.obj
 0001:00037b60       ?AddSample@SampleGroup@@QAEXPAD@Z 00438b60 f   sound_blueprint_manager.obj
 0001:00037b90       ??0?$HashTable@PAVSoundEventBlueprint@@@@QAE@XZ 00438b90 f i sound_blueprint_manager.obj
 0001:00037c10       ??1?$HashTable@PAVSoundEventBlueprint@@@@QAE@XZ 00438c10 f i sound_blueprint_manager.obj
 0001:00037c30       ?PutData@?$HashTable@PAVSoundEventBlueprint@@@@QAEHPBDABQAVSoundEventBlueprint@@@Z 00438c30 f i sound_blueprint_manager.obj
 0001:00037ca0       ?GetData@?$HashTable@PAVSoundEventBlueprint@@@@QBEPAVSoundEventBlueprint@@I@Z 00438ca0 f i sound_blueprint_manager.obj
 0001:00037cb0       ?GetData@?$HashTable@PAVSoundEventBlueprint@@@@QBEPAVSoundEventBlueprint@@PBDABQAV2@@Z 00438cb0 f i sound_blueprint_manager.obj
 0001:00037ce0       ?EmptyAndDelete@?$HashTable@PAVSoundEventBlueprint@@@@QAEXXZ 00438ce0 f i sound_blueprint_manager.obj
 0001:00037d20       ?ValidIndex@?$HashTable@PAVSoundEventBlueprint@@@@QBE_NI@Z 00438d20 f i sound_blueprint_manager.obj
 0001:00037d30       ?Size@?$HashTable@PAVSoundEventBlueprint@@@@QBEIXZ 00438d30 f i sound_blueprint_manager.obj
 0001:00037d40       ??A?$HashTable@PAVSoundEventBlueprint@@@@QBEPAVSoundEventBlueprint@@I@Z 00438d40 f i sound_blueprint_manager.obj
 0001:00037d50       ?GetName@?$HashTable@PAVSoundEventBlueprint@@@@QBEPBDI@Z 00438d50 f i sound_blueprint_manager.obj
 0001:00037d60       ??0?$DArray@PAVDspBlueprint@@@@QAE@XZ 00438d60 f i sound_blueprint_manager.obj
 0001:00037d80       ??1?$DArray@PAVDspBlueprint@@@@QAE@XZ 00438d80 f i sound_blueprint_manager.obj
 0001:00037d90       ?SetSize@?$DArray@PAVDspBlueprint@@@@QAEXH@Z 00438d90 f i sound_blueprint_manager.obj
 0001:00037e90       ?PutData@?$DArray@PAVDspBlueprint@@@@QAEHABQAVDspBlueprint@@@Z 00438e90 f i sound_blueprint_manager.obj
 0001:00037ee0       ?Size@?$DArray@PAVDspBlueprint@@@@QBEHXZ 00438ee0 f i sound_blueprint_manager.obj
 0001:00037ef0       ?ValidIndex@?$DArray@PAVDspBlueprint@@@@QBE_NH@Z 00438ef0 f i sound_blueprint_manager.obj
 0001:00037f10       ?EmptyAndDelete@?$DArray@PAVDspBlueprint@@@@QAEXXZ 00438f10 f i sound_blueprint_manager.obj
 0001:00037f70       ??A?$DArray@PAVDspBlueprint@@@@QAEAAPAVDspBlueprint@@H@Z 00438f70 f i sound_blueprint_manager.obj
 0001:00037fc0       ??0?$LList@PAVSampleGroup@@@@QAE@XZ 00438fc0 f i sound_blueprint_manager.obj
 0001:00037fe0       ??1?$LList@PAVSampleGroup@@@@QAE@XZ 00438fe0 f i sound_blueprint_manager.obj
 0001:00037ff0       ?PutData@?$LList@PAVSampleGroup@@@@QAEXABQAVSampleGroup@@@Z 00438ff0 f i sound_blueprint_manager.obj
 0001:00038000       ?Size@?$LList@PAVSampleGroup@@@@QBEHXZ 00439000 f i sound_blueprint_manager.obj
 0001:00038010       ?ValidIndex@?$LList@PAVSampleGroup@@@@QBE_NH@Z 00439010 f i sound_blueprint_manager.obj
 0001:00038030       ?EmptyAndDelete@?$LList@PAVSampleGroup@@@@QAEXXZ 00439030 f i sound_blueprint_manager.obj
 0001:00038080       ??A?$LList@PAVSampleGroup@@@@QAEPAVSampleGroup@@H@Z 00439080 f i sound_blueprint_manager.obj
 0001:00038090       ??0?$LList@PAVSoundInstanceBlueprint@@@@QAE@XZ 00439090 f i sound_blueprint_manager.obj
 0001:000380b0       ??1?$LList@PAVSoundInstanceBlueprint@@@@QAE@XZ 004390b0 f i sound_blueprint_manager.obj
 0001:000380c0       ?PutData@?$LList@PAVSoundInstanceBlueprint@@@@QAEXABQAVSoundInstanceBlueprint@@@Z 004390c0 f i sound_blueprint_manager.obj
 0001:000380d0       ?Size@?$LList@PAVSoundInstanceBlueprint@@@@QBEHXZ 004390d0 f i sound_blueprint_manager.obj
 0001:000380e0       ?ValidIndex@?$LList@PAVSoundInstanceBlueprint@@@@QBE_NH@Z 004390e0 f i sound_blueprint_manager.obj
 0001:00038100       ?EmptyAndDelete@?$LList@PAVSoundInstanceBlueprint@@@@QAEXXZ 00439100 f i sound_blueprint_manager.obj
 0001:00038140       ??A?$LList@PAVSoundInstanceBlueprint@@@@QAEPAVSoundInstanceBlueprint@@H@Z 00439140 f i sound_blueprint_manager.obj
 0001:00038150       ??0?$DArray@PAVDspParameterBlueprint@@@@QAE@XZ 00439150 f i sound_blueprint_manager.obj
 0001:00038170       ??1?$DArray@PAVDspParameterBlueprint@@@@QAE@XZ 00439170 f i sound_blueprint_manager.obj
 0001:00038180       ?PutData@?$DArray@PAVDspParameterBlueprint@@@@QAEHABQAVDspParameterBlueprint@@@Z 00439180 f i sound_blueprint_manager.obj
 0001:000381d0       ?ValidIndex@?$DArray@PAVDspParameterBlueprint@@@@QBE_NH@Z 004391d0 f i sound_blueprint_manager.obj
 0001:000381f0       ??A?$DArray@PAVDspParameterBlueprint@@@@QAEAAPAVDspParameterBlueprint@@H@Z 004391f0 f i sound_blueprint_manager.obj
 0001:00038240       ?PutData@?$LList@PAVDspHandle@@@@QAEXABQAVDspHandle@@@Z 00439240 f i sound_blueprint_manager.obj
 0001:00038250       ?Size@?$LList@PAVDspHandle@@@@QBEHXZ 00439250 f i sound_blueprint_manager.obj
 0001:00038260       ??A?$LList@PAVDspHandle@@@@QAEPAVDspHandle@@H@Z 00439260 f i sound_blueprint_manager.obj
 0001:00038270       ??_GSoundEventBlueprint@@QAEPAXI@Z 00439270 f i sound_blueprint_manager.obj
 0001:00038290       ??_GDspBlueprint@@QAEPAXI@Z 00439290 f i sound_blueprint_manager.obj
 0001:000382b0       ??_GSampleGroup@@QAEPAXI@Z 004392b0 f i sound_blueprint_manager.obj
 0001:000382d0       ??1SoundEventBlueprint@@QAE@XZ 004392d0 f i sound_blueprint_manager.obj
 0001:000382e0       ??1DspBlueprint@@QAE@XZ    004392e0 f i sound_blueprint_manager.obj
 0001:000382f0       ??1SampleGroup@@QAE@XZ     004392f0 f i sound_blueprint_manager.obj
 0001:00038300       ?Grow@?$HashTable@PAVSoundEventBlueprint@@@@IAEXXZ 00439300 f i sound_blueprint_manager.obj
 0001:00038400       ?GetInsertPos@?$HashTable@PAVSoundEventBlueprint@@@@IBEIPBD@Z 00439400 f i sound_blueprint_manager.obj
 0001:00038470       ?GetIndex@?$HashTable@PAVSoundEventBlueprint@@@@QBEHPBD@Z 00439470 f i sound_blueprint_manager.obj
 0001:000384d0       ?Empty@?$HashTable@PAVSoundEventBlueprint@@@@QAEXXZ 004394d0 f i sound_blueprint_manager.obj
 0001:00038520       ?Grow@?$DArray@PAVDspBlueprint@@@@IAEXXZ 00439520 f i sound_blueprint_manager.obj
 0001:00038550       ?Empty@?$DArray@PAVDspBlueprint@@@@QAEXXZ 00439550 f i sound_blueprint_manager.obj
 0001:00038580       ?PutDataAtEnd@?$LList@PAVSampleGroup@@@@QAEXABQAVSampleGroup@@@Z 00439580 f i sound_blueprint_manager.obj
 0001:000385e0       ?GetData@?$LList@PAVSampleGroup@@@@QBEPAVSampleGroup@@H@Z 004395e0 f i sound_blueprint_manager.obj
 0001:000385f0       ?RemoveData@?$LList@PAVSampleGroup@@@@QAEXH@Z 004395f0 f i sound_blueprint_manager.obj
 0001:00038670       ?Empty@?$LList@PAVSampleGroup@@@@QAEXXZ 00439670 f i sound_blueprint_manager.obj
 0001:000386b0       ?PutDataAtEnd@?$LList@PAVSoundInstanceBlueprint@@@@QAEXABQAVSoundInstanceBlueprint@@@Z 004396b0 f i sound_blueprint_manager.obj
 0001:00038710       ?GetData@?$LList@PAVSoundInstanceBlueprint@@@@QBEPAVSoundInstanceBlueprint@@H@Z 00439710 f i sound_blueprint_manager.obj
 0001:00038720       ?RemoveData@?$LList@PAVSoundInstanceBlueprint@@@@QAEXH@Z 00439720 f i sound_blueprint_manager.obj
 0001:000387d0       ?Empty@?$LList@PAVSoundInstanceBlueprint@@@@QAEXXZ 004397d0 f i sound_blueprint_manager.obj
 0001:00038810       ?Grow@?$DArray@PAVDspParameterBlueprint@@@@IAEXXZ 00439810 f i sound_blueprint_manager.obj
 0001:00038840       ?Empty@?$DArray@PAVDspParameterBlueprint@@@@QAEXXZ 00439840 f i sound_blueprint_manager.obj
 0001:00038870       ?PutDataAtEnd@?$LList@PAVDspHandle@@@@QAEXABQAVDspHandle@@@Z 00439870 f i sound_blueprint_manager.obj
 0001:000388d0       ?GetData@?$LList@PAVDspHandle@@@@QBEPAVDspHandle@@H@Z 004398d0 f i sound_blueprint_manager.obj
 0001:000388e0       ??_G?$LListItem@PAVSampleGroup@@@@QAEPAXI@Z 004398e0 f i sound_blueprint_manager.obj
 0001:000388f0       ??_G?$LListItem@PAVSoundInstanceBlueprint@@@@QAEPAXI@Z 004398f0 f i sound_blueprint_manager.obj
 0001:00038900       ?HashFunc@?$HashTable@PAVSoundEventBlueprint@@@@IBEIPBD@Z 00439900 f i sound_blueprint_manager.obj
 0001:00038980       ?DumpKeys@?$HashTable@PAVSoundEventBlueprint@@@@QBEXXZ 00439980 f i sound_blueprint_manager.obj
 0001:000389e0       ?GetItem@?$LList@PAVSampleGroup@@@@IBEPAV?$LListItem@PAVSampleGroup@@@@H@Z 004399e0 f i sound_blueprint_manager.obj
 0001:00038a70       ??0?$LListItem@PAVSampleGroup@@@@QAE@XZ 00439a70 f i sound_blueprint_manager.obj
 0001:00038a80       ??1?$LListItem@PAVSampleGroup@@@@QAE@XZ 00439a80 f i sound_blueprint_manager.obj
 0001:00038a90       ?GetItem@?$LList@PAVSoundInstanceBlueprint@@@@IBEPAV?$LListItem@PAVSoundInstanceBlueprint@@@@H@Z 00439a90 f i sound_blueprint_manager.obj
 0001:00038b20       ??0?$LListItem@PAVSoundInstanceBlueprint@@@@QAE@XZ 00439b20 f i sound_blueprint_manager.obj
 0001:00038b30       ??1?$LListItem@PAVSoundInstanceBlueprint@@@@QAE@XZ 00439b30 f i sound_blueprint_manager.obj
 0001:00038b40       ?SetSize@?$DArray@PAVDspParameterBlueprint@@@@QAEXH@Z 00439b40 f i sound_blueprint_manager.obj
 0001:00038c40       ?GetItem@?$LList@PAVDspHandle@@@@IBEPAV?$LListItem@PAVDspHandle@@@@H@Z 00439c40 f i sound_blueprint_manager.obj
 0001:00038cd0       ??0?$LListItem@PAVDspHandle@@@@QAE@XZ 00439cd0 f i sound_blueprint_manager.obj
 0001:00038ce0       ?ValidIndex@?$LList@PAVDspHandle@@@@QBE_NH@Z 00439ce0 f i sound_blueprint_manager.obj
 0001:00038cf0       ??0DspEffect@@QAE@H@Z      00439cf0 f i sound_filter.obj
 0001:00038d00       ??1DspEffect@@UAE@XZ       00439d00 f i sound_filter.obj
 0001:00038d10       ??_GDspEffect@@UAEPAXI@Z   00439d10 f i sound_filter.obj
 0001:00038d10       ??_EDspEffect@@UAEPAXI@Z   00439d10 f i  CIL library: CIL module
 0001:00038d40       ??0DspResLowPass@@QAE@H@Z  00439d40 f   sound_filter.obj
 0001:00038d90       ??_EDspResLowPass@@UAEPAXI@Z 00439d90 f i  CIL library: CIL module
 0001:00038d90       ??_GDspResLowPass@@UAEPAXI@Z 00439d90 f i sound_filter.obj
 0001:00038dc0       ??1DspResLowPass@@UAE@XZ   00439dc0 f i sound_filter.obj
 0001:00038dd0       ?CalcCoefs@DspResLowPass@@IAEXMMM@Z 00439dd0 f   sound_filter.obj
 0001:00038ee0       ?SetParameters@DspResLowPass@@UAEXPBM@Z 00439ee0 f   sound_filter.obj
 0001:00038f60       ?Process@DspResLowPass@@UAEXPAFI@Z 00439f60 f   sound_filter.obj
 0001:000390c0       ??0DspBitCrusher@@QAE@H@Z  0043a0c0 f   sound_filter.obj
 0001:000390e0       ??_EDspBitCrusher@@UAEPAXI@Z 0043a0e0 f i  CIL library: CIL module
 0001:000390e0       ??_GDspBitCrusher@@UAEPAXI@Z 0043a0e0 f i sound_filter.obj
 0001:00039110       ??1DspBitCrusher@@UAE@XZ   0043a110 f i sound_filter.obj
 0001:00039120       ?SetParameters@DspBitCrusher@@UAEXPBM@Z 0043a120 f   sound_filter.obj
 0001:00039130       ?Process@DspBitCrusher@@UAEXPAFI@Z 0043a130 f   sound_filter.obj
 0001:000391d0       ??0DspGargle@@QAE@H@Z      0043a1d0 f   sound_filter.obj
 0001:00039200       ??_EDspGargle@@UAEPAXI@Z   0043a200 f i  CIL library: CIL module
 0001:00039200       ??_GDspGargle@@UAEPAXI@Z   0043a200 f i sound_filter.obj
 0001:00039230       ??1DspGargle@@UAE@XZ       0043a230 f i sound_filter.obj
 0001:00039240       ?ProcessTriangle@DspGargle@@IAEXPAFI@Z 0043a240 f   sound_filter.obj
 0001:00039330       ?ProcessSquare@DspGargle@@IAEXPAFI@Z 0043a330 f   sound_filter.obj
 0001:000393d0       ?Process@DspGargle@@UAEXPAFI@Z 0043a3d0 f   sound_filter.obj
 0001:00039410       ?SetParameters@DspGargle@@UAEXPBM@Z 0043a410 f   sound_filter.obj
 0001:00039430       ??0DspEcho@@QAE@H@Z        0043a430 f   sound_filter.obj
 0001:00039500       ??_GDspEcho@@UAEPAXI@Z     0043a500 f i sound_filter.obj
 0001:00039500       ??_EDspEcho@@UAEPAXI@Z     0043a500 f i  CIL library: CIL module
 0001:00039530       ??1DspEcho@@UAE@XZ         0043a530 f   sound_filter.obj
 0001:00039550       ?SetParameters@DspEcho@@UAEXPBM@Z 0043a550 f   sound_filter.obj
 0001:000395c0       ?Process@DspEcho@@UAEXPAFI@Z 0043a5c0 f   sound_filter.obj
 0001:000396f0       ??0DspReverb@@QAE@H@Z      0043a6f0 f   sound_filter.obj
 0001:00039820       ??_EDspReverb@@UAEPAXI@Z   0043a820 f i  CIL library: CIL module
 0001:00039820       ??_GDspReverb@@UAEPAXI@Z   0043a820 f i sound_filter.obj
 0001:00039850       ??1DspReverb@@UAE@XZ       0043a850 f   sound_filter.obj
 0001:00039870       ?SetParameters@DspReverb@@UAEXPBM@Z 0043a870 f   sound_filter.obj
 0001:00039880       ?Process@DspReverb@@UAEXPAFI@Z 0043a880 f   sound_filter.obj
 0001:00039990       ??0DspSmoother@@QAE@H@Z    0043a990 f   sound_filter.obj
 0001:000399a0       ??_EDspSmoother@@UAEPAXI@Z 0043a9a0 f i  CIL library: CIL module
 0001:000399a0       ??_GDspSmoother@@UAEPAXI@Z 0043a9a0 f i sound_filter.obj
 0001:000399d0       ??1DspSmoother@@UAE@XZ     0043a9d0 f i sound_filter.obj
 0001:000399e0       ?SetParameters@DspSmoother@@UAEXPBM@Z 0043a9e0 f   sound_filter.obj
 0001:000399f0       ?Process@DspSmoother@@UAEXPAFI@Z 0043a9f0 f   sound_filter.obj
 0001:00039af0       _powf                      0043aaf0 f i sound_filter.obj
 0001:00039b10       _expf                      0043ab10 f i sound_filter.obj
 0001:00039b30       ??0DspHandle@@QAE@XZ       0043ab30 f   sound_instance.obj
 0001:00039b60       ?Copy@DspHandle@@QAEXPAV1@@Z 0043ab60 f   sound_instance.obj
 0001:00039bc0       ?Initialise@DspHandle@@QAEXPAVSoundInstance@@@Z 0043abc0 f   sound_instance.obj
 0001:00039bd0       ?Advance@DspHandle@@QAEXXZ 0043abd0 f   sound_instance.obj
 0001:00039cb0       ??0SoundInstanceId@@QAE@XZ 0043acb0 f   sound_instance.obj
 0001:00039cc0       ?GenerateUniqueId@SoundInstanceId@@SAHXZ 0043acc0 f   sound_instance.obj
 0001:00039cd0       ?SetInvalid@SoundInstanceId@@QAEXXZ 0043acd0 f   sound_instance.obj
 0001:00039ce0       ??8SoundInstanceId@@QBE_NABV0@@Z 0043ace0 f   sound_instance.obj
 0001:00039d00       ??4SoundInstanceId@@QAEABV0@ABV0@@Z 0043ad00 f   sound_instance.obj
 0001:00039d10       ??0SoundInstance@@QAE@XZ   0043ad10 f   sound_instance.obj
 0001:00039ec0       ??1SoundInstance@@QAE@XZ   0043aec0 f   sound_instance.obj
 0001:00039f90       ??_GSoundSampleHandle@@QAEPAXI@Z 0043af90 f i sound_instance.obj
 0001:00039fb0       ?SetSoundName@SoundInstance@@QAEXPBD@Z 0043afb0 f   sound_instance.obj
 0001:00039fd0       ?SetEventName@SoundInstance@@QAEXPBD0@Z 0043afd0 f   sound_instance.obj
 0001:0003a070       ?GetPositionTypeName@SoundInstance@@SAPADH@Z 0043b070 f   sound_instance.obj
 0001:0003a080       ?GetInstanceTypeName@SoundInstance@@SAPADH@Z 0043b080 f   sound_instance.obj
 0001:0003a090       ?GetLoopTypeName@SoundInstance@@SAPADH@Z 0043b090 f   sound_instance.obj
 0001:0003a0a0       ?GetSourceTypeName@SoundInstance@@SAPADH@Z 0043b0a0 f   sound_instance.obj
 0001:0003a0b0       ?Copy@SoundInstance@@QAEXPAV1@@Z 0043b0b0 f   sound_instance.obj
 0001:0003a290       ?PropagateBlueprints@SoundInstance@@QAEX_N@Z 0043b290 f   sound_instance.obj
 0001:0003a5e0       ?UpdateChannelVolume@SoundInstance@@QAE_NXZ 0043b5e0 f   sound_instance.obj
 0001:0003a8d0       ?BeginRelease@SoundInstance@@QAEX_N@Z 0043b8d0 f   sound_instance.obj
 0001:0003a960       ?OpenStream@SoundInstance@@QAEX_N@Z 0043b960 f   sound_instance.obj
 0001:0003aa90       ?IsPlayable@SoundInstance@@QAE_NXZ 0043ba90 f   sound_instance.obj
 0001:0003aac0       ?AdvanceLoop@SoundInstance@@QAE_NXZ 0043bac0 f   sound_instance.obj
 0001:0003ac00       ?StartPlaying@SoundInstance@@QAE_NH@Z 0043bc00 f   sound_instance.obj
 0001:0003ae30       ?Advance@SoundInstance@@QAE_NXZ 0043be30 f   sound_instance.obj
 0001:0003aef0       ?Update3DPosition@SoundInstance@@QAE_NXZ 0043bef0 f   sound_instance.obj
 0001:0003b0d0       ?ForceParameter@SoundInstance@@QAEXAAVSoundParameter@@M@Z 0043c0d0 f   sound_instance.obj
 0001:0003b0e0       ?UpdateParameter@SoundInstance@@QAE_NAAVSoundParameter@@@Z 0043c0e0 f   sound_instance.obj
 0001:0003b160       ?StopPlaying@SoundInstance@@QAEXXZ 0043c160 f   sound_instance.obj
 0001:0003b200       ?IsPlaying@SoundInstance@@QAE_NXZ 0043c200 f   sound_instance.obj
 0001:0003b210       ?GetChannelIndex@SoundInstance@@QAEHXZ 0043c210 f   sound_instance.obj
 0001:0003b250       ?CalculatePerceivedVolume@SoundInstance@@QAEXXZ 0043c250 f   sound_instance.obj
 0001:0003b390       ?GetAttachedObject@SoundInstance@@QAE?AVSoundObjectId@@XZ 0043c390 f   sound_instance.obj
 0001:0003b5d0       ?GetTimeRemaining@SoundInstance@@QAEMXZ 0043c5d0 f   sound_instance.obj
 0001:0003b620       ?GetDescriptor@SoundInstance@@QAEPADXZ 0043c620 f   sound_instance.obj
 0001:0003b7f0       ?ZeroVector@?$Vector3@M@@SA?BV1@XZ 0043c7f0 f i sound_instance.obj
 0001:0003b800       ??0?$LList@VSoundObjectId@@@@QAE@XZ 0043c800 f i sound_instance.obj
 0001:0003b820       ??1?$LList@VSoundObjectId@@@@QAE@XZ 0043c820 f i sound_instance.obj
 0001:0003b830       ?GetPointer@?$LList@VSoundObjectId@@@@QBEPAVSoundObjectId@@H@Z 0043c830 f i sound_instance.obj
 0001:0003b840       ?RemoveData@?$LList@VSoundObjectId@@@@QAEXH@Z 0043c840 f i sound_instance.obj
 0001:0003b8f0       ?Size@?$LList@VSoundObjectId@@@@QBEHXZ 0043c8f0 f i sound_instance.obj
 0001:0003b900       ?Empty@?$LList@VSoundObjectId@@@@QAEXXZ 0043c900 f i sound_instance.obj
 0001:0003b940       ??0?$LList@PAVDspHandle@@@@QAE@XZ 0043c940 f i sound_instance.obj
 0001:0003b960       ??1?$LList@PAVDspHandle@@@@QAE@XZ 0043c960 f i sound_instance.obj
 0001:0003b970       ?RemoveData@?$LList@PAVDspHandle@@@@QAEXH@Z 0043c970 f i sound_instance.obj
 0001:0003ba20       ?EmptyAndDelete@?$LList@PAVDspHandle@@@@QAEXXZ 0043ca20 f i sound_instance.obj
 0001:0003ba60       ??_G?$LListItem@VSoundObjectId@@@@QAEPAXI@Z 0043ca60 f i sound_instance.obj
 0001:0003ba70       ??_G?$LListItem@PAVDspHandle@@@@QAEPAXI@Z 0043ca70 f i sound_instance.obj
 0001:0003ba80       ?GetItem@?$LList@VSoundObjectId@@@@IBEPAV?$LListItem@VSoundObjectId@@@@H@Z 0043ca80 f i sound_instance.obj
 0001:0003bb10       ??1?$LListItem@VSoundObjectId@@@@QAE@XZ 0043cb10 f i sound_instance.obj
 0001:0003bb20       ?Empty@?$LList@PAVDspHandle@@@@QAEXXZ 0043cb20 f i sound_instance.obj
 0001:0003bb60       ??1?$LListItem@PAVDspHandle@@@@QAE@XZ 0043cb60 f i sound_instance.obj
 0001:0003bb70       ?ValidIndex@?$LList@VSoundObjectId@@@@QBE_NH@Z 0043cb70 f i sound_instance.obj
 0001:0003bb90       ??0SoundLibrary2d@@QAE@XZ  0043cb90 f   sound_library_2d.obj
 0001:0003bba0       ??_ESoundLibrary2d@@UAEPAXI@Z 0043cba0 f i  CIL library: CIL module
 0001:0003bba0       ??_GSoundLibrary2d@@UAEPAXI@Z 0043cba0 f i sound_library_2d.obj
 0001:0003bbd0       ??1SoundLibrary2d@@UAE@XZ  0043cbd0 f   sound_library_2d.obj
 0001:0003bbf0       ?StartRecordToFile@SoundLibrary3d@@UAEXPBD@Z 0043cbf0 f i sound_library_3d.obj
 0001:0003bc00       ?EndRecordToFile@SoundLibrary3d@@UAEXXZ 0043cc00 f i sound_library_3d.obj
 0001:0003bc10       ??0SoundLibrary3d@@QAE@XZ  0043cc10 f   sound_library_3d.obj
 0001:0003bc40       ??_GSoundLibrary3d@@UAEPAXI@Z 0043cc40 f i sound_library_3d.obj
 0001:0003bc40       ??_ESoundLibrary3d@@UAEPAXI@Z 0043cc40 f i  CIL library: CIL module
 0001:0003bc70       ??1SoundLibrary3d@@UAE@XZ  0043cc70 f   sound_library_3d.obj
 0001:0003bc80       ?EnableCallback@SoundLibrary3d@@UAEX_N@Z 0043cc80 f   sound_library_3d.obj
 0001:0003bc90       ?SetMainCallback@SoundLibrary3d@@QAEXP6A_NIPAFIPAH@Z@Z 0043cc90 f   sound_library_3d.obj
 0001:0003bca0       ?GetSampleRate@SoundLibrary3d@@QAEHXZ 0043cca0 f   sound_library_3d.obj
 0001:0003bcb0       ?GetNumChannels@SoundLibrary3d@@QBEHXZ 0043ccb0 f   sound_library_3d.obj
 0001:0003bcc0       ?GetNumMusicChannels@SoundLibrary3d@@QBEHXZ 0043ccc0 f   sound_library_3d.obj
 0001:0003bcd0       ?SetMasterVolume@SoundLibrary3d@@UAEXH@Z 0043ccd0 f   sound_library_3d.obj
 0001:0003bd00       ?GetMasterVolume@SoundLibrary3d@@UBEHXZ 0043cd00 f   sound_library_3d.obj
 0001:0003bd20       ?SetDopplerFactor@SoundLibrary3d@@UAEXM@Z 0043cd20 f   sound_library_3d.obj
 0001:0003bd30       ?WriteSilence@SoundLibrary3d@@QAEXPAFI@Z 0043cd30 f   sound_library_3d.obj
 0001:0003bd40       ??0DirectSoundData@@QAE@XZ 0043cd40 f i sound_library_3d_dsound.obj
 0001:0003bd50       ??0SoundLibFilter@@QAE@XZ  0043cd50 f i sound_library_3d_dsound.obj
 0001:0003bd60       ??0DirectSoundChannel@@QAE@XZ 0043cd60 f   sound_library_3d_dsound.obj
 0001:0003bde0       ?UpdateSimulatedPlayCursor@DirectSoundChannel@@QAEXJ@Z 0043cde0 f   sound_library_3d_dsound.obj
 0001:0003be70       ??0SoundLibrary3dDirectSound@@QAE@XZ 0043ce70 f   sound_library_3d_dsound.obj
 0001:0003bef0       ??_GSoundLibrary3dDirectSound@@UAEPAXI@Z 0043cef0 f i sound_library_3d_dsound.obj
 0001:0003bef0       ??_ESoundLibrary3dDirectSound@@UAEPAXI@Z 0043cef0 f i  CIL library: CIL module
 0001:0003bf20       ??1SoundLibrary3dDirectSound@@UAE@XZ 0043cf20 f   sound_library_3d_dsound.obj
 0001:0003c1d0       ?CreateSecondaryBuffer@SoundLibrary3dDirectSound@@IAEPAUIDirectSoundBuffer@@HH@Z 0043d1d0 f   sound_library_3d_dsound.obj
 0001:0003c4b0       ?Initialise@SoundLibrary3dDirectSound@@UAEXHHH_N@Z 0043d4b0 f   sound_library_3d_dsound.obj
 0001:0003c9a0       ?RefreshCapabilities@SoundLibrary3dDirectSound@@IAEXXZ 0043d9a0 f   sound_library_3d_dsound.obj
 0001:0003ca60       ?DSEnumProc@@YGHPAU_GUID@@PBD1PAX@Z 0043da60 f   sound_library_3d_dsound.obj
 0001:0003cb00       ?Hardware3DSupport@SoundLibrary3dDirectSound@@UAE_NXZ 0043db00 f   sound_library_3d_dsound.obj
 0001:0003cb10       ?GetMaxChannels@SoundLibrary3dDirectSound@@UAEHXZ 0043db10 f   sound_library_3d_dsound.obj
 0001:0003cb40       ?GetCPUOverhead@SoundLibrary3dDirectSound@@UAEHXZ 0043db40 f   sound_library_3d_dsound.obj
 0001:0003cc70       ?GetChannelHealth@SoundLibrary3dDirectSound@@UAEMH@Z 0043dc70 f   sound_library_3d_dsound.obj
 0001:0003ccb0       ?GetChannelBufSize@SoundLibrary3dDirectSound@@UBEHH@Z 0043dcb0 f   sound_library_3d_dsound.obj
 0001:0003ccd0       ?GetChannelVolume@SoundLibrary3dDirectSound@@UBEMH@Z 0043dcd0 f   sound_library_3d_dsound.obj
 0001:0003cd20       ?SetChannel3DMode@SoundLibrary3dDirectSound@@UAEXHH@Z 0043dd20 f   sound_library_3d_dsound.obj
 0001:0003ce10       ?SetChannelPosition@SoundLibrary3dDirectSound@@UAEXHABV?$Vector3@M@@0@Z 0043de10 f   sound_library_3d_dsound.obj
 0001:0003d040       ?GetChannelRelFreq@SoundLibrary3dDirectSound@@UBEMH@Z 0043e040 f   sound_library_3d_dsound.obj
 0001:0003d050       ?SetChannelFrequency@SoundLibrary3dDirectSound@@UAEXHH@Z 0043e050 f   sound_library_3d_dsound.obj
 0001:0003d110       ?SetChannelMinDistance@SoundLibrary3dDirectSound@@UAEXHM@Z 0043e110 f   sound_library_3d_dsound.obj
 0001:0003d240       ?SetChannelVolume@SoundLibrary3dDirectSound@@UAEXHM@Z 0043e240 f   sound_library_3d_dsound.obj
 0001:0003d390       ?SetListenerPosition@SoundLibrary3dDirectSound@@UAEXABV?$Vector3@M@@000@Z 0043e390 f   sound_library_3d_dsound.obj
 0001:0003d600       ?SetDopplerFactor@SoundLibrary3dDirectSound@@UAEXM@Z 0043e600 f   sound_library_3d_dsound.obj
 0001:0003d730       ?CommitChanges@SoundLibrary3dDirectSound@@IAEXXZ 0043e730 f   sound_library_3d_dsound.obj
 0001:0003d860       ?PopulateBuffer@SoundLibrary3dDirectSound@@IAEXHHH@Z 0043e860 f   sound_library_3d_dsound.obj
 0001:0003da90       ?CalcWrappedDelta@SoundLibrary3dDirectSound@@IAEJJJK@Z 0043ea90 f   sound_library_3d_dsound.obj
 0001:0003dab0       ?AdvanceChannel@SoundLibrary3dDirectSound@@IAEXHH@Z 0043eab0 f   sound_library_3d_dsound.obj
 0001:0003dc40       ?GetNumFilters@SoundLibrary3dDirectSound@@IAEHH@Z 0043ec40 f   sound_library_3d_dsound.obj
 0001:0003dcb0       ?Verify@SoundLibrary3dDirectSound@@IAEXXZ 0043ecb0 f   sound_library_3d_dsound.obj
 0001:0003dcc0       ?Advance@SoundLibrary3dDirectSound@@UAEXXZ 0043ecc0 f   sound_library_3d_dsound.obj
 0001:0003dd90       ?ResetChannel@SoundLibrary3dDirectSound@@UAEXH@Z 0043ed90 f   sound_library_3d_dsound.obj
 0001:0003deb0       ?EnableDspFX@SoundLibrary3dDirectSound@@UAEXHHPBH@Z 0043eeb0 f   sound_library_3d_dsound.obj
 0001:0003e2c0       ?UpdateDspFX@SoundLibrary3dDirectSound@@UAEXHHHPBM@Z 0043f2c0 f   sound_library_3d_dsound.obj
 0001:0003e4d0       ?DisableDspFX@SoundLibrary3dDirectSound@@UAEXH@Z 0043f4d0 f   sound_library_3d_dsound.obj
 0001:0003e690       ??0SoundParameter@@QAE@XZ  0043f690 f   sound_parameter.obj
 0001:0003e6d0       ??0SoundParameter@@QAE@M@Z 0043f6d0 f   sound_parameter.obj
 0001:0003e710       ?Copy@SoundParameter@@QAEXPAV1@@Z 0043f710 f   sound_parameter.obj
 0001:0003e740       ?Recalculate@SoundParameter@@QAEXM@Z 0043f740 f   sound_parameter.obj
 0001:0003e890       ?GetOutput@SoundParameter@@QAEMXZ 0043f890 f   sound_parameter.obj
 0001:0003e8a0       ?Read@SoundParameter@@QAEXPAVTextReader@@@Z 0043f8a0 f   sound_parameter.obj
 0001:0003e9a0       ?Write@SoundParameter@@QAEXPAVTextFileWriter@@PADH@Z 0043f9a0 f   sound_parameter.obj
 0001:0003ea90       ?IsFixedValue@SoundParameter@@QAE_NM@Z 0043fa90 f   sound_parameter.obj
 0001:0003eac0       ?GetSmooth@SoundParameter@@QAEMXZ 0043fac0 f   sound_parameter.obj
 0001:0003eae0       ?GetParameterTypeName@SoundParameter@@SAPADH@Z 0043fae0 f   sound_parameter.obj
 0001:0003eb10       ?GetParameterType@SoundParameter@@SAHPAD@Z 0043fb10 f   sound_parameter.obj
 0001:0003eb40       ?GetUpdateTypeName@SoundParameter@@SAPADH@Z 0043fb40 f   sound_parameter.obj
 0001:0003eb60       ?GetUpdateType@SoundParameter@@SAHPAD@Z 0043fb60 f   sound_parameter.obj
 0001:0003eb90       ?GetLinkName@SoundParameter@@SAPADH@Z 0043fb90 f   sound_parameter.obj
 0001:0003ec30       ?GetLinkType@SoundParameter@@SAHPAD@Z 0043fc30 f   sound_parameter.obj
 0001:0003ecf0       ??0SoundSampleHandle@@QAE@PAVSoundSampleDecoder@@@Z 0043fcf0 f   sound_sample_bank.obj
 0001:0003ed00       ??1SoundSampleHandle@@QAE@XZ 0043fd00 f   sound_sample_bank.obj
 0001:0003ed10       ?Read@SoundSampleHandle@@QAEIPAFI_NM@Z 0043fd10 f   sound_sample_bank.obj
 0001:0003ed40       ?Restart@SoundSampleHandle@@QAEXXZ 0043fd40 f   sound_sample_bank.obj
 0001:0003ed50       ?NumSamplesRemaining@SoundSampleHandle@@QAEHXZ 0043fd50 f   sound_sample_bank.obj
 0001:0003ed70       ??0SoundSampleBank@@QAE@XZ 0043fd70 f   sound_sample_bank.obj
 0001:0003ed80       ??1SoundSampleBank@@QAE@XZ 0043fd80 f   sound_sample_bank.obj
 0001:0003ee20       ??_GSoundSampleDecoder@@QAEPAXI@Z 0043fe20 f i sound_sample_bank.obj
 0001:0003ee40       ?GetSample@SoundSampleBank@@QAEPAVSoundSampleHandle@@PAD@Z 0043fe40 f   sound_sample_bank.obj
 0001:0003ef60       ?EmptyCache@SoundSampleBank@@QAEXXZ 0043ff60 f   sound_sample_bank.obj
 0001:0003ef70       ?GetMemoryUsage@SoundSampleBank@@QAEHXZ 0043ff70 f   sound_sample_bank.obj
 0001:0003efc0       ?DiscardSample@SoundSampleBank@@QAEXPAD@Z 0043ffc0 f   sound_sample_bank.obj
 0001:0003f010       ??0?$HashTable@PAVSoundSampleDecoder@@@@QAE@XZ 00440010 f i sound_sample_bank.obj
 0001:0003f090       ??1?$HashTable@PAVSoundSampleDecoder@@@@QAE@XZ 00440090 f i sound_sample_bank.obj
 0001:0003f0b0       ?PutData@?$HashTable@PAVSoundSampleDecoder@@@@QAEHPBDABQAVSoundSampleDecoder@@@Z 004400b0 f i sound_sample_bank.obj
 0001:0003f120       ?GetData@?$HashTable@PAVSoundSampleDecoder@@@@QBEPAVSoundSampleDecoder@@I@Z 00440120 f i sound_sample_bank.obj
 0001:0003f130       ?GetData@?$HashTable@PAVSoundSampleDecoder@@@@QBEPAVSoundSampleDecoder@@PBDABQAV2@@Z 00440130 f i sound_sample_bank.obj
 0001:0003f160       ?RemoveData@?$HashTable@PAVSoundSampleDecoder@@@@QAEXI@Z 00440160 f i sound_sample_bank.obj
 0001:0003f170       ?RemoveData@?$HashTable@PAVSoundSampleDecoder@@@@QAEXPBD@Z 00440170 f i sound_sample_bank.obj
 0001:0003f190       ?EmptyAndDelete@?$HashTable@PAVSoundSampleDecoder@@@@QAEXXZ 00440190 f i sound_sample_bank.obj
 0001:0003f1e0       ?ValidIndex@?$HashTable@PAVSoundSampleDecoder@@@@QBE_NI@Z 004401e0 f i sound_sample_bank.obj
 0001:0003f1f0       ?Size@?$HashTable@PAVSoundSampleDecoder@@@@QBEIXZ 004401f0 f i sound_sample_bank.obj
 0001:0003f200       ?Grow@?$HashTable@PAVSoundSampleDecoder@@@@IAEXXZ 00440200 f i sound_sample_bank.obj
 0001:0003f300       ?GetInsertPos@?$HashTable@PAVSoundSampleDecoder@@@@IBEIPBD@Z 00440300 f i sound_sample_bank.obj
 0001:0003f370       ?GetIndex@?$HashTable@PAVSoundSampleDecoder@@@@QBEHPBD@Z 00440370 f i sound_sample_bank.obj
 0001:0003f3d0       ?MarkNotUsed@?$HashTable@PAVSoundSampleDecoder@@@@QAEXI@Z 004403d0 f i sound_sample_bank.obj
 0001:0003f3f0       ?Rebuild@?$HashTable@PAVSoundSampleDecoder@@@@QAEXXZ 004403f0 f i sound_sample_bank.obj
 0001:0003f4d0       ?Empty@?$HashTable@PAVSoundSampleDecoder@@@@QAEXXZ 004404d0 f i sound_sample_bank.obj
 0001:0003f520       ?HashFunc@?$HashTable@PAVSoundSampleDecoder@@@@IBEIPBD@Z 00440520 f i sound_sample_bank.obj
 0001:0003f5a0       ?DumpKeys@?$HashTable@PAVSoundSampleDecoder@@@@QBEXXZ 004405a0 f i sound_sample_bank.obj
 0001:0003f600       ??0SoundSampleDecoder@@QAE@PAVBinaryReader@@@Z 00440600 f   sound_sample_decoder.obj
 0001:0003f6a0       ??1SoundSampleDecoder@@QAE@XZ 004406a0 f   sound_sample_decoder.obj
 0001:0003f6e0       ?ReadWavHeader@SoundSampleDecoder@@IAEXXZ 004406e0 f   sound_sample_decoder.obj
 0001:0003f880       ?ReadOggHeader@SoundSampleDecoder@@IAEXXZ 00440880 f   sound_sample_decoder.obj
 0001:0003f940       ?ReadWavData@SoundSampleDecoder@@IAEIPAFI@Z 00440940 f   sound_sample_decoder.obj
 0001:0003f9d0       ?ReadOggData@SoundSampleDecoder@@IAEIPAFI@Z 004409d0 f   sound_sample_decoder.obj
 0001:0003fa50       ?ReadToCache@SoundSampleDecoder@@IAEII@Z 00440a50 f   sound_sample_decoder.obj
 0001:0003fad0       ?EnsureCached@SoundSampleDecoder@@IAEXI@Z 00440ad0 f   sound_sample_decoder.obj
 0001:0003fb30       ?InterpolateSamples@SoundSampleDecoder@@QAEXPAFII_NM@Z 00440b30 f   sound_sample_decoder.obj
 0001:0003fcf0       ?Read@SoundSampleDecoder@@QAEXPAFII_NM@Z 00440cf0 f   sound_sample_decoder.obj
 0001:0003fdd0       ??0SoundSystem@@QAE@XZ     00440dd0 f   soundsystem.obj
 0001:0003fe40       ??1?$FastDArray@PAVSoundInstance@@@@QAE@XZ 00440e40 f i soundsystem.obj
 0001:0003fe50       ??1SoundSystem@@QAE@XZ     00440e50 f   soundsystem.obj
 0001:0003fed0       ?Initialise@SoundSystem@@QAEXPAVSoundSystemInterface@@@Z 00440ed0 f   soundsystem.obj
 0001:0003ff50       ?RestartSoundLibrary@SoundSystem@@QAEXXZ 00440f50 f   soundsystem.obj
 0001:000400f0       ?StopAllDSPEffects@SoundSystem@@QAEXXZ 004410f0 f   soundsystem.obj
 0001:00040200       ?IsMusicChannel@SoundSystem@@IAE_NH@Z 00441200 f   soundsystem.obj
 0001:00040220       ?SoundLibraryMainCallback@SoundSystem@@KA_NIPAFIPAH@Z 00441220 f   soundsystem.obj
 0001:00040380       ?InitialiseSound@SoundSystem@@QAE_NPAVSoundInstance@@@Z 00441380 f   soundsystem.obj
 0001:000404a0       ?FindBestAvailableChannel@SoundSystem@@IAEH_N@Z 004414a0 f   soundsystem.obj
 0001:00040540       ?ShutdownSound@SoundSystem@@QAEXPAVSoundInstance@@@Z 00441540 f   soundsystem.obj
 0001:000405d0       ??_GSoundInstance@@QAEPAXI@Z 004415d0 f i soundsystem.obj
 0001:000405f0       ?GetSoundInstance@SoundSystem@@QAEPAVSoundInstance@@VSoundInstanceId@@@Z 004415f0 f   soundsystem.obj
 0001:00040630       ?TriggerEvent@SoundSystem@@QAEXVSoundObjectId@@PAD@Z 00441630 f   soundsystem.obj
 0001:000407a0       ?TriggerEvent@SoundSystem@@QAEXPAD0@Z 004417a0 f   soundsystem.obj
 0001:000407d0       ?TriggerEvent@SoundSystem@@QAEXPAD0ABV?$Vector3@M@@@Z 004417d0 f   soundsystem.obj
 0001:000408d0       ?TriggerDuplicateSound@SoundSystem@@QAEXPAVSoundInstance@@@Z 004418d0 f   soundsystem.obj
 0001:000409e0       ?StopAllSounds@SoundSystem@@QAEXVSoundObjectId@@PAD@Z 004419e0 f   soundsystem.obj
 0001:00040a70       ?IsSoundPlaying@SoundSystem@@QAEHVSoundInstanceId@@@Z 00441a70 f   soundsystem.obj
 0001:00040ac0       ?NumInstancesPlaying@SoundSystem@@QAEHPAD@Z 00441ac0 f   soundsystem.obj
 0001:00040b20       ?NumInstancesPlaying@SoundSystem@@QAEHVSoundObjectId@@PAD@Z 00441b20 f   soundsystem.obj
 0001:00040ba0       ?NumInstances@SoundSystem@@QAEHVSoundObjectId@@PAD@Z 00441ba0 f   soundsystem.obj
 0001:00040c20       ?NumSoundInstances@SoundSystem@@QAEHXZ 00441c20 f   soundsystem.obj
 0001:00040c30       ?NumChannelsUsed@SoundSystem@@QAEHXZ 00441c30 f   soundsystem.obj
 0001:00040c70       ?NumSoundsDiscarded@SoundSystem@@QAEHXZ 00441c70 f   soundsystem.obj
 0001:00040c90       ?SoundInstanceCompare@@YAHPBX0@Z 00441c90 f   soundsystem.obj
 0001:00040d20       ?Advance@SoundSystem@@QAEXXZ 00441d20 f   soundsystem.obj
 0001:000413a0       ?RuntimeVerify@SoundSystem@@QAEXXZ 004423a0 f   soundsystem.obj
 0001:000413d0       ?PropagateBlueprints@SoundSystem@@QAEX_N@Z 004423d0 f   soundsystem.obj
 0001:00041430       ?EnableCallback@SoundSystem@@QAEX_N@Z 00442430 f   soundsystem.obj
 0001:00041440       ??X?$Vector3@M@@QAEABV0@M@Z 00442440 f i soundsystem.obj
 0001:00041470       ?PutData@?$LList@VSoundObjectId@@@@QAEXABVSoundObjectId@@@Z 00442470 f i soundsystem.obj
 0001:00041480       ??1?$DArray@PAVSoundInstance@@@@QAE@XZ 00442480 f i soundsystem.obj
 0001:00041490       ?Size@?$DArray@PAVSoundInstance@@@@QBEHXZ 00442490 f i soundsystem.obj
 0001:000414a0       ?ValidIndex@?$DArray@PAVSoundInstance@@@@QBE_NH@Z 004424a0 f i soundsystem.obj
 0001:000414c0       ??A?$DArray@PAVSoundInstance@@@@QAEAAPAVSoundInstance@@H@Z 004424c0 f i soundsystem.obj
 0001:00041510       ??0?$FastDArray@PAVSoundInstance@@@@QAE@XZ 00442510 f i soundsystem.obj
 0001:00041530       ?PutData@?$FastDArray@PAVSoundInstance@@@@QAEHABQAVSoundInstance@@@Z 00442530 f i soundsystem.obj
 0001:000415a0       ?RemoveData@?$FastDArray@PAVSoundInstance@@@@QAEXH@Z 004425a0 f i soundsystem.obj
 0001:00041600       ?NumUsed@?$FastDArray@PAVSoundInstance@@@@QBEHXZ 00442600 f i soundsystem.obj
 0001:00041610       ?EmptyAndDelete@?$FastDArray@PAVSoundInstance@@@@QAEXXZ 00442610 f i soundsystem.obj
 0001:00041640       ??0?$LList@PAVSoundInstance@@@@QAE@XZ 00442640 f i soundsystem.obj
 0001:00041660       ??1?$LList@PAVSoundInstance@@@@QAE@XZ 00442660 f i soundsystem.obj
 0001:00041670       ?PutData@?$LList@PAVSoundInstance@@@@QAEXABQAVSoundInstance@@@Z 00442670 f i soundsystem.obj
 0001:00041680       ?Size@?$LList@PAVSoundInstance@@@@QBEHXZ 00442680 f i soundsystem.obj
 0001:00041690       ??A?$LList@PAVSoundInstance@@@@QAEPAVSoundInstance@@H@Z 00442690 f i soundsystem.obj
 0001:000416a0       ?PutDataAtEnd@?$LList@VSoundObjectId@@@@QAEXABVSoundObjectId@@@Z 004426a0 f i soundsystem.obj
 0001:00041700       ??0?$DArray@PAVSoundInstance@@@@QAE@XZ 00442700 f i soundsystem.obj
 0001:00041720       ?Empty@?$DArray@PAVSoundInstance@@@@QAEXXZ 00442720 f i soundsystem.obj
 0001:00041750       ?EmptyAndDelete@?$DArray@PAVSoundInstance@@@@QAEXXZ 00442750 f i soundsystem.obj
 0001:000417a0       ?Grow@?$FastDArray@PAVSoundInstance@@@@IAEXXZ 004427a0 f i soundsystem.obj
 0001:000417d0       ?PutDataAtEnd@?$LList@PAVSoundInstance@@@@QAEXABQAVSoundInstance@@@Z 004427d0 f i soundsystem.obj
 0001:00041830       ?GetData@?$LList@PAVSoundInstance@@@@QBEPAVSoundInstance@@H@Z 00442830 f i soundsystem.obj
 0001:00041840       ?Empty@?$LList@PAVSoundInstance@@@@QAEXXZ 00442840 f i soundsystem.obj
 0001:00041880       ??_G?$LListItem@PAVSoundInstance@@@@QAEPAXI@Z 00442880 f i soundsystem.obj
 0001:00041890       ??0?$LListItem@VSoundObjectId@@@@QAE@XZ 00442890 f i soundsystem.obj
 0001:000418a0       ?SetSize@?$FastDArray@PAVSoundInstance@@@@QAEXH@Z 004428a0 f i soundsystem.obj
 0001:00041a80       ?GetItem@?$LList@PAVSoundInstance@@@@IBEPAV?$LListItem@PAVSoundInstance@@@@H@Z 00442a80 f i soundsystem.obj
 0001:00041b10       ??0?$LListItem@PAVSoundInstance@@@@QAE@XZ 00442b10 f i soundsystem.obj
 0001:00041b20       ??1?$LListItem@PAVSoundInstance@@@@QAE@XZ 00442b20 f i soundsystem.obj
 0001:00041b30       ?RebuildFreeList@?$FastDArray@PAVSoundInstance@@@@IAEXXZ 00442b30 f i soundsystem.obj
 0001:00041bc0       ?RebuildNumUsed@?$FastDArray@PAVSoundInstance@@@@IAEXXZ 00442bc0 f i soundsystem.obj
 0001:00041be0       ?ValidIndex@?$LList@PAVSoundInstance@@@@QBE_NH@Z 00442be0 f i soundsystem.obj
 0001:00041c00       ??0SoundObjectId@@QAE@XZ   00442c00 f   soundsystem_interface.obj
 0001:00041c10       ??0SoundObjectId@@QAE@H@Z  00442c10 f   soundsystem_interface.obj
 0001:00041c20       ?IsValid@SoundObjectId@@QAE_NXZ 00442c20 f   soundsystem_interface.obj
 0001:00041c30       ??8SoundObjectId@@QAE_NABV0@@Z 00442c30 f   soundsystem_interface.obj
 0001:00041c40       ?ListObjectTypes@SoundSystemInterface@@UAE_NPAV?$LList@PAD@@@Z 00442c40 f   soundsystem_interface.obj
 0001:00041c50       ?ListObjectEvents@SoundSystemInterface@@UAE_NPAV?$LList@PAD@@PAD@Z 00442c50 f   soundsystem_interface.obj
 0001:00041c60       ?GetCameraPosition@SoundSystemInterface@@UAE_NAAV?$Vector3@M@@000@Z 00442c60 f   soundsystem_interface.obj
 0001:00041c70       ?DoesObjectExist@SoundSystemInterface@@UAE_NVSoundObjectId@@@Z 00442c70 f   soundsystem_interface.obj
 0001:00041c80       ?GetObjectType@SoundSystemInterface@@UAEPADVSoundObjectId@@@Z 00442c80 f   soundsystem_interface.obj
 0001:00041c90       ?ListProperties@SoundSystemInterface@@UAE_NPAV?$LList@PAD@@@Z 00442c90 f   soundsystem_interface.obj
 0001:00041ca0       ?GetPropertyValue@SoundSystemInterface@@UAEMPADVSoundObjectId@@@Z 00442ca0 f   soundsystem_interface.obj
 0001:00041cb0       ?GetPropertyRange@SoundSystemInterface@@UAE_NPADPAM1@Z 00442cb0 f   soundsystem_interface.obj
 0001:00041cd0       ?GetObjectPosition@SoundSystemInterface@@UAE_NVSoundObjectId@@AAV?$Vector3@M@@1@Z 00442cd0 f   soundsystem_interface.obj
 0001:00041ce0       ??0AnimatedIcon@@QAE@XZ    00442ce0 f   animated_icon.obj
 0001:00041d70       ?Render@AnimatedIcon@@UAE_NXZ 00442d70 f   animated_icon.obj
 0001:00041d80       ??0ActionMarker@@QAE@XZ    00442d80 f   animated_icon.obj
 0001:00041da0       ??1AnimatedIcon@@QAE@XZ    00442da0 f i animated_icon.obj
 0001:00041db0       ?Render@ActionMarker@@UAE_NXZ 00442db0 f   animated_icon.obj
 0001:00041f90       ??0SonarPing@@QAE@XZ       00442f90 f   animated_icon.obj
 0001:00041fa0       ?Render@SonarPing@@UAE_NXZ 00442fa0 f   animated_icon.obj
 0001:000420e0       ??0NukePointer@@QAE@XZ     004430e0 f   animated_icon.obj
 0001:00042110       ?Merge@NukePointer@@QAEXXZ 00443110 f   animated_icon.obj
 0001:000421e0       ?Render@NukePointer@@UAE_NXZ 004431e0 f   animated_icon.obj
 0001:000426f0       ??0?$BoundedArray@_N@@QAE@XZ 004436f0 f i animated_icon.obj
 0001:00042700       ?Initialise@?$BoundedArray@_N@@QAEXI@Z 00443700 f i animated_icon.obj
 0001:00042710       ?SetAll@?$BoundedArray@_N@@QAEXAB_N@Z 00443710 f i animated_icon.obj
 0001:00042730       ?Size@?$DArray@PAVAnimatedIcon@@@@QBEHXZ 00443730 f i animated_icon.obj
 0001:00042740       ?ValidIndex@?$DArray@PAVAnimatedIcon@@@@QBE_NH@Z 00443740 f i animated_icon.obj
 0001:00042760       ??A?$DArray@PAVAnimatedIcon@@@@QAEAAPAVAnimatedIcon@@H@Z 00443760 f i animated_icon.obj
 0001:000427d0       ??0LobbyRenderer@@QAE@XZ   004437d0 f   lobby_renderer.obj
 0001:00042810       ??1LobbyRenderer@@QAE@XZ   00443810 f   lobby_renderer.obj
 0001:00042830       ?Initialise@LobbyRenderer@@QAEXXZ 00443830 f   lobby_renderer.obj
 0001:00042850       ?InitialiseLanguage@LobbyRenderer@@QAEXXZ 00443850 f   lobby_renderer.obj
 0001:000428c0       ?Render@LobbyRenderer@@QAEXXZ 004438c0 f   lobby_renderer.obj
 0001:00042aa0       ?RenderTitle@LobbyRenderer@@IAEXXZ 00443aa0 f   lobby_renderer.obj
 0001:00042c60       ?RenderOverlay@LobbyRenderer@@IAEXXZ 00443c60 f   lobby_renderer.obj
 0001:00043210       ?RenderBorder@LobbyRenderer@@IAEXXZ 00444210 f   lobby_renderer.obj
 0001:000433a0       ?SetupCamera3d@LobbyRenderer@@IAEXXZ 004443a0 f   lobby_renderer.obj
 0001:000437b0       ?RenderGlobe@LobbyRenderer@@IAEXXZ 004447b0 f   lobby_renderer.obj
 0001:00044060       ?RenderVersionInfo@LobbyRenderer@@IAEXXZ 00445060 f   lobby_renderer.obj
 0001:00044580       ?RenderAuthStatus@LobbyRenderer@@IAEXXZ 00445580 f   lobby_renderer.obj
 0001:00044740       ?RenderMotd@LobbyRenderer@@IAEXXZ 00445740 f   lobby_renderer.obj
 0001:000449d0       ?RenderDemoLimits@LobbyRenderer@@IAEXXZ 004459d0 f   lobby_renderer.obj
 0001:00044d90       ?RenderTestHours@LobbyRenderer@@IAEXXZ 00445d90 f   lobby_renderer.obj
 0001:00045310       ?RenderCityDetails@LobbyRenderer@@IAEXXZ 00446310 f   lobby_renderer.obj
 0001:00045690       ?RenderNetworkIdentity@LobbyRenderer@@IAEXXZ 00446690 f   lobby_renderer.obj
 0001:000459e0       ?UpVector@?$Vector3@M@@SA?BV1@XZ 004469e0 f i lobby_renderer.obj
 0001:000459f0       ??K?$Vector3@M@@QBE?AV0@M@Z 004469f0 f i lobby_renderer.obj
 0001:00045a20       ?RotateAroundY@?$Vector3@M@@QAEXM@Z 00446a20 f i lobby_renderer.obj
 0001:00045a50       ?RotateAround@?$Vector3@M@@QAEXABV1@@Z 00446a50 f i lobby_renderer.obj
 0001:00045af0       ?GetData@?$Vector3@M@@QAEPAMXZ 00446af0 f i lobby_renderer.obj
 0001:00045b00       ?Size@?$LList@PAVIsland@@@@QBEHXZ 00446b00 f i lobby_renderer.obj
 0001:00045b10       ??A?$LList@PAVIsland@@@@QAEPAVIsland@@H@Z 00446b10 f i lobby_renderer.obj
 0001:00045b20       ?Size@?$LList@PAV?$Vector3@M@@@@QBEHXZ 00446b20 f i lobby_renderer.obj
 0001:00045b30       ??A?$LList@PAV?$Vector3@M@@@@QAEPAV?$Vector3@M@@H@Z 00446b30 f i lobby_renderer.obj
 0001:00045b40       ?GetData@?$LList@PAVIsland@@@@QBEPAVIsland@@H@Z 00446b40 f i lobby_renderer.obj
 0001:00045b50       ?GetData@?$LList@PAV?$Vector3@M@@@@QBEPAV?$Vector3@M@@H@Z 00446b50 f i lobby_renderer.obj
 0001:00045b60       ?GetItem@?$LList@PAVIsland@@@@IBEPAV?$LListItem@PAVIsland@@@@H@Z 00446b60 f i lobby_renderer.obj
 0001:00045bf0       ?GetItem@?$LList@PAV?$Vector3@M@@@@IBEPAV?$LListItem@PAV?$Vector3@M@@@@H@Z 00446bf0 f i lobby_renderer.obj
 0001:00045c80       ?ValidIndex@?$LList@PAVIsland@@@@QBE_NH@Z 00446c80 f i lobby_renderer.obj
 0001:00045ca0       ?ValidIndex@?$LList@PAV?$Vector3@M@@@@QBE_NH@Z 00446ca0 f i lobby_renderer.obj
 0001:00045cc0       ?fmod@@YAMMM@Z             00446cc0 f i lobby_renderer.obj
 0001:00045ce0       ??9Fixed@@QBE_NABV0@@Z     00446ce0 f i map_renderer.obj
 0001:00045d10       ??0MapRenderer@@QAE@XZ     00446d10 f   map_renderer.obj
 0001:00045e80       ??1MapRenderer@@QAE@XZ     00446e80 f   map_renderer.obj
 0001:00045f10       ?Init@MapRenderer@@QAEXXZ  00446f10 f   map_renderer.obj
 0001:00046050       ?Render@MapRenderer@@QAEXXZ 00447050 f   map_renderer.obj
 0001:00046810       ?RenderPlacementDetails@MapRenderer@@QAEXXZ 00447810 f   map_renderer.obj
 0001:00046ae0       ?RenderExplosions@MapRenderer@@QAEXXZ 00447ae0 f   map_renderer.obj
 0001:00046c70       ?RenderAnimations@MapRenderer@@QAEXXZ 00447c70 f   map_renderer.obj
 0001:00046ce0       ??_GAnimatedIcon@@QAEPAXI@Z 00447ce0 f i map_renderer.obj
 0001:00046d00       ?RenderCountryControl@MapRenderer@@QAEXXZ 00447d00 f   map_renderer.obj
 0001:00047280       ?RenderGunfire@MapRenderer@@QAEXXZ 00448280 f   map_renderer.obj
 0001:00047410       ?RenderWorldMessages@MapRenderer@@QAEXXZ 00448410 f   map_renderer.obj
 0001:000476b0       ?RenderWorldObjectDetails@MapRenderer@@QAEXPAVWorldObject@@@Z 004486b0 f   map_renderer.obj
 0001:00047800       ?RenderCityObjectDetails@MapRenderer@@QAEXPAVWorldObject@@PAM1111@Z 00448800 f   map_renderer.obj
 0001:00047d90       ?RenderTooltip@MapRenderer@@QAEXPAM0000M@Z 00448d90 f   map_renderer.obj
 0001:00048020       ?RenderFriendlyObjectDetails@MapRenderer@@QAEXPAVWorldObject@@PAM1111@Z 00449020 f   map_renderer.obj
 0001:000488c0       ?RenderFriendlyObjectMenu@MapRenderer@@QAEXPAVWorldObject@@PAM1111@Z 004498c0 f   map_renderer.obj
 0001:00049380       ?GetWorldObjectStatePosition@MapRenderer@@QAEXPAVWorldObject@@HPAM111@Z 0044a380 f   map_renderer.obj
 0001:00049560       ?GetStatePositionSizes@MapRenderer@@QAEXPAM00@Z 0044a560 f   map_renderer.obj
 0001:00049590       ?RenderEnemyObjectDetails@MapRenderer@@QAEXPAVWorldObject@@PAM1111@Z 0044a590 f   map_renderer.obj
 0001:00049cc0       ?RenderMouse@MapRenderer@@QAEXXZ 0044acc0 f   map_renderer.obj
 0001:0004ad60       ?RenderEmptySpaceDetails@MapRenderer@@QAEXMM@Z 0044bd60 f   map_renderer.obj
 0001:0004afe0       ?RenderTooltip@MapRenderer@@QAEXPAD@Z 0044bfe0 f   map_renderer.obj
 0001:0004b460       ?RenderActionLine@MapRenderer@@QAEXMMMMVColour@@M_N@Z 0044c460 f   map_renderer.obj
 0001:0004b8b0       ?RenderWorldObjectTargets@MapRenderer@@QAEXPAVWorldObject@@_N@Z 0044c8b0 f   map_renderer.obj
 0001:0004c1b0       ?RenderUnitHighlight@MapRenderer@@QAEXH@Z 0044d1b0 f   map_renderer.obj
 0001:0004c440       ?RenderNukeUnits@MapRenderer@@QAEXXZ 0044d440 f   map_renderer.obj
 0001:0004c5e0       ?RenderLowDetailCoastlines@MapRenderer@@QAEXXZ 0044d5e0 f   map_renderer.obj
 0001:0004c660       ?RenderCoastlines@MapRenderer@@QAEXXZ 0044d660 f   map_renderer.obj
 0001:0004c800       ?RenderBorders@MapRenderer@@QAEXXZ 0044d800 f   map_renderer.obj
 0001:0004c9a0       ?RenderObjects@MapRenderer@@QAEXXZ 0044d9a0 f   map_renderer.obj
 0001:0004cf50       ?RenderBlips@MapRenderer@@QAEXXZ 0044df50 f   map_renderer.obj
 0001:0004d030       ??_GBlip@@QAEPAXI@Z        0044e030 f i map_renderer.obj
 0001:0004d050       ??1Blip@@QAE@XZ            0044e050 f i map_renderer.obj
 0001:0004d060       ?RenderCities@MapRenderer@@QAEXXZ 0044e060 f   map_renderer.obj
 0001:0004d730       ?RenderPopulationDensity@MapRenderer@@QAEXXZ 0044e730 f   map_renderer.obj
 0001:0004d8e0       ?RenderRadar@MapRenderer@@QAEX_N0@Z 0044e8e0 f   map_renderer.obj
 0001:0004dbe0       ?RenderRadar@MapRenderer@@QAEXXZ 0044ebe0 f   map_renderer.obj
 0001:0004dd50       ?RenderNodes@MapRenderer@@QAEXXZ 0044ed50 f   map_renderer.obj
 0001:0004e240       ?UpdateCameraControl@MapRenderer@@QAEXMM@Z 0044f240 f   map_renderer.obj
 0001:0004e7a0       ?GetNearestObjectToMouse@MapRenderer@@QAEHMM@Z 0044f7a0 f   map_renderer.obj
 0001:0004eb60       ?HandleSelectObject@MapRenderer@@QAEXH@Z 0044fb60 f   map_renderer.obj
 0001:0004ecd0       ?HandleClickStateMenu@MapRenderer@@QAEXXZ 0044fcd0 f   map_renderer.obj
 0001:0004eee0       ?HandleObjectAction@MapRenderer@@QAEXMMH@Z 0044fee0 f   map_renderer.obj
 0001:0004f1a0       ?HandleSetWaypoint@MapRenderer@@QAEXMM@Z 004501a0 f   map_renderer.obj
 0001:0004f4b0       ?Update@MapRenderer@@QAEXXZ 004504b0 f   map_renderer.obj
 0001:0004fb50       ?ConvertPixelsToAngle@MapRenderer@@QAEXMMPAM0_N@Z 00450b50 f   map_renderer.obj
 0001:0004fc60       ?ConvertAngleToPixels@MapRenderer@@QAEXMMPAM0@Z 00450c60 f   map_renderer.obj
 0001:0004fd30       ?GetWindowBounds@MapRenderer@@QAEXPAM000@Z 00450d30 f   map_renderer.obj
 0001:0004fdb0       ?IsValidTerritory@MapRenderer@@QAE_NHVFixed@@0_N@Z 00450db0 f   map_renderer.obj
 0001:00050380       ?IsCoastline@MapRenderer@@QAE_NVFixed@@0@Z 00451380 f   map_renderer.obj
 0001:00050560       ?GetTerritory@MapRenderer@@QAEHVFixed@@0_N@Z 00451560 f   map_renderer.obj
 0001:000505f0       ?GetZoomFactor@MapRenderer@@QAEMXZ 004515f0 f   map_renderer.obj
 0001:00050600       ?GetDrawScale@MapRenderer@@QAEMXZ 00451600 f   map_renderer.obj
 0001:00050610       ?GetPosition@MapRenderer@@QAEXAAM0@Z 00451610 f   map_renderer.obj
 0001:00050630       ?GetLongitudeMod@MapRenderer@@QAEHXZ 00451630 f   map_renderer.obj
 0001:00050650       ?GetTerritoryImage@MapRenderer@@QAEPAVImage@@H@Z 00451650 f   map_renderer.obj
 0001:00050660       ?GetCurrentSelectionId@MapRenderer@@QAEHXZ 00451660 f   map_renderer.obj
 0001:00050670       ?GetCurrentHighlightId@MapRenderer@@QAEHXZ 00451670 f   map_renderer.obj
 0001:00050680       ?SetCurrentSelectionId@MapRenderer@@QAEXH@Z 00451680 f   map_renderer.obj
 0001:000506d0       ?GetTerritoryId@MapRenderer@@QAEHVFixed@@0@Z 004516d0 f   map_renderer.obj
 0001:00050910       ?GetTerritoryIdUnique@MapRenderer@@QAEHVFixed@@0@Z 00451910 f   map_renderer.obj
 0001:00050b50       ?CenterViewport@MapRenderer@@QAEXMMHH@Z 00451b50 f   map_renderer.obj
 0001:00050cf0       ?CenterViewport@MapRenderer@@QAEXHHH@Z 00451cf0 f   map_renderer.obj
 0001:00050d40       ?CameraCut@MapRenderer@@QAEXMMH@Z 00451d40 f   map_renderer.obj
 0001:00050d70       ?CreateAnimation@MapRenderer@@QAEHHHMM@Z 00451d70 f   map_renderer.obj
 0001:00050e70       ?FindScreenEdge@MapRenderer@@QAEXABV?$Vector3@M@@PAM1@Z 00451e70 f   map_renderer.obj
 0001:00051020       ?UpdateMouseIdleTime@MapRenderer@@QAEXXZ 00452020 f   map_renderer.obj
 0001:000510f0       ?LockRadarRenderer@MapRenderer@@QAEXXZ 004520f0 f   map_renderer.obj
 0001:00051100       ?UnlockRadarRenderer@MapRenderer@@QAEXXZ 00452100 f   map_renderer.obj
 0001:00051110       ?AutoCam@MapRenderer@@QAEXXZ 00452110 f   map_renderer.obj
 0001:00051fd0       ?ToggleAutoCam@MapRenderer@@QAEXXZ 00452fd0 f   map_renderer.obj
 0001:00052000       ?GetAutoCam@MapRenderer@@QAE_NXZ 00453000 f   map_renderer.obj
 0001:00052010       ?MoveCam@MapRenderer@@QAEXXZ 00453010 f   map_renderer.obj
 0001:00052200       ?IsMouseInMapRenderer@MapRenderer@@QAE_NXZ 00453200 f   map_renderer.obj
 0001:00052240       ?DragCamera@MapRenderer@@QAEXXZ 00453240 f   map_renderer.obj
 0001:00052300       ?IsOnScreen@MapRenderer@@QAE_NMMM@Z 00453300 f   map_renderer.obj
 0001:00052470       ?GetShowWhiteBoard@MapRenderer@@QBE_NXZ 00453470 f   map_renderer.obj
 0001:00052480       ?SetShowWhiteBoard@MapRenderer@@QAEX_N@Z 00453480 f   map_renderer.obj
 0001:00052490       ?GetEditWhiteBoard@MapRenderer@@QBE_NXZ 00453490 f   map_renderer.obj
 0001:000524a0       ?SetEditWhiteBoard@MapRenderer@@QAEX_N@Z 004534a0 f   map_renderer.obj
 0001:00052500       ?GetShowPlanning@MapRenderer@@QBE_NXZ 00453500 f   map_renderer.obj
 0001:00052510       ?SetShowPlanning@MapRenderer@@QAEX_N@Z 00453510 f   map_renderer.obj
 0001:00052560       ?GetShowAllWhiteBoards@MapRenderer@@QBE_NXZ 00453560 f   map_renderer.obj
 0001:00052570       ?SetShowAllWhiteBoards@MapRenderer@@QAEX_N@Z 00453570 f   map_renderer.obj
 0001:00052720       ?UpdatePlanning@MapRenderer@@QAE_NMM@Z 00453720 f   map_renderer.obj
 0001:00052e10       ?RenderWhiteBoard@MapRenderer@@QAEXXZ 00453e10 f   map_renderer.obj
 0001:00053040       ??0?$Vector3@VFixed@@@@QAE@VFixed@@00@Z 00454040 f i map_renderer.obj
 0001:00053060       ?Size@?$LList@PAVWorldMessage@@@@QBEHXZ 00454060 f i map_renderer.obj
 0001:00053070       ??A?$LList@PAVWorldMessage@@@@QAEPAVWorldMessage@@H@Z 00454070 f i map_renderer.obj
 0001:00053080       ?Size@?$LList@PAVWorldObjectState@@@@QBEHXZ 00454080 f i map_renderer.obj
 0001:00053090       ??A?$BoundedArray@V?$Vector3@VFixed@@@@@@QAEAAV?$Vector3@VFixed@@@@I@Z 00454090 f i map_renderer.obj
 0001:000530c0       ??A?$BoundedArray@VFixed@@@@QAEAAVFixed@@I@Z 004540c0 f i map_renderer.obj
 0001:000530f0       ??A?$LList@PAVActionOrder@@@@QAEPAVActionOrder@@H@Z 004540f0 f i map_renderer.obj
 0001:00053100       ??0?$LList@PAV?$Vector3@VFixed@@@@@@QAE@XZ 00454100 f i map_renderer.obj
 0001:00053120       ?PutData@?$LList@PAV?$Vector3@VFixed@@@@@@QAEXABQAV?$Vector3@VFixed@@@@@Z 00454120 f i map_renderer.obj
 0001:00053130       ?RemoveData@?$LList@PAV?$Vector3@VFixed@@@@@@QAEXH@Z 00454130 f i map_renderer.obj
 0001:000531e0       ?Size@?$LList@PAV?$Vector3@VFixed@@@@@@QBEHXZ 004541e0 f i map_renderer.obj
 0001:000531f0       ??A?$LList@PAV?$Vector3@VFixed@@@@@@QAEPAV?$Vector3@VFixed@@@@H@Z 004541f0 f i map_renderer.obj
 0001:00053200       ?Size@?$LList@PAURoute@@@@QBEHXZ 00454200 f i map_renderer.obj
 0001:00053210       ??A?$LList@PAURoute@@@@QAEPAURoute@@H@Z 00454210 f i map_renderer.obj
 0001:00053220       ?GetData@?$LList@PAVWhiteBoardPoint@@@@QBEPAVWhiteBoardPoint@@H@Z 00454220 f i map_renderer.obj
 0001:00053230       ?Size@?$LList@PAVWhiteBoardPoint@@@@QBEHXZ 00454230 f i map_renderer.obj
 0001:00053240       ?Size@?$LList@PAVNode@@@@QBEHXZ 00454240 f i map_renderer.obj
 0001:00053250       ?ValidIndex@?$LList@PAVNode@@@@QBE_NH@Z 00454250 f i map_renderer.obj
 0001:00053270       ??A?$LList@PAVNode@@@@QAEPAVNode@@H@Z 00454270 f i map_renderer.obj
 0001:00053280       ?Size@?$DArray@PAVGunFire@@@@QBEHXZ 00454280 f i map_renderer.obj
 0001:00053290       ?ValidIndex@?$DArray@PAVGunFire@@@@QBE_NH@Z 00454290 f i map_renderer.obj
 0001:000532b0       ??A?$DArray@PAVGunFire@@@@QAEAAPAVGunFire@@H@Z 004542b0 f i map_renderer.obj
 0001:00053300       ??0?$DArray@PAVAnimatedIcon@@@@QAE@XZ 00454300 f i map_renderer.obj
 0001:00053320       ??1?$DArray@PAVAnimatedIcon@@@@QAE@XZ 00454320 f i map_renderer.obj
 0001:00053330       ?PutData@?$DArray@PAVAnimatedIcon@@@@QAEHABQAVAnimatedIcon@@@Z 00454330 f i map_renderer.obj
 0001:00053380       ?RemoveData@?$DArray@PAVAnimatedIcon@@@@QAEXH@Z 00454380 f i map_renderer.obj
 0001:000533d0       ?RemoveData@?$LList@PAVBlip@@@@QAEXH@Z 004543d0 f i map_renderer.obj
 0001:00053480       ?Size@?$LList@PAVBlip@@@@QBEHXZ 00454480 f i map_renderer.obj
 0001:00053490       ??A?$LList@PAVBlip@@@@QAEPAVBlip@@H@Z 00454490 f i map_renderer.obj
 0001:000534a0       ??_G?$LListItem@PAVBlip@@@@QAEPAXI@Z 004544a0 f i map_renderer.obj
 0001:000534b0       ?GetData@?$LList@PAVWorldMessage@@@@QBEPAVWorldMessage@@H@Z 004544b0 f i map_renderer.obj
 0001:000534c0       ?GetData@?$LList@PAVActionOrder@@@@QBEPAVActionOrder@@H@Z 004544c0 f i map_renderer.obj
 0001:000534d0       ?GetItem@?$LList@PAV?$Vector3@VFixed@@@@@@IBEPAV?$LListItem@PAV?$Vector3@VFixed@@@@@@H@Z 004544d0 f i map_renderer.obj
 0001:00053560       ?PutDataAtEnd@?$LList@PAV?$Vector3@VFixed@@@@@@QAEXABQAV?$Vector3@VFixed@@@@@Z 00454560 f i map_renderer.obj
 0001:000535c0       ?GetData@?$LList@PAV?$Vector3@VFixed@@@@@@QBEPAV?$Vector3@VFixed@@@@H@Z 004545c0 f i map_renderer.obj
 0001:000535d0       ?GetData@?$LList@PAURoute@@@@QBEPAURoute@@H@Z 004545d0 f i map_renderer.obj
 0001:000535e0       ?GetItem@?$LList@PAVWhiteBoardPoint@@@@IBEPAV?$LListItem@PAVWhiteBoardPoint@@@@H@Z 004545e0 f i map_renderer.obj
 0001:00053670       ?GetData@?$LList@PAVNode@@@@QBEPAVNode@@H@Z 00454670 f i map_renderer.obj
 0001:00053680       ?Grow@?$DArray@PAVAnimatedIcon@@@@IAEXXZ 00454680 f i map_renderer.obj
 0001:000536b0       ?Empty@?$DArray@PAVAnimatedIcon@@@@QAEXXZ 004546b0 f i map_renderer.obj
 0001:000536e0       ?GetItem@?$LList@PAVBlip@@@@IBEPAV?$LListItem@PAVBlip@@@@H@Z 004546e0 f i map_renderer.obj
 0001:00053770       ?GetData@?$LList@PAVBlip@@@@QBEPAVBlip@@H@Z 00454770 f i map_renderer.obj
 0001:00053780       ??1?$LListItem@PAVBlip@@@@QAE@XZ 00454780 f i map_renderer.obj
 0001:00053790       ?GetItem@?$LList@PAVWorldMessage@@@@IBEPAV?$LListItem@PAVWorldMessage@@@@H@Z 00454790 f i map_renderer.obj
 0001:00053820       ?GetItem@?$LList@PAVActionOrder@@@@IBEPAV?$LListItem@PAVActionOrder@@@@H@Z 00454820 f i map_renderer.obj
 0001:000538b0       ?ValidIndex@?$LList@PAV?$Vector3@VFixed@@@@@@QBE_NH@Z 004548b0 f i map_renderer.obj
 0001:000538d0       ??0?$LListItem@PAV?$Vector3@VFixed@@@@@@QAE@XZ 004548d0 f i map_renderer.obj
 0001:000538e0       ?GetItem@?$LList@PAURoute@@@@IBEPAV?$LListItem@PAURoute@@@@H@Z 004548e0 f i map_renderer.obj
 0001:00053970       ?ValidIndex@?$LList@PAVWhiteBoardPoint@@@@QBE_NH@Z 00454970 f i map_renderer.obj
 0001:00053990       ?GetItem@?$LList@PAVNode@@@@IBEPAV?$LListItem@PAVNode@@@@H@Z 00454990 f i map_renderer.obj
 0001:00053a20       ?SetSize@?$DArray@PAVAnimatedIcon@@@@QAEXH@Z 00454a20 f i map_renderer.obj
 0001:00053b20       ?ValidIndex@?$LList@PAVBlip@@@@QBE_NH@Z 00454b20 f i map_renderer.obj
 0001:00053b40       ?ValidIndex@?$LList@PAVWorldMessage@@@@QBE_NH@Z 00454b40 f i map_renderer.obj
 0001:00053b60       ?ValidIndex@?$LList@PAVActionOrder@@@@QBE_NH@Z 00454b60 f i map_renderer.obj
 0001:00053b80       ?ValidIndex@?$LList@PAURoute@@@@QBE_NH@Z 00454b80 f i map_renderer.obj
 0001:00053ba0       ?pow@@YAMMM@Z              00454ba0 f i map_renderer.obj
 0001:00053bc0       ??0ChatMessage@@QAE@XZ     00454bc0 f i ClientToServer.obj
 0001:00053da0       ??0ClientToServer@@QAE@XZ  00454da0 f   ClientToServer.obj
 0001:00053ed0       ??1ClientToServer@@QAE@XZ  00454ed0 f   ClientToServer.obj
 0001:00053f10       ?GetLocalPort@ClientToServer@@QAEHXZ 00454f10 f   ClientToServer.obj
 0001:00053f20       ?OpenConnections@ClientToServer@@QAEXXZ 00454f20 f   ClientToServer.obj
 0001:00054030       ?AdvanceSender@ClientToServer@@QAEXXZ 00455030 f   ClientToServer.obj
 0001:000541d0       ?Advance@ClientToServer@@QAEXXZ 004551d0 f   ClientToServer.obj
 0001:00054810       ?SendChatMessageReliably@ClientToServer@@QAEXEEPAD_N@Z 00455810 f   ClientToServer.obj
 0001:000548e0       ?ReceiveChatMessage@ClientToServer@@QAEXEH@Z 004558e0 f   ClientToServer.obj
 0001:00054940       ?GetNextLetterSeqID@ClientToServer@@QAEHXZ 00455940 f   ClientToServer.obj
 0001:00054990       ?GetNextLetter@ClientToServer@@QAEPAVDirectory@@XZ 00455990 f   ClientToServer.obj
 0001:00054a20       ?GetEstimatedServerSeqId@ClientToServer@@QAEHXZ 00455a20 f   ClientToServer.obj
 0001:00054b00       ?GetEstimatedLatency@ClientToServer@@QAEMXZ 00455b00 f   ClientToServer.obj
 0001:00054c30       ?ReceiveLetter@ClientToServer@@QAEXPAVDirectory@@@Z 00455c30 f   ClientToServer.obj
 0001:00055060       ?SendLetter@ClientToServer@@QAEXPAVDirectory@@@Z 00456060 f   ClientToServer.obj
 0001:000550d0       ?IsSequenceIdInQueue@ClientToServer@@QAE_NH@Z 004560d0 f   ClientToServer.obj
 0001:00055190       ?CountPacketLoss@ClientToServer@@QAEHXZ 00456190 f   ClientToServer.obj
 0001:00055210       ?ClientJoin@ClientToServer@@QAE_NPADH@Z 00456210 f   ClientToServer.obj
 0001:000552e0       ?ClientLeave@ClientToServer@@QAEX_N@Z 004562e0 f   ClientToServer.obj
 0001:00055400       ?RequestStartGame@ClientToServer@@QAEXEE@Z 00456400 f   ClientToServer.obj
 0001:000554a0       ?IsConnected@ClientToServer@@QAE_NXZ 004564a0 f   ClientToServer.obj
 0001:000554c0       ?RequestTeam@ClientToServer@@QAEXH@Z 004564c0 f   ClientToServer.obj
 0001:00055550       ?RequestSpectate@ClientToServer@@QAEXXZ 00456550 f   ClientToServer.obj
 0001:000555d0       ?RequestRemoveAI@ClientToServer@@QAEXE@Z 004565d0 f   ClientToServer.obj
 0001:00055660       ?RequestAlliance@ClientToServer@@QAEXEE@Z 00456660 f   ClientToServer.obj
 0001:00055700       ?RequestStateChange@ClientToServer@@QAEXHE@Z 00456700 f   ClientToServer.obj
 0001:000557a0       ?RequestAction@ClientToServer@@QAEXHHVFixed@@0@Z 004567a0 f   ClientToServer.obj
 0001:00055870       ?RequestPlacement@ClientToServer@@QAEXEEVFixed@@0E@Z 00456870 f   ClientToServer.obj
 0001:00055950       ?RequestSpecialAction@ClientToServer@@QAEXHHE@Z 00456950 f   ClientToServer.obj
 0001:000559f0       ?RequestSetWaypoint@ClientToServer@@QAEXHVFixed@@0@Z 004569f0 f   ClientToServer.obj
 0001:00055ab0       ?RequestClearActionQueue@ClientToServer@@QAEXH@Z 00456ab0 f   ClientToServer.obj
 0001:00055b40       ?RequestClearLastAction@ClientToServer@@QAEXH@Z 00456b40 f   ClientToServer.obj
 0001:00055bd0       ?RequestOptionChange@ClientToServer@@QAEXEH@Z 00456bd0 f   ClientToServer.obj
 0001:00055c70       ?RequestOptionChange@ClientToServer@@QAEXEPAD@Z 00456c70 f   ClientToServer.obj
 0001:00055d10       ?RequestGameSpeed@ClientToServer@@QAEXEE@Z 00456d10 f   ClientToServer.obj
 0001:00055db0       ?RequestTerritory@ClientToServer@@QAEXEEH@Z 00456db0 f   ClientToServer.obj
 0001:00055e50       ?RequestFleet@ClientToServer@@QAEXE@Z 00456e50 f   ClientToServer.obj
 0001:00055ee0       ?RequestFleetMovement@ClientToServer@@QAEXEHVFixed@@0@Z 00456ee0 f   ClientToServer.obj
 0001:00055fb0       ?RequestSetTeamName@ClientToServer@@QAEXEPAD_N@Z 00456fb0 f   ClientToServer.obj
 0001:00056060       ?RequestCeaseFire@ClientToServer@@QAEXEE@Z 00457060 f   ClientToServer.obj
 0001:00056100       ?RequestShareRadar@ClientToServer@@QAEXEE@Z 00457100 f   ClientToServer.obj
 0001:000561a0       ?RequestAggressionChange@ClientToServer@@QAEXEE@Z 004571a0 f   ClientToServer.obj
 0001:00056240       ?SendChatMessage@ClientToServer@@QAEXEEPADH_N@Z 00457240 f   ClientToServer.obj
 0001:00056310       ?RequestWhiteBoard@ClientToServer@@QAEXEEHVFixed@@000@Z 00457310 f   ClientToServer.obj
 0001:00056430       ?SendTeamScore@ClientToServer@@QAEXEH@Z 00457430 f   ClientToServer.obj
 0001:000564e0       ?BeginVote@ClientToServer@@QAEXEEE@Z 004574e0 f   ClientToServer.obj
 0001:00056580       ?CastVote@ClientToServer@@QAEXEEE@Z 00457580 f   ClientToServer.obj
 0001:00056620       ?SendSyncronisation@ClientToServer@@QAEXHE@Z 00457620 f   ClientToServer.obj
 0001:000566c0       ?SetSyncState@ClientToServer@@QAEXH_N@Z 004576c0 f   ClientToServer.obj
 0001:00056730       ?IsSynchronised@ClientToServer@@QAE_NH@Z 00457730 f   ClientToServer.obj
 0001:00056780       ?SetClientDemo@ClientToServer@@QAEXH@Z 00457780 f   ClientToServer.obj
 0001:000567b0       ?IsClientDemo@ClientToServer@@QAE_NH@Z 004577b0 f   ClientToServer.obj
 0001:00056800       ?AmIDemoClient@ClientToServer@@QAE_NXZ 00457800 f   ClientToServer.obj
 0001:00056860       ?GetDemoLimitations@ClientToServer@@QAEXAAH0AA_N@Z 00457860 f   ClientToServer.obj
 0001:00056910       ?GetPurchasePrice@ClientToServer@@QAEXPAD@Z 00457910 f   ClientToServer.obj
 0001:000569a0       ?GetPurchaseUrl@ClientToServer@@QAEXPAD@Z 004579a0 f   ClientToServer.obj
 0001:00056a10       ?ProcessServerUpdates@ClientToServer@@QAEXPAVDirectory@@@Z 00457a10 f   ClientToServer.obj
 0001:00057d30       ?Resynchronise@ClientToServer@@QAEXXZ 00458d30 f   ClientToServer.obj
 0001:00057d50       ?StartIdentifying@ClientToServer@@QAEXXZ 00458d50 f   ClientToServer.obj
 0001:00057d60       ?StopIdentifying@ClientToServer@@QAEXXZ 00458d60 f   ClientToServer.obj
 0001:00057d70       ?GetIdentity@ClientToServer@@QAE_NPADPAH@Z 00458d70 f   ClientToServer.obj
 0001:00057d80       ?GetServerDetails@ClientToServer@@QAE_NPADPAH@Z 00458d80 f   ClientToServer.obj
 0001:00057db0       ??1?$LList@PAVDirectory@@@@QAE@XZ 00458db0 f i ClientToServer.obj
 0001:00057dc0       ?PutDataAtStart@?$LList@PAVDirectory@@@@QAEXABQAVDirectory@@@Z 00458dc0 f i ClientToServer.obj
 0001:00057e30       ?PutDataAtIndex@?$LList@PAVDirectory@@@@QAEXABQAVDirectory@@H@Z 00458e30 f i ClientToServer.obj
 0001:00057eb0       ?RemoveData@?$LList@PAVDirectory@@@@QAEXH@Z 00458eb0 f i ClientToServer.obj
 0001:00057f60       ?EmptyAndDelete@?$LList@PAVDirectory@@@@QAEXXZ 00458f60 f i ClientToServer.obj
 0001:00057fb0       ??A?$LList@PAVDirectory@@@@QAEPAVDirectory@@H@Z 00458fb0 f i ClientToServer.obj
 0001:00057fc0       ??0?$LList@PAVChatMessage@@@@QAE@XZ 00458fc0 f i ClientToServer.obj
 0001:00057fe0       ?PutDataAtEnd@?$LList@PAVChatMessage@@@@QAEXABQAVChatMessage@@@Z 00458fe0 f i ClientToServer.obj
 0001:00058040       ?RemoveData@?$LList@PAVChatMessage@@@@QAEXH@Z 00459040 f i ClientToServer.obj
 0001:000580f0       ?Size@?$LList@PAVChatMessage@@@@QBEHXZ 004590f0 f i ClientToServer.obj
 0001:00058100       ?EmptyAndDelete@?$LList@PAVChatMessage@@@@QAEXXZ 00459100 f i ClientToServer.obj
 0001:00058140       ??A?$LList@PAVChatMessage@@@@QAEPAVChatMessage@@H@Z 00459140 f i ClientToServer.obj
 0001:00058150       ??A?$LList@PAVSpectator@@@@QAEPAVSpectator@@H@Z 00459150 f i ClientToServer.obj
 0001:00058160       ??_G?$LListItem@PAVDirectory@@@@QAEPAXI@Z 00459160 f i ClientToServer.obj
 0001:00058170       ?Empty@?$LList@PAVDirectory@@@@QAEXXZ 00459170 f i ClientToServer.obj
 0001:000581b0       ??1?$LListItem@PAVDirectory@@@@QAE@XZ 004591b0 f i ClientToServer.obj
 0001:000581c0       ?GetItem@?$LList@PAVChatMessage@@@@IBEPAV?$LListItem@PAVChatMessage@@@@H@Z 004591c0 f i ClientToServer.obj
 0001:00058250       ?GetData@?$LList@PAVChatMessage@@@@QBEPAVChatMessage@@H@Z 00459250 f i ClientToServer.obj
 0001:00058260       ??0?$LListItem@PAVChatMessage@@@@QAE@XZ 00459260 f i ClientToServer.obj
 0001:00058270       ?GetData@?$LList@PAVSpectator@@@@QBEPAVSpectator@@H@Z 00459270 f i ClientToServer.obj
 0001:00058280       ?ValidIndex@?$LList@PAVChatMessage@@@@QBE_NH@Z 00459280 f i ClientToServer.obj
 0001:000582a0       ?GetItem@?$LList@PAVSpectator@@@@IBEPAV?$LListItem@PAVSpectator@@@@H@Z 004592a0 f i ClientToServer.obj
 0001:00058330       ?ValidIndex@?$LList@PAVSpectator@@@@QBE_NH@Z 00459330 f i ClientToServer.obj
 0001:00058370       ??0ServerToClientLetter@@QAE@XZ 00459370 f i Server.obj
 0001:00058380       ??1ServerToClientLetter@@QAE@XZ 00459380 f i Server.obj
 0001:000583a0       ??0ServerTeam@@QAE@HH@Z    004593a0 f   Server.obj
 0001:00058540       ??0Server@@QAE@XZ          00459540 f   Server.obj
 0001:000585a0       ??1Server@@QAE@XZ          004595a0 f   Server.obj
 0001:00058610       ?Initialise@Server@@QAE_NXZ 00459610 f   Server.obj
 0001:00058770       ?IsRunning@Server@@QAE_NXZ 00459770 f   Server.obj
 0001:00058780       ?GetLocalPort@Server@@QAEHXZ 00459780 f   Server.obj
 0001:000587a0       ?Shutdown@Server@@QAEXXZ   004597a0 f   Server.obj
 0001:000589f0       ??_GNetMutex@@QAEPAXI@Z    004599f0 f i Server.obj
 0001:00058a10       ?GetClientId@Server@@QAEHPADH@Z 00459a10 f   Server.obj
 0001:00058ad0       ?GetClient@Server@@QAEPAVServerToClient@@H@Z 00459ad0 f   Server.obj
 0001:00058b10       ?RegisterNewClient@Server@@QAEHPAVDirectory@@H@Z 00459b10 f   Server.obj
 0001:00058dc0       ?NotifyNetSyncError@Server@@QAEXH@Z 00459dc0 f   Server.obj
 0001:00058f10       ?NotifyNetSyncFixed@Server@@QAEXH@Z 00459f10 f   Server.obj
 0001:00058fe0       ?RemoveClient@Server@@QAEXHH@Z 00459fe0 f   Server.obj
 0001:000592d0       ?RegisterNewTeam@Server@@QAEXHH@Z 0045a2d0 f   Server.obj
 0001:00059580       ?RegisterSpectator@Server@@QAEXH@Z 0045a580 f   Server.obj
 0001:000596d0       ?SendClientId@Server@@QAEXH@Z 0045a6d0 f   Server.obj
 0001:00059820       ?GetNextLetter@Server@@QAEPAVDirectory@@XZ 0045a820 f   Server.obj
 0001:00059870       ?ReceiveLetter@Server@@QAEXPAVDirectory@@PADH@Z 0045a870 f   Server.obj
 0001:00059910       ?SendLetter@Server@@QAEXPAVServerToClientLetter@@@Z 0045a910 f   Server.obj
 0001:00059950       ?AdvanceSender@Server@@QAEXXZ 0045a950 f   Server.obj
 0001:00059b50       ??_GServerToClientLetter@@QAEPAXI@Z 0045ab50 f i Server.obj
 0001:00059b80       ?CountEmptyMessages@Server@@IAEHH@Z 0045ab80 f   Server.obj
 0001:00059c40       ?UpdateClients@Server@@QAEXXZ 0045ac40 f   Server.obj
 0001:0005a090       ??_GServerToClient@@QAEPAXI@Z 0045b090 f i Server.obj
 0001:0005a0b0       ?AuthenticateClients@Server@@IAEXXZ 0045b0b0 f   Server.obj
 0001:0005a190       ?HandleDisconnectedClient@Server@@QAE_NPAVDirectory@@@Z 0045b190 f   Server.obj
 0001:0005a340       ?GetDisconnectedClient@Server@@QAEPAVServerToClient@@H@Z 0045b340 f   Server.obj
 0001:0005a380       ?ForgetDisconnectedClient@Server@@QAEXPADH@Z 0045b380 f   Server.obj
 0001:0005a400       ?IsDisconnectedClient@Server@@QAE_NPADH@Z 0045b400 f   Server.obj
 0001:0005a480       ?CanClientRejoin@Server@@QAE_NPAVDirectory@@@Z 0045b480 f   Server.obj
 0001:0005a530       ?HandleClientRejoin@Server@@QAEHPAVDirectory@@@Z 0045b530 f   Server.obj
 0001:0005a660       ?HandleSyncMessage@Server@@QAEXPAVDirectory@@@Z 0045b660 f   Server.obj
 0001:0005a900       ?ResynchroniseClient@Server@@QAEXH@Z 0045b900 f   Server.obj
 0001:0005a940       ?SendModPath@Server@@QAEXXZ 0045b940 f   Server.obj
 0001:0005aa40       ?CheckForExploits@Server@@QAE_NPAVDirectory@@@Z 0045ba40 f   Server.obj
 0001:0005aae0       ?Advance@Server@@QAEXXZ    0045bae0 f   Server.obj
 0001:0005b130       ?Advertise@Server@@QAEXXZ  0045c130 f   Server.obj
 0001:0005b940       ?GetNumTeams@Server@@QAEHH@Z 0045c940 f   Server.obj
 0001:0005b980       ?GetNumSpectators@Server@@QAEHXZ 0045c980 f   Server.obj
 0001:0005b9c0       ?GetNumDemoTeams@Server@@QAEHXZ 0045c9c0 f   Server.obj
 0001:0005ba30       ?AuthenticateClient@Server@@QAEXH@Z 0045ca30 f   Server.obj
 0001:0005bef0       ?GetHistoryByteSize@Server@@QAEHXZ 0045cef0 f   Server.obj
 0001:0005bf30       ?GetIdentity@Server@@QAE_NPADPAH@Z 0045cf30 f   Server.obj
 0001:0005bf50       ?TestBedReadyToContinue@Server@@QAE_NXZ 0045cf50 f   Server.obj
 0001:0005bff0       ?PutDataAtIndex@?$LList@H@@QAEXABHH@Z 0045cff0 f i Server.obj
 0001:0005c070       ??0?$LList@PAVServerToClientLetter@@@@QAE@XZ 0045d070 f i Server.obj
 0001:0005c090       ??1?$LList@PAVServerToClientLetter@@@@QAE@XZ 0045d090 f i Server.obj
 0001:0005c0a0       ?PutDataAtEnd@?$LList@PAVServerToClientLetter@@@@QAEXABQAVServerToClientLetter@@@Z 0045d0a0 f i Server.obj
 0001:0005c100       ?RemoveData@?$LList@PAVServerToClientLetter@@@@QAEXH@Z 0045d100 f i Server.obj
 0001:0005c180       ?Size@?$LList@PAVServerToClientLetter@@@@QBEHXZ 0045d180 f i Server.obj
 0001:0005c190       ?ValidIndex@?$LList@PAVServerToClientLetter@@@@QBE_NH@Z 0045d190 f i Server.obj
 0001:0005c1b0       ?EmptyAndDelete@?$LList@PAVServerToClientLetter@@@@QAEXXZ 0045d1b0 f i Server.obj
 0001:0005c210       ??A?$LList@PAVServerToClientLetter@@@@QAEPAVServerToClientLetter@@H@Z 0045d210 f i Server.obj
 0001:0005c220       ??0?$DArray@PAVServerToClient@@@@QAE@XZ 0045d220 f i Server.obj
 0001:0005c240       ??1?$DArray@PAVServerToClient@@@@QAE@XZ 0045d240 f i Server.obj
 0001:0005c250       ?PutData@?$DArray@PAVServerToClient@@@@QAEHABQAVServerToClient@@@Z 0045d250 f i Server.obj
 0001:0005c2a0       ?RemoveData@?$DArray@PAVServerToClient@@@@QAEXH@Z 0045d2a0 f i Server.obj
 0001:0005c2f0       ?NumUsed@?$DArray@PAVServerToClient@@@@QBEHXZ 0045d2f0 f i Server.obj
 0001:0005c310       ?Size@?$DArray@PAVServerToClient@@@@QBEHXZ 0045d310 f i Server.obj
 0001:0005c320       ?ValidIndex@?$DArray@PAVServerToClient@@@@QBE_NH@Z 0045d320 f i Server.obj
 0001:0005c340       ?EmptyAndDelete@?$DArray@PAVServerToClient@@@@QAEXXZ 0045d340 f i Server.obj
 0001:0005c390       ??A?$DArray@PAVServerToClient@@@@QAEAAPAVServerToClient@@H@Z 0045d390 f i Server.obj
 0001:0005c3e0       ??0?$DArray@PAVServerTeam@@@@QAE@XZ 0045d3e0 f i Server.obj
 0001:0005c400       ??1?$DArray@PAVServerTeam@@@@QAE@XZ 0045d400 f i Server.obj
 0001:0005c410       ?PutData@?$DArray@PAVServerTeam@@@@QAEHABQAVServerTeam@@@Z 0045d410 f i Server.obj
 0001:0005c460       ?RemoveData@?$DArray@PAVServerTeam@@@@QAEXH@Z 0045d460 f i Server.obj
 0001:0005c4b0       ?NumUsed@?$DArray@PAVServerTeam@@@@QBEHXZ 0045d4b0 f i Server.obj
 0001:0005c4d0       ?Size@?$DArray@PAVServerTeam@@@@QBEHXZ 0045d4d0 f i Server.obj
 0001:0005c4e0       ?ValidIndex@?$DArray@PAVServerTeam@@@@QBE_NH@Z 0045d4e0 f i Server.obj
 0001:0005c500       ?EmptyAndDelete@?$DArray@PAVServerTeam@@@@QAEXXZ 0045d500 f i Server.obj
 0001:0005c540       ??A?$DArray@PAVServerTeam@@@@QAEAAPAVServerTeam@@H@Z 0045d540 f i Server.obj
 0001:0005c590       ?PutData@?$DArray@_N@@QAEXAB_NH@Z 0045d590 f i Server.obj
 0001:0005c5e0       ?ValidIndex@?$DArray@_N@@QBE_NH@Z 0045d5e0 f i Server.obj
 0001:0005c600       ?PutData@?$DArray@E@@QAEXABEH@Z 0045d600 f i Server.obj
 0001:0005c650       ?ValidIndex@?$DArray@E@@QBE_NH@Z 0045d650 f i Server.obj
 0001:0005c670       ??A?$DArray@E@@QAEAAEH@Z   0045d670 f i Server.obj
 0001:0005c6c0       ??_G?$LListItem@PAVServerToClientLetter@@@@QAEPAXI@Z 0045d6c0 f i Server.obj
 0001:0005c6d0       ?GetItem@?$LList@PAVServerToClientLetter@@@@IBEPAV?$LListItem@PAVServerToClientLetter@@@@H@Z 0045d6d0 f i Server.obj
 0001:0005c760       ?GetData@?$LList@PAVServerToClientLetter@@@@QBEPAVServerToClientLetter@@H@Z 0045d760 f i Server.obj
 0001:0005c770       ?Empty@?$LList@PAVServerToClientLetter@@@@QAEXXZ 0045d770 f i Server.obj
 0001:0005c7b0       ??0?$LListItem@PAVServerToClientLetter@@@@QAE@XZ 0045d7b0 f i Server.obj
 0001:0005c7c0       ??1?$LListItem@PAVServerToClientLetter@@@@QAE@XZ 0045d7c0 f i Server.obj
 0001:0005c7d0       ?Grow@?$DArray@PAVServerToClient@@@@IAEXXZ 0045d7d0 f i Server.obj
 0001:0005c800       ?Empty@?$DArray@PAVServerToClient@@@@QAEXXZ 0045d800 f i Server.obj
 0001:0005c830       ?Grow@?$DArray@PAVServerTeam@@@@IAEXXZ 0045d830 f i Server.obj
 0001:0005c860       ?Empty@?$DArray@PAVServerTeam@@@@QAEXXZ 0045d860 f i Server.obj
 0001:0005c890       ?Grow@?$DArray@_N@@IAEXXZ  0045d890 f i Server.obj
 0001:0005c8c0       ?Grow@?$DArray@E@@IAEXXZ   0045d8c0 f i Server.obj
 0001:0005c8f0       ?SetSize@?$DArray@PAVServerToClient@@@@QAEXH@Z 0045d8f0 f i Server.obj
 0001:0005c9f0       ?SetSize@?$DArray@PAVServerTeam@@@@QAEXH@Z 0045d9f0 f i Server.obj
 0001:0005caf0       ?SetSize@?$DArray@_N@@QAEXH@Z 0045daf0 f i Server.obj
 0001:0005cbf0       ?SetSize@?$DArray@E@@QAEXH@Z 0045dbf0 f i Server.obj
 0001:0005ccf0       ??0ServerToClient@@QAE@PADHPAVNetSocketListener@@@Z 0045dcf0 f   ServerToClient.obj
 0001:0005ce40       ??1ServerToClient@@QAE@XZ  0045de40 f   ServerToClient.obj
 0001:0005ce70       ?GetIP@ServerToClient@@QAEPADXZ 0045de70 f   ServerToClient.obj
 0001:0005ce80       ?GetSocket@ServerToClient@@QAEPAVNetSocketSession@@XZ 0045de80 f   ServerToClient.obj
 0001:0005ce90       ??0?$DArray@_N@@QAE@XZ     0045de90 f i ServerToClient.obj
 0001:0005ceb0       ??1?$DArray@_N@@QAE@XZ     0045deb0 f i ServerToClient.obj
 0001:0005cec0       ?SetStepSize@?$DArray@_N@@QAEXH@Z 0045dec0 f i ServerToClient.obj
 0001:0005ced0       ??0?$DArray@E@@QAE@XZ      0045ded0 f i ServerToClient.obj
 0001:0005cef0       ??1?$DArray@E@@QAE@XZ      0045def0 f i ServerToClient.obj
 0001:0005cf00       ?SetStepSize@?$DArray@E@@QAEXH@Z 0045df00 f i ServerToClient.obj
 0001:0005cf10       ?Empty@?$DArray@_N@@QAEXXZ 0045df10 f i ServerToClient.obj
 0001:0005cf40       ?Empty@?$DArray@E@@QAEXXZ  0045df40 f i ServerToClient.obj
 0001:0005cf70       ??0AirBase@@QAE@XZ         0045df70 f   airbase.obj
 0001:0005d130       ?RequestAction@AirBase@@UAEXPAVActionOrder@@@Z 0045e130 f   airbase.obj
 0001:0005d1a0       ?Action@AirBase@@UAEXHVFixed@@0@Z 0045e1a0 f   airbase.obj
 0001:0005d290       ?RunAI@AirBase@@UAEXXZ     0045e290 f   airbase.obj
 0001:0005dda0       ??1?$FastDArray@H@@QAE@XZ  0045eda0 f i airbase.obj
 0001:0005ddb0       ?IsActionQueueable@AirBase@@UAE_NXZ 0045edb0 f   airbase.obj
 0001:0005ddc0       ?UsingNukes@AirBase@@UAE_NXZ 0045edc0 f   airbase.obj
 0001:0005ddd0       ?NukeStrike@AirBase@@UAEXXZ 0045edd0 f   airbase.obj
 0001:0005de40       ?Update@AirBase@@UAE_NXZ   0045ee40 f   airbase.obj
 0001:0005e010       ?CanLaunchBomber@AirBase@@UAE_NXZ 0045f010 f   airbase.obj
 0001:0005e040       ?CanLaunchFighter@AirBase@@UAE_NXZ 0045f040 f   airbase.obj
 0001:0005e070       ?GetAttackOdds@AirBase@@UAEHH@Z 0045f070 f   airbase.obj
 0001:0005e100       ?IsValidCombatTarget@AirBase@@UAEHH@Z 0045f100 f   airbase.obj
 0001:0005e220       ?IsValidMovementTarget@AirBase@@UAEHVFixed@@0@Z 0045f220 f   airbase.obj
 0001:0005e340       ?Render@AirBase@@UAEXXZ    0045f340 f   airbase.obj
 0001:0005e550       ?Size@?$LList@PAVEvent@@@@QBEHXZ 0045f550 f i airbase.obj
 0001:0005e560       ??A?$LList@PAVEvent@@@@QAEPAVEvent@@H@Z 0045f560 f i airbase.obj
 0001:0005e570       ??A?$DArray@H@@QAEAAHH@Z   0045f570 f i airbase.obj
 0001:0005e5c0       ??0?$FastDArray@H@@QAE@XZ  0045f5c0 f i airbase.obj
 0001:0005e5e0       ?PutData@?$FastDArray@H@@QAEHABH@Z 0045f5e0 f i airbase.obj
 0001:0005e650       ?GetData@?$LList@PAVEvent@@@@QBEPAVEvent@@H@Z 0045f650 f i airbase.obj
 0001:0005e660       ?Grow@?$FastDArray@H@@IAEXXZ 0045f660 f i airbase.obj
 0001:0005e690       ?GetItem@?$LList@PAVEvent@@@@IBEPAV?$LListItem@PAVEvent@@@@H@Z 0045f690 f i airbase.obj
 0001:0005e720       ?SetSize@?$FastDArray@H@@QAEXH@Z 0045f720 f i airbase.obj
 0001:0005e900       ?ValidIndex@?$LList@PAVEvent@@@@QBE_NH@Z 0045f900 f i airbase.obj
 0001:0005e920       ?RebuildFreeList@?$FastDArray@H@@IAEXXZ 0045f920 f i airbase.obj
 0001:0005e9b0       ?RebuildNumUsed@?$FastDArray@H@@IAEXXZ 0045f9b0 f i airbase.obj
 0001:0005e9d0       ??0BattleShip@@QAE@XZ      0045f9d0 f   battleship.obj
 0001:0005eb80       ?Action@BattleShip@@UAEXHVFixed@@0@Z 0045fb80 f   battleship.obj
 0001:0005ec50       ?Update@BattleShip@@UAE_NXZ 0045fc50 f   battleship.obj
 0001:0005ee80       ?Render@BattleShip@@UAEXXZ 0045fe80 f   battleship.obj
 0001:0005ee90       ?RunAI@BattleShip@@UAEXXZ  0045fe90 f   battleship.obj
 0001:0005eea0       ?GetAttackState@BattleShip@@UAEHXZ 0045fea0 f   battleship.obj
 0001:0005eeb0       ?UsingGuns@BattleShip@@UAE_NXZ 0045feb0 f   battleship.obj
 0001:0005eec0       ?GetTarget@BattleShip@@UAEHVFixed@@@Z 0045fec0 f   battleship.obj
 0001:0005f160       ?FleetAction@BattleShip@@UAEXH@Z 00460160 f   battleship.obj
 0001:0005f1f0       ?GetAttackPriority@BattleShip@@QAEHH@Z 004601f0 f   battleship.obj
 0001:0005f240       ??0Blip@@QAE@XZ            00460240 f   blip.obj
 0001:0005f400       ?Update@Blip@@UAE_NXZ      00460400 f   blip.obj
 0001:0005fbe0       ?SetWaypoint@Blip@@UAEXVFixed@@0@Z 00460be0 f   blip.obj
 0001:0005fda0       ?GetSize@Blip@@UAE?AVFixed@@XZ 00460da0 f   blip.obj
 0001:0005fdf0       ?Render@Blip@@UAEXXZ       00460df0 f   blip.obj
 0001:00060050       ?PutDataAtStart@?$LList@PAV?$Vector3@VFixed@@@@@@QAEXABQAV?$Vector3@VFixed@@@@@Z 00461050 f i blip.obj
 0001:000600c0       ??0Bomber@@QAE@XZ          004610c0 f   bomber.obj
 0001:000602d0       ?Action@Bomber@@UAEXHVFixed@@0@Z 004612d0 f   bomber.obj
 0001:000605e0       ?Update@Bomber@@UAE_NXZ    004615e0 f   bomber.obj
 0001:00060d80       ??0?$Vector3@VFixed@@@@QAE@ABV0@@Z 00461d80 f i bomber.obj
 0001:00060da0       ?GetActionRange@Bomber@@UAE?AVFixed@@XZ 00461da0 f   bomber.obj
 0001:00060dc0       ?RunAI@Bomber@@UAEXXZ      00461dc0 f   bomber.obj
 0001:00060fe0       ?Land@Bomber@@UAEXH@Z      00461fe0 f   bomber.obj
 0001:00061030       ?UsingNukes@Bomber@@UAE_NXZ 00462030 f   bomber.obj
 0001:00061040       ?SetNukeTarget@Bomber@@QAEXVFixed@@0@Z 00462040 f   bomber.obj
 0001:00061070       ?Retaliate@Bomber@@UAEXH@Z 00462070 f   bomber.obj
 0001:000611f0       ?SetState@Bomber@@UAEXH@Z  004621f0 f   bomber.obj
 0001:00061220       ?GetAttackOdds@Bomber@@UAEHH@Z 00462220 f   bomber.obj
 0001:00061290       ?IsValidCombatTarget@Bomber@@UAEHH@Z 00462290 f   bomber.obj
 0001:00061360       ?CeaseFire@Bomber@@UAEXH@Z 00462360 f   bomber.obj
 0001:000614b0       ?Render@Bomber@@UAEXXZ     004624b0 f   bomber.obj
 0001:00061700       ?SetWaypointOnAction@Bomber@@UAE_NXZ 00462700 f   bomber.obj
 0001:00061710       ??0Carrier@@QAE@XZ         00462710 f   carrier.obj
 0001:00061a20       ?RequestAction@Carrier@@UAEXPAVActionOrder@@@Z 00462a20 f   carrier.obj
 0001:00061ab0       ?Action@Carrier@@UAEXHVFixed@@0@Z 00462ab0 f   carrier.obj
 0001:00061ba0       ?Update@Carrier@@UAE_NXZ   00462ba0 f   carrier.obj
 0001:00061dd0       ?RunAI@Carrier@@UAEXXZ     00462dd0 f   carrier.obj
 0001:000626f0       ?LaunchScout@Carrier@@QAEXXZ 004636f0 f   carrier.obj
 0001:000629e0       ?IsActionQueueable@Carrier@@UAE_NXZ 004639e0 f   carrier.obj
 0001:000629f0       ?FindTarget@Carrier@@QAEHXZ 004639f0 f   carrier.obj
 0001:00062b70       ?GetAttackState@Carrier@@UAEHXZ 00463b70 f   carrier.obj
 0001:00062b80       ?Retaliate@Carrier@@UAEXH@Z 00463b80 f   carrier.obj
 0001:00062d00       ?UsingNukes@Carrier@@UAE_NXZ 00463d00 f   carrier.obj
 0001:00062d10       ?FireGun@Carrier@@UAEXVFixed@@@Z 00463d10 f   carrier.obj
 0001:00062ea0       ?FleetAction@Carrier@@UAEXH@Z 00463ea0 f   carrier.obj
 0001:00063040       ?CanLaunchBomber@Carrier@@UAE_NXZ 00464040 f   carrier.obj
 0001:00063070       ?CanLaunchFighter@Carrier@@UAE_NXZ 00464070 f   carrier.obj
 0001:000630a0       ?GetAttackOdds@Carrier@@UAEHH@Z 004640a0 f   carrier.obj
 0001:00063130       ?IsValidCombatTarget@Carrier@@UAEHH@Z 00464130 f   carrier.obj
 0001:00063250       ?IsValidMovementTarget@Carrier@@UAEHVFixed@@0@Z 00464250 f   carrier.obj
 0001:00063380       ?CountIncomingFighters@Carrier@@UAEHXZ 00464380 f   carrier.obj
 0001:00063440       ?Render@Carrier@@UAEXXZ    00464440 f   carrier.obj
 0001:00063720       ?PutData@?$FastDArray@PAVGunFire@@@@QAEHABQAVGunFire@@@Z 00464720 f i carrier.obj
 0001:00063790       ?Grow@?$FastDArray@PAVGunFire@@@@IAEXXZ 00464790 f i carrier.obj
 0001:000637c0       ?SetSize@?$FastDArray@PAVGunFire@@@@QAEXH@Z 004647c0 f i carrier.obj
 0001:000639a0       ?RebuildFreeList@?$FastDArray@PAVGunFire@@@@IAEXXZ 004649a0 f i carrier.obj
 0001:00063a30       ?RebuildNumUsed@?$FastDArray@PAVGunFire@@@@IAEXXZ 00464a30 f i carrier.obj
 0001:00063a50       ??0City@@QAE@XZ            00464a50 f   city.obj
 0001:00063b90       ?Update@City@@UAE_NXZ      00464b90 f   city.obj
 0001:00063bf0       ?NuclearStrike@City@@QAE_NHVFixed@@0_N@Z 00464bf0 f   city.obj
 0001:00064320       ?GetEstimatedPopulation@City@@SAHHHH@Z 00465320 f   city.obj
 0001:00064390       ??0Date@@QAE@XZ            00465390 f   date.obj
 0001:000643b0       ?AdvanceTime@Date@@QAEXVFixed@@@Z 004653b0 f   date.obj
 0001:00064400       ?GetSeconds@Date@@QAEHXZ   00465400 f   date.obj
 0001:00064550       ?GetMinutes@Date@@QAEHXZ   00465550 f   date.obj
 0001:00064620       ?GetHours@Date@@QAEHXZ     00465620 f   date.obj
 0001:00064670       ?GetDays@Date@@QAEHXZ      00465670 f   date.obj
 0001:00064680       ?GetTheDate@Date@@QAEPADXZ 00465680 f   date.obj
 0001:00064810       ?ResetClock@Date@@QAEXXZ   00465810 f   date.obj
 0001:00064840       ??0DepthCharge@@QAE@VFixed@@@Z 00465840 f   depthcharge.obj
 0001:00064900       ??1GunFire@@QAE@XZ         00465900 f i depthcharge.obj
 0001:00064910       ?Update@DepthCharge@@UAE_NXZ 00465910 f   depthcharge.obj
 0001:00064a70       ?Render@DepthCharge@@UAEXXZ 00465a70 f   depthcharge.obj
 0001:00064bf0       ?Impact@DepthCharge@@UAEXXZ 00465bf0 f   depthcharge.obj
 0001:00065020       ?PutData@?$FastDArray@PAVExplosion@@@@QAEHABQAVExplosion@@@Z 00466020 f i depthcharge.obj
 0001:00065090       ??$max@E@std@@YAABEABE0@Z  00466090 f i depthcharge.obj
 0001:000650a0       ?Grow@?$FastDArray@PAVExplosion@@@@IAEXXZ 004660a0 f i depthcharge.obj
 0001:000650d0       ?SetSize@?$FastDArray@PAVExplosion@@@@QAEXH@Z 004660d0 f i depthcharge.obj
 0001:000652b0       ?RebuildFreeList@?$FastDArray@PAVExplosion@@@@IAEXXZ 004662b0 f i depthcharge.obj
 0001:00065340       ?RebuildNumUsed@?$FastDArray@PAVExplosion@@@@IAEXXZ 00466340 f i depthcharge.obj
 0001:00065360       ??0EarthData@@QAE@XZ       00466360 f   earthdata.obj
 0001:00065380       ?Initialise@EarthData@@QAEXXZ 00466380 f   earthdata.obj
 0001:000653a0       ?LoadBorders@EarthData@@QAEXXZ 004663a0 f   earthdata.obj
 0001:00065500       ??0Island@@QAE@XZ          00466500 f i earthdata.obj
 0001:00065510       ?LoadCities@EarthData@@QAEXXZ 00466510 f   earthdata.obj
 0001:000657c0       ?LoadCoastlines@EarthData@@QAEXXZ 004667c0 f   earthdata.obj
 0001:00065980       ??0?$LList@PAVIsland@@@@QAE@XZ 00466980 f i earthdata.obj
 0001:000659a0       ?PutData@?$LList@PAVIsland@@@@QAEXABQAVIsland@@@Z 004669a0 f i earthdata.obj
 0001:000659b0       ?EmptyAndDelete@?$LList@PAVIsland@@@@QAEXXZ 004669b0 f i earthdata.obj
 0001:00065a00       ??0?$LList@PAVCity@@@@QAE@XZ 00466a00 f i earthdata.obj
 0001:00065a20       ?PutData@?$LList@PAVCity@@@@QAEXABQAVCity@@@Z 00466a20 f i earthdata.obj
 0001:00065a30       ?EmptyAndDelete@?$LList@PAVCity@@@@QAEXXZ 00466a30 f i earthdata.obj
 0001:00065a80       ??0?$LList@PAV?$Vector3@M@@@@QAE@XZ 00466a80 f i earthdata.obj
 0001:00065aa0       ??1?$LList@PAV?$Vector3@M@@@@QAE@XZ 00466aa0 f i earthdata.obj
 0001:00065ab0       ?PutData@?$LList@PAV?$Vector3@M@@@@QAEXABQAV?$Vector3@M@@@Z 00466ab0 f i earthdata.obj
 0001:00065ac0       ??_GIsland@@QAEPAXI@Z      00466ac0 f i earthdata.obj
 0001:00065ae0       ??_GCity@@QAEPAXI@Z        00466ae0 f i earthdata.obj
 0001:00065b00       ??1Island@@QAE@XZ          00466b00 f i earthdata.obj
 0001:00065b10       ??1City@@QAE@XZ            00466b10 f i earthdata.obj
 0001:00065b20       ?PutDataAtEnd@?$LList@PAVIsland@@@@QAEXABQAVIsland@@@Z 00466b20 f i earthdata.obj
 0001:00065b80       ?RemoveData@?$LList@PAVIsland@@@@QAEXH@Z 00466b80 f i earthdata.obj
 0001:00065c00       ?PutDataAtEnd@?$LList@PAVCity@@@@QAEXABQAVCity@@@Z 00466c00 f i earthdata.obj
 0001:00065c60       ?RemoveData@?$LList@PAVCity@@@@QAEXH@Z 00466c60 f i earthdata.obj
 0001:00065d10       ?PutDataAtEnd@?$LList@PAV?$Vector3@M@@@@QAEXABQAV?$Vector3@M@@@Z 00466d10 f i earthdata.obj
 0001:00065d70       ?Empty@?$LList@PAV?$Vector3@M@@@@QAEXXZ 00466d70 f i earthdata.obj
 0001:00065db0       ??_G?$LListItem@PAV?$Vector3@M@@@@QAEPAXI@Z 00466db0 f i earthdata.obj
 0001:00065dc0       ??0?$LListItem@PAVIsland@@@@QAE@XZ 00466dc0 f i earthdata.obj
 0001:00065dd0       ??0?$LListItem@PAVCity@@@@QAE@XZ 00466dd0 f i earthdata.obj
 0001:00065de0       ??0?$LListItem@PAV?$Vector3@M@@@@QAE@XZ 00466de0 f i earthdata.obj
 0001:00065df0       ??1?$LListItem@PAV?$Vector3@M@@@@QAE@XZ 00466df0 f i earthdata.obj
 0001:00065e00       ?IsActionable@Explosion@@UAE_NXZ 00466e00 f i explosion.obj
 0001:00065e10       ??0Explosion@@QAE@XZ       00466e10 f   explosion.obj
 0001:00065ea0       ?Update@Explosion@@UAE_NXZ 00466ea0 f   explosion.obj
 0001:00066030       ?Render@Explosion@@UAEXXZ  00467030 f   explosion.obj
 0001:00066230       ??0Fighter@@QAE@XZ         00467230 f   fighter.obj
 0001:000663c0       ?Action@Fighter@@UAEXHVFixed@@0@Z 004673c0 f   fighter.obj
 0001:000664c0       ?Update@Fighter@@UAE_NXZ   004674c0 f   fighter.obj
 0001:00066b80       ?Render@Fighter@@UAEXXZ    00467b80 f   fighter.obj
 0001:00066b90       ?RunAI@Fighter@@UAEXXZ     00467b90 f   fighter.obj
 0001:00066bc0       ?GetAttackState@Fighter@@UAEHXZ 00467bc0 f   fighter.obj
 0001:00066bd0       ?Land@Fighter@@UAEXH@Z     00467bd0 f   fighter.obj
 0001:00066c20       ?UsingGuns@Fighter@@UAE_NXZ 00467c20 f   fighter.obj
 0001:00066c30       ?CountTargettedFighters@Fighter@@QAEHH@Z 00467c30 f   fighter.obj
 0001:00066d00       ?IsValidCombatTarget@Fighter@@UAEHH@Z 00467d00 f   fighter.obj
 0001:00066d60       ?SetWaypointOnAction@Fighter@@UAE_NXZ 00467d60 f   fighter.obj
 0001:00066d70       ?RotateAroundZ@?$Vector3@VFixed@@@@QAEXVFixed@@@Z 00467d70 f i fighter.obj
 0001:00066df0       ?FastRotateAround@?$Vector3@VFixed@@@@QAEXABV1@VFixed@@@Z 00467df0 f i fighter.obj
 0001:00067090       ??T?$Vector3@VFixed@@@@QBE?AV0@ABV0@@Z 00468090 f i fighter.obj
 0001:00067180       ??D?$Vector3@VFixed@@@@QBE?AVFixed@@ABV0@@Z 00468180 f i fighter.obj
 0001:00067210       ??H?$Vector3@VFixed@@@@QBE?AV0@ABV0@@Z 00468210 f i fighter.obj
 0001:00067270       ??G?$Vector3@VFixed@@@@QBE?AV0@ABV0@@Z 00468270 f i fighter.obj
 0001:000672d0       ??D?$Vector3@VFixed@@@@QBE?AV0@VFixed@@@Z 004682d0 f i fighter.obj
 0001:00067330       ??$?DVFixed@@@@YA?AV?$Vector3@VFixed@@@@VFixed@@ABV0@@Z 00468330 f i fighter.obj
 0001:00067390       ??_0Fixed@@QAEAAV0@ABV0@@Z 00468390 f i fleet.obj
 0001:000673b0       ??0Fleet@@QAE@XZ           004683b0 f   fleet.obj
 0001:000674f0       ?Update@Fleet@@QAEXXZ      004684f0 f   fleet.obj
 0001:00068330       ?GetFormationPosition@Fleet@@QAEXHHPAVFixed@@0@Z 00469330 f   fleet.obj
 0001:00068a40       ?AlterWaypoints@Fleet@@QAEXVFixed@@0_N@Z 00469a40 f   fleet.obj
 0001:00068b60       ?MoveFleet@Fleet@@QAEXVFixed@@0_N@Z 00469b60 f   fleet.obj
 0001:00069480       ?IsValidFleetPosition@Fleet@@QAE_NVFixed@@0@Z 0046a480 f   fleet.obj
 0001:00069590       ?FleetAction@Fleet@@QAEXH@Z 0046a590 f   fleet.obj
 0001:000695f0       ?ValidFleetPlacement@Fleet@@QAE_NVFixed@@0@Z 0046a5f0 f   fleet.obj
 0001:00069690       ?PlaceFleet@Fleet@@QAEXVFixed@@0@Z 0046a690 f   fleet.obj
 0001:000698a0       ?IsFleetMoving@Fleet@@QAE_NXZ 0046a8a0 f   fleet.obj
 0001:000699b0       ?IsFleetIdle@Fleet@@QAE_NXZ 0046a9b0 f   fleet.obj
 0001:00069a20       ?RunAI@Fleet@@QAEXXZ       0046aa20 f   fleet.obj
 0001:00069b20       ?RunAIHunting@Fleet@@QAEXXZ 0046ab20 f   fleet.obj
 0001:00069c10       ?RunAISneaking@Fleet@@QAEXXZ 0046ac10 f   fleet.obj
 0001:00069e00       ?FindGoodAttackSpot@Fleet@@QAE_NAAVFixed@@0@Z 0046ae00 f   fleet.obj
 0001:0006a330       ??0ValidTargetPoint@@QAE@XZ 0046b330 f i fleet.obj
 0001:0006a340       ??0ValidTargetPoint@@QAE@ABU0@@Z 0046b340 f i fleet.obj
 0001:0006a360       ?FindGoodAttackSpotSlow@Fleet@@QAE_NAAVFixed@@0@Z 0046b360 f   fleet.obj
 0001:0006a890       ?RunAIIntercepting@Fleet@@QAEXXZ 0046b890 f   fleet.obj
 0001:0006ab70       ?GetFleetMembers@Fleet@@SAXHPAH00@Z 0046bb70 f   fleet.obj
 0001:0006ac20       ?CountSurvivingMembers@Fleet@@QAEHXZ 0046bc20 f   fleet.obj
 0001:0006ac80       ?GetFleetPosition@Fleet@@QAEXPAVFixed@@0@Z 0046bc80 f   fleet.obj
 0001:0006af80       ?IsAtTarget@Fleet@@QAE_NXZ 0046bf80 f   fleet.obj
 0001:0006aff0       ?IsInCombat@Fleet@@QAE_NXZ 0046bff0 f   fleet.obj
 0001:0006b060       ?IsInFleet@Fleet@@QAE_NH@Z 0046c060 f   fleet.obj
 0001:0006b0c0       ?GetFleetMemberId@Fleet@@QAEHH@Z 0046c0c0 f   fleet.obj
 0001:0006b100       ?IsOnSameSideOfSeam@Fleet@@QAE_NXZ 0046c100 f   fleet.obj
 0001:0006b2a0       ?StopFleet@Fleet@@QAEXXZ   0046c2a0 f   fleet.obj
 0001:0006b370       ?CheckFleetFormation@Fleet@@QAEXXZ 0046c370 f   fleet.obj
 0001:0006b510       ?CounterSubs@Fleet@@QAEXXZ 0046c510 f   fleet.obj
 0001:0006b5a0       ?CountNukesInFleet@Fleet@@QAEHXZ 0046c5a0 f   fleet.obj
 0001:0006b650       ?CreateBlip@Fleet@@QAEXXZ  0046c650 f   fleet.obj
 0001:0006b6d0       ?CreateBlip@Fleet@@QAEXVFixed@@0H@Z 0046c6d0 f   fleet.obj
 0001:0006baa0       ?FindBlip@Fleet@@QAE_NH@Z  0046caa0 f   fleet.obj
 0001:0006baf0       ?IsInNukeRange@Fleet@@QAE_NXZ 0046caf0 f   fleet.obj
 0001:0006bed0       ?IsIgnoringPoint@Fleet@@QAE_NH@Z 0046ced0 f   fleet.obj
 0001:0006bf20       ?GetSpeedDropoff@Fleet@@QAE?AVFixed@@XZ 0046cf20 f   fleet.obj
 0001:0006c100       ?IgnoreSpeedDropoff@Fleet@@QAE_NXZ 0046d100 f   fleet.obj
 0001:0006c160       ?LogState@Fleet@@QAEPADXZ  0046d160 f   fleet.obj
 0001:0006c1c0       ?Zero@?$Vector3@VFixed@@@@QAEXXZ 0046d1c0 f i fleet.obj
 0001:0006c1f0       ??0?$LList@PAVBlip@@@@QAE@XZ 0046d1f0 f i fleet.obj
 0001:0006c210       ??1?$LList@PAVBlip@@@@QAE@XZ 0046d210 f i fleet.obj
 0001:0006c220       ?PutData@?$LList@PAVBlip@@@@QAEXABQAVBlip@@@Z 0046d220 f i fleet.obj
 0001:0006c230       ??0?$LList@UValidTargetPoint@@@@QAE@XZ 0046d230 f i fleet.obj
 0001:0006c250       ??1?$LList@UValidTargetPoint@@@@QAE@XZ 0046d250 f i fleet.obj
 0001:0006c260       ?PutDataAtEnd@?$LList@UValidTargetPoint@@@@QAEXABUValidTargetPoint@@@Z 0046d260 f i fleet.obj
 0001:0006c2d0       ?PutDataAtIndex@?$LList@UValidTargetPoint@@@@QAEXABUValidTargetPoint@@H@Z 0046d2d0 f i fleet.obj
 0001:0006c380       ?GetPointer@?$LList@UValidTargetPoint@@@@QBEPAUValidTargetPoint@@H@Z 0046d380 f i fleet.obj
 0001:0006c390       ?RemoveData@?$LList@UValidTargetPoint@@@@QAEXH@Z 0046d390 f i fleet.obj
 0001:0006c440       ?Size@?$LList@UValidTargetPoint@@@@QBEHXZ 0046d440 f i fleet.obj
 0001:0006c450       ??_G?$LListItem@UValidTargetPoint@@@@QAEPAXI@Z 0046d450 f i fleet.obj
 0001:0006c460       ?PutDataAtEnd@?$LList@PAVBlip@@@@QAEXABQAVBlip@@@Z 0046d460 f i fleet.obj
 0001:0006c4c0       ?Empty@?$LList@PAVBlip@@@@QAEXXZ 0046d4c0 f i fleet.obj
 0001:0006c500       ?GetItem@?$LList@UValidTargetPoint@@@@IBEPAV?$LListItem@UValidTargetPoint@@@@H@Z 0046d500 f i fleet.obj
 0001:0006c590       ?PutDataAtStart@?$LList@UValidTargetPoint@@@@QAEXABUValidTargetPoint@@@Z 0046d590 f i fleet.obj
 0001:0006c610       ?Empty@?$LList@UValidTargetPoint@@@@QAEXXZ 0046d610 f i fleet.obj
 0001:0006c650       ??0?$LListItem@UValidTargetPoint@@@@QAE@XZ 0046d650 f i fleet.obj
 0001:0006c670       ??1?$LListItem@UValidTargetPoint@@@@QAE@XZ 0046d670 f i fleet.obj
 0001:0006c680       ??0?$LListItem@PAVBlip@@@@QAE@XZ 0046d680 f i fleet.obj
 0001:0006c690       ?ValidIndex@?$LList@UValidTargetPoint@@@@QBE_NH@Z 0046d690 f i fleet.obj
 0001:0006c6b0       ??0GunFire@@QAE@VFixed@@@Z 0046d6b0 f   gunfire.obj
 0001:0006c830       ?Update@GunFire@@UAE_NXZ   0046d830 f   gunfire.obj
 0001:0006cc10       ?Render@GunFire@@UAEXXZ    0046dc10 f   gunfire.obj
 0001:0006d010       ?MoveToWaypoint@GunFire@@QAE_NXZ 0046e010 f   gunfire.obj
 0001:0006d330       ?CalculateNewPosition@GunFire@@QAEXPAVFixed@@00@Z 0046e330 f   gunfire.obj
 0001:0006d940       ?Impact@GunFire@@UAEXXZ    0046e940 f   gunfire.obj
 0001:0006db40       ??X?$Vector3@VFixed@@@@QAEABV0@VFixed@@@Z 0046eb40 f i gunfire.obj
 0001:0006db90       ?Normalise@?$Vector3@VFixed@@@@QAEABV1@XZ 0046eb90 f i gunfire.obj
 0001:0006dd30       ??$Clamp@VFixed@@@@YAXAAVFixed@@V0@1@Z 0046ed30 f i gunfire.obj
 0001:0006dd80       ??0MovingObject@@QAE@XZ    0046ed80 f   movingobject.obj
 0001:0006de70       ??1MovingObject@@QAE@XZ    0046ee70 f   movingobject.obj
 0001:0006dea0       ?InitialiseTimers@MovingObject@@UAEXXZ 0046eea0 f   movingobject.obj
 0001:0006def0       ?Update@MovingObject@@UAE_NXZ 0046eef0 f   movingobject.obj
 0001:0006e520       ?IsValidPosition@MovingObject@@QAE_NVFixed@@0@Z 0046f520 f   movingobject.obj
 0001:0006e5b0       ?SetWaypoint@MovingObject@@UAEXVFixed@@0@Z 0046f5b0 f   movingobject.obj
 0001:0006e800       ?FFClamp@@YAXAAVFixed@@_K@Z 0046f800 f   movingobject.obj
 0001:0006e830       ?CalculateNewPosition@MovingObject@@QAEXPAVFixed@@00@Z 0046f830 f   movingobject.obj
 0001:0006efe0       ?MoveToWaypoint@MovingObject@@QAE_NXZ 0046ffe0 f   movingobject.obj
 0001:0006f460       ?CrossSeam@MovingObject@@QAEXXZ 00470460 f   movingobject.obj
 0001:0006f790       ?Render@MovingObject@@UAEXXZ 00470790 f   movingobject.obj
 0001:0006fab0       ?RenderHistory@MovingObject@@QAEXXZ 00470ab0 f   movingobject.obj
 0001:0006ff00       ?GetAttackState@MovingObject@@UAEHXZ 00470f00 f   movingobject.obj
 0001:0006ff10       ?IsIdle@MovingObject@@UAE_NXZ 00470f10 f   movingobject.obj
 0001:0006ffc0       ?RenderGhost@MovingObject@@UAEXH@Z 00470fc0 f   movingobject.obj
 0001:00070350       ?Land@MovingObject@@UAEXH@Z 00471350 f   movingobject.obj
 0001:00070360       ?ClearWaypoints@MovingObject@@QAEXXZ 00471360 f   movingobject.obj
 0001:00070420       ?IsValidMovementTarget@MovingObject@@UAEHVFixed@@0@Z 00471420 f   movingobject.obj
 0001:00070580       ?AutoLand@MovingObject@@QAEXXZ 00471580 f   movingobject.obj
 0001:00070650       ?GetClosestLandingPad@MovingObject@@QAEHXZ 00471650 f   movingobject.obj
 0001:00070850       ?Retaliate@MovingObject@@UAEXH@Z 00471850 f   movingobject.obj
 0001:000709b0       ?Ping@MovingObject@@QAEXXZ 004719b0 f   movingobject.obj
 0001:00070fe0       ?SetSpeed@MovingObject@@QAEXVFixed@@@Z 00471fe0 f   movingobject.obj
 0001:00071000       ?GetTarget@MovingObject@@UAEHVFixed@@@Z 00472000 f   movingobject.obj
 0001:000712f0       ?LogState@MovingObject@@UAEPADXZ 004722f0 f   movingobject.obj
 0001:000716e0       ?EmptyAndDelete@?$LList@PAV?$Vector3@VFixed@@@@@@QAEXXZ 004726e0 f i movingobject.obj
 0001:00071720       ??0Node@@QAE@XZ            00472720 f   node.obj
 0001:00071740       ?AddRoute@Node@@QAEXHHVFixed@@@Z 00472740 f   node.obj
 0001:00071840       ??0Route@@QAE@XZ           00472840 f i node.obj
 0001:00071850       ?GetRouteId@Node@@QAEHH@Z  00472850 f   node.obj
 0001:000718a0       ??0?$LList@PAURoute@@@@QAE@XZ 004728a0 f i node.obj
 0001:000718c0       ??1?$LList@PAURoute@@@@QAE@XZ 004728c0 f i node.obj
 0001:000718d0       ?PutData@?$LList@PAURoute@@@@QAEXABQAURoute@@@Z 004728d0 f i node.obj
 0001:000718e0       ?RemoveData@?$LList@PAURoute@@@@QAEXH@Z 004728e0 f i node.obj
 0001:00071990       ??_G?$LListItem@PAURoute@@@@QAEPAXI@Z 00472990 f i node.obj
 0001:000719a0       ?PutDataAtEnd@?$LList@PAURoute@@@@QAEXABQAURoute@@@Z 004729a0 f i node.obj
 0001:00071a00       ?Empty@?$LList@PAURoute@@@@QAEXXZ 00472a00 f i node.obj
 0001:00071a40       ??1?$LListItem@PAURoute@@@@QAE@XZ 00472a40 f i node.obj
 0001:00071a50       ??0?$LListItem@PAURoute@@@@QAE@XZ 00472a50 f i node.obj
 0001:00071a60       ?abs@Fixed@@QAE?AV1@XZ     00472a60 f i nuke.obj
 0001:00071a80       ??0Nuke@@QAE@XZ            00472a80 f   nuke.obj
 0001:00071cf0       ?Action@Nuke@@UAEXHVFixed@@0@Z 00472cf0 f   nuke.obj
 0001:00071d00       ?SetWaypoint@Nuke@@UAEXVFixed@@0@Z 00472d00 f   nuke.obj
 0001:00071e40       ?Update@Nuke@@UAE_NXZ      00472e40 f   nuke.obj
 0001:00073110       ?GetTargettedObject@Nuke@@IAEPAVWorldObject@@XZ 00474110 f   nuke.obj
 0001:00073160       ?GetTargettedCity@Nuke@@IAEPAVCity@@XZ 00474160 f   nuke.obj
 0001:000731d0       ?InsertIntoCityListOrderd@Nuke@@IAEXPAV?$LList@PAVCity@@@@PAVCity@@@Z 004741d0 f   nuke.obj
 0001:000732f0       ?Render@Nuke@@UAEXXZ       004742f0 f   nuke.obj
 0001:00073300       ?SetMirv@Nuke@@QAEX_N@Z    00474300 f   nuke.obj
 0001:00073390       ?FindTarget@Nuke@@SAXHHHVFixed@@PAV2@1@Z 00474390 f   nuke.obj
 0001:000733c0       ?FindTarget@Nuke@@SAXHHHVFixed@@PAV2@1PAH@Z 004743c0 f   nuke.obj
 0001:000737d0       ?CountTargetedNukes@Nuke@@SAHHVFixed@@0@Z 004747d0 f   nuke.obj
 0001:00073d10       ?CeaseFire@Nuke@@UAEXH@Z   00474d10 f   nuke.obj
 0001:00073d60       ?IsValidMovementTarget@Nuke@@UAEHVFixed@@0@Z 00474d60 f   nuke.obj
 0001:00073d70       ?LockTarget@Nuke@@QAEXXZ   00474d70 f   nuke.obj
 0001:00073d80       ?PutDataAtIndex@?$LList@PAVCity@@@@QAEXABQAVCity@@H@Z 00474d80 f i nuke.obj
 0001:00073e00       ?PutDataAtStart@?$LList@PAVCity@@@@QAEXABQAVCity@@@Z 00474e00 f i nuke.obj
 0001:00073e70       ??0RadarGrid@@QAE@XZ       00474e70 f   radargrid.obj
 0001:00073e80       ?Initialise@RadarGrid@@QAEXHH@Z 00474e80 f   radargrid.obj
 0001:00073fb0       ??_E?$BoundedArray@E@@QAEPAXI@Z 00474fb0 f i radargrid.obj
 0001:00074010       ?GetIndices@RadarGrid@@IAEXVFixed@@0AAH1@Z 00475010 f   radargrid.obj
 0001:00074200       ?GetIndices@RadarGrid@@IAEXVFixed@@00AAH111@Z 00475200 f   radargrid.obj
 0001:000745a0       ?GetIndicesRadar@RadarGrid@@IAEXAAH0@Z 004755a0 f   radargrid.obj
 0001:000745f0       ?GetWorldLocation@RadarGrid@@IAEXHHAAVFixed@@0@Z 004755f0 f   radargrid.obj
 0001:00074870       ?ModifyCoverage@RadarGrid@@IAEXVFixed@@00H_N@Z 00475870 f   radargrid.obj
 0001:00074ba0       ?AddCoverage@RadarGrid@@QAEXVFixed@@00H@Z 00475ba0 f   radargrid.obj
 0001:00074be0       ?RemoveCoverage@RadarGrid@@QAEXVFixed@@00H@Z 00475be0 f   radargrid.obj
 0001:00074c20       ?UpdateCoverage@RadarGrid@@QAEXVFixed@@00000H@Z 00475c20 f   radargrid.obj
 0001:00074d10       ?GetCoverage@RadarGrid@@QAEHVFixed@@0H@Z 00475d10 f   radargrid.obj
 0001:00074d90       ?Render@RadarGrid@@QAEXXZ  00475d90 f   radargrid.obj
 0001:00074f70       ??0?$BoundedArray@E@@QAE@XZ 00475f70 f i radargrid.obj
 0001:00074f80       ??1?$BoundedArray@E@@QAE@XZ 00475f80 f i radargrid.obj
 0001:00074f90       ?Initialise@?$BoundedArray@E@@QAEXI@Z 00475f90 f i radargrid.obj
 0001:00074fb0       ??A?$BoundedArray@E@@QAEAAEI@Z 00475fb0 f i radargrid.obj
 0001:00074fe0       ?SetAll@?$BoundedArray@E@@QAEXABE@Z 00475fe0 f i radargrid.obj
 0001:00075000       ?Empty@?$BoundedArray@E@@QAEXXZ 00476000 f i radargrid.obj
 0001:00075020       ??0RadarStation@@QAE@XZ    00476020 f   radarstation.obj
 0001:00075120       ??0Saucer@@QAE@XZ          00476120 f   saucer.obj
 0001:00075370       ?Action@Saucer@@UAEXHVFixed@@0@Z 00476370 f   saucer.obj
 0001:000753a0       ?Update@Saucer@@UAE_NXZ    004763a0 f   saucer.obj
 0001:00075840       ?Render@Saucer@@UAEXXZ     00476840 f   saucer.obj
 0001:00075a60       ?GetActionRange@Saucer@@UAE?AVFixed@@XZ 00476a60 f   saucer.obj
 0001:00075a90       ?GetNewTarget@Saucer@@QAEXXZ 00476a90 f   saucer.obj
 0001:00075b90       ??0Silo@@QAE@XZ            00476b90 f   silo.obj
 0001:00075da0       ?Action@Silo@@UAEXHVFixed@@0@Z 00476da0 f   silo.obj
 0001:00076000       ?SetState@Silo@@UAEXH@Z    00477000 f   silo.obj
 0001:000760a0       ?Update@Silo@@UAE_NXZ      004770a0 f   silo.obj
 0001:00076290       ?Render@Silo@@UAEXXZ       00477290 f   silo.obj
 0001:00076470       ?RunAI@Silo@@UAEXXZ        00477470 f   silo.obj
 0001:000766e0       ?GetTargetObjectId@Silo@@QAEHXZ 004776e0 f   silo.obj
 0001:000766f0       ?IsActionQueueable@Silo@@UAE_NXZ 004776f0 f   silo.obj
 0001:00076700       ?UsingGuns@Silo@@UAE_NXZ   00477700 f   silo.obj
 0001:00076710       ?UsingNukes@Silo@@UAE_NXZ  00477710 f   silo.obj
 0001:00076720       ?NukeStrike@Silo@@UAEXXZ   00477720 f   silo.obj
 0001:00076830       ?AirDefense@Silo@@QAEXXZ   00477830 f   silo.obj
 0001:00076a30       ?GetAttackOdds@Silo@@UAEHH@Z 00477a30 f   silo.obj
 0001:00076a90       ?IsValidCombatTarget@Silo@@UAEHH@Z 00477a90 f   silo.obj
 0001:00076b60       ?GetBmpImage@Silo@@UAEPAVImage@@H@Z 00477b60 f   silo.obj
 0001:00076b90       ?CeaseFire@Silo@@UAEXH@Z   00477b90 f   silo.obj
 0001:00076c20       ?RemoveData@?$LList@PAVActionOrder@@@@QAEXH@Z 00477c20 f i silo.obj
 0001:00076cd0       ??_G?$LListItem@PAVActionOrder@@@@QAEPAXI@Z 00477cd0 f i silo.obj
 0001:00076ce0       ??1?$LListItem@PAVActionOrder@@@@QAE@XZ 00477ce0 f i silo.obj
 0001:00076cf0       ??0Sub@@QAE@XZ             00477cf0 f   sub.obj
 0001:00076fe0       ?Action@Sub@@UAEXHVFixed@@0@Z 00477fe0 f   sub.obj
 0001:00077160       ?IsHiddenFrom@Sub@@UAE_NXZ 00478160 f   sub.obj
 0001:00077210       ?Update@Sub@@UAE_NXZ       00478210 f   sub.obj
 0001:000775b0       ?Render@Sub@@UAEXXZ        004785b0 f   sub.obj
 0001:000777b0       ?RunAI@Sub@@UAEXXZ         004787b0 f   sub.obj
 0001:00077e30       ?FindTarget@Sub@@IAEPAVWorldObject@@XZ 00478e30 f   sub.obj
 0001:000780a0       ?GetAttackState@Sub@@UAEHXZ 004790a0 f   sub.obj
 0001:000780b0       ?IsIdle@Sub@@UAE_NXZ       004790b0 f   sub.obj
 0001:00078160       ?UsingGuns@Sub@@UAE_NXZ    00479160 f   sub.obj
 0001:00078180       ?UsingNukes@Sub@@UAE_NXZ   00479180 f   sub.obj
 0001:000781a0       ?SetState@Sub@@UAEXH@Z     004791a0 f   sub.obj
 0001:000781f0       ?ChangePosition@Sub@@QAEXXZ 004791f0 f   sub.obj
 0001:00078320       ?IsActionQueueable@Sub@@UAE_NXZ 00479320 f   sub.obj
 0001:00078340       ?IsPinging@Sub@@UAE_NXZ    00479340 f   sub.obj
 0001:00078350       ?IsValidMovementTarget@Sub@@UAEHVFixed@@0@Z 00479350 f   sub.obj
 0001:00078390       ?GetAttackOdds@Sub@@UAEHH@Z 00479390 f   sub.obj
 0001:00078420       ?IsValidCombatTarget@Sub@@UAEHH@Z 00479420 f   sub.obj
 0001:00078560       ?FleetAction@Sub@@UAEXH@Z  00479560 f   sub.obj
 0001:000785f0       ?RequestAction@Sub@@UAEXPAVActionOrder@@@Z 004795f0 f   sub.obj
 0001:00078680       ?IsSafeTarget@Sub@@IAE_NPAVFleet@@@Z 00479680 f   sub.obj
 0001:00078720       ??0Event@@QAE@XZ           00479720 f i team.obj
 0001:00078770       ??0Team@@QAE@XZ            00479770 f   team.obj
 0001:00078970       ?SetTeamType@Team@@QAEXH@Z 00479970 f   team.obj
 0001:00078980       ?SetTeamId@Team@@QAEXH@Z   00479980 f   team.obj
 0001:00078990       ?SetTeamName@Team@@QAEXPAD@Z 00479990 f   team.obj
 0001:000789b0       ?IsValidName@Team@@SA_NPAD@Z 004799b0 f   team.obj
 0001:00078a10       ?GetTeamColour@Team@@QAE?AVColour@@XZ 00479a10 f   team.obj
 0001:00078b20       ?GetTeamType@Team@@QAEPADXZ 00479b20 f   team.obj
 0001:00078bb0       ?GetTeamName@Team@@QAEPADXZ 00479bb0 f   team.obj
 0001:00078c00       ?GetRemainingPopulation@Team@@QAEHXZ 00479c00 f   team.obj
 0001:00078c70       ?GetPlacementPriority@Team@@QAEHXZ 00479c70 f   team.obj
 0001:00078f90       ?CheckPanicState@Team@@QAEXXZ 00479f90 f   team.obj
 0001:00079080       ?RunAI@Team@@QAEXXZ        0047a080 f   team.obj
 0001:000797a0       ?PlacementAI@Team@@QAEXXZ  0047a7a0 f   team.obj
 0001:0007a6e0       ?ScoutingAI@Team@@QAEXXZ   0047b6e0 f   team.obj
 0001:0007a7b0       ?AssaultAI@Team@@QAEXXZ    0047b7b0 f   team.obj
 0001:0007a880       ?StrikeAI@Team@@QAEXXZ     0047b880 f   team.obj
 0001:0007ab70       ?HandleAIEvents@Team@@QAEXXZ 0047bb70 f   team.obj
 0001:0007aeb0       ?GetClosestObject@Team@@QAE?AVFixed@@HH@Z 0047beb0 f   team.obj
 0001:0007afe0       ?CheckCityCoverage@Team@@QAE_NHPAVFixed@@0@Z 0047bfe0 f   team.obj
 0001:0007b160       ?IsSafeLocation@Team@@QAE_NVFixed@@0@Z 0047c160 f   team.obj
 0001:0007b230       ?GetUncoveredArea@Team@@QAE_N_NPAVFixed@@1@Z 0047c230 f   team.obj
 0001:0007b3f0       ?AssembleFleet@Team@@QAE_NH@Z 0047c3f0 f   team.obj
 0001:0007b870       ?CanAssembleFleet@Team@@QAE_NXZ 0047c870 f   team.obj
 0001:0007b980       ?CanAssembleFleet@Team@@QAE_NH@Z 0047c980 f   team.obj
 0001:0007ba70       ?AddEvent@Team@@QAEXHHHHVFixed@@0@Z 0047ca70 f   team.obj
 0001:0007bb80       ?DeleteEvent@Team@@QAEXH@Z 0047cb80 f   team.obj
 0001:0007bbc0       ?GetEvent@Team@@QAEPAVEvent@@H@Z 0047cbc0 f   team.obj
 0001:0007bbe0       ?CountTargettedUnits@Team@@QAEHH@Z 0047cbe0 f   team.obj
 0001:0007bce0       ?GetNumTargets@Team@@QAEHXZ 0047cce0 f   team.obj
 0001:0007be10       ?ChangeState@Team@@QAEXH@Z 0047ce10 f   team.obj
 0001:0007be30       ?OwnsTerritory@Team@@QAE_NH@Z 0047ce30 f   team.obj
 0001:0007be80       ?RemoveTerritory@Team@@QAEXH@Z 0047ce80 f   team.obj
 0001:0007bed0       ?AddTerritory@Team@@QAEXH@Z 0047ced0 f   team.obj
 0001:0007bf10       ?AssignAITerritory@Team@@QAEXXZ 0047cf10 f   team.obj
 0001:0007bf80       ?CreateFleet@Team@@QAEXXZ  0047cf80 f   team.obj
 0001:0007bfd0       ?GetFleet@Team@@QAEPAVFleet@@H@Z 0047cfd0 f   team.obj
 0001:0007bff0       ??0?$LList@PAVFleet@@@@QAE@XZ 0047cff0 f i team.obj
 0001:0007c010       ??1?$LList@PAVFleet@@@@QAE@XZ 0047d010 f i team.obj
 0001:0007c020       ?PutData@?$LList@PAVFleet@@@@QAEXABQAVFleet@@@Z 0047d020 f i team.obj
 0001:0007c030       ??0?$LList@PAVEvent@@@@QAE@XZ 0047d030 f i team.obj
 0001:0007c050       ??1?$LList@PAVEvent@@@@QAE@XZ 0047d050 f i team.obj
 0001:0007c060       ?PutData@?$LList@PAVEvent@@@@QAEXABQAVEvent@@@Z 0047d060 f i team.obj
 0001:0007c070       ?RemoveData@?$LList@PAVEvent@@@@QAEXH@Z 0047d070 f i team.obj
 0001:0007c120       ??0?$BoundedArray@M@@QAE@XZ 0047d120 f i team.obj
 0001:0007c130       ??1?$BoundedArray@M@@QAE@XZ 0047d130 f i team.obj
 0001:0007c140       ?Initialise@?$BoundedArray@M@@QAEXI@Z 0047d140 f i team.obj
 0001:0007c170       ?SetAll@?$BoundedArray@M@@QAEXABM@Z 0047d170 f i team.obj
 0001:0007c190       ??_G?$LListItem@PAVEvent@@@@QAEPAXI@Z 0047d190 f i team.obj
 0001:0007c1a0       ?PutDataAtEnd@?$LList@PAVFleet@@@@QAEXABQAVFleet@@@Z 0047d1a0 f i team.obj
 0001:0007c200       ?Empty@?$LList@PAVFleet@@@@QAEXXZ 0047d200 f i team.obj
 0001:0007c240       ?PutDataAtEnd@?$LList@PAVEvent@@@@QAEXABQAVEvent@@@Z 0047d240 f i team.obj
 0001:0007c2a0       ?Empty@?$LList@PAVEvent@@@@QAEXXZ 0047d2a0 f i team.obj
 0001:0007c2e0       ??1?$LListItem@PAVEvent@@@@QAE@XZ 0047d2e0 f i team.obj
 0001:0007c2f0       ?Empty@?$BoundedArray@M@@QAEXXZ 0047d2f0 f i team.obj
 0001:0007c310       ??_G?$LListItem@PAVFleet@@@@QAEPAXI@Z 0047d310 f i team.obj
 0001:0007c320       ??0?$LListItem@PAVFleet@@@@QAE@XZ 0047d320 f i team.obj
 0001:0007c330       ??1?$LListItem@PAVFleet@@@@QAE@XZ 0047d330 f i team.obj
 0001:0007c340       ??0?$LListItem@PAVEvent@@@@QAE@XZ 0047d340 f i team.obj
 0001:0007c350       ??0Tornado@@QAE@XZ         0047d350 f   tornado.obj
 0001:0007c510       ?Action@Tornado@@QAEXHMM@Z 0047d510 f   tornado.obj
 0001:0007c520       ?Update@Tornado@@UAE_NXZ   0047d520 f   tornado.obj
 0001:0007c8f0       ?GetActionRange@Tornado@@UAE?AVFixed@@XZ 0047d8f0 f   tornado.obj
 0001:0007c940       ?Render@Tornado@@UAEXXZ    0047d940 f   tornado.obj
 0001:0007cac0       ?GetSize@Tornado@@UAE?AVFixed@@XZ 0047dac0 f   tornado.obj
 0001:0007cae0       ?SetSize@Tornado@@QAEXVFixed@@@Z 0047dae0 f   tornado.obj
 0001:0007cb00       ?GetNewTarget@Tornado@@QAEXXZ 0047db00 f   tornado.obj
 0001:0007cb80       ??0VotingSystem@@QAE@XZ    0047db80 f   votingsystem.obj
 0001:0007cba0       ?RegisterNewVote@VotingSystem@@QAEXHHH@Z 0047dba0 f   votingsystem.obj
 0001:0007cdc0       ?CastVote@VotingSystem@@QAEXHHH@Z 0047ddc0 f   votingsystem.obj
 0001:0007ce10       ?LookupVote@VotingSystem@@QAEPAVVote@@H@Z 0047de10 f   votingsystem.obj
 0001:0007ce30       ?Update@VotingSystem@@QAEXXZ 0047de30 f   votingsystem.obj
 0001:0007cfc0       ??0Vote@@QAE@XZ            0047dfc0 f   votingsystem.obj
 0001:0007d060       ?GetRequiredAllianceId@Vote@@QAEHXZ 0047e060 f   votingsystem.obj
 0001:0007d0a0       ?CanSeeVote@Vote@@QAE_NH@Z 0047e0a0 f   votingsystem.obj
 0001:0007d110       ?GetCurrentVote@Vote@@QAEHH@Z 0047e110 f   votingsystem.obj
 0001:0007d140       ?GetVotesRequired@Vote@@QAEHXZ 0047e140 f   votingsystem.obj
 0001:0007d210       ?GetCurrentVote@Vote@@QAEXPAH00@Z 0047e210 f   votingsystem.obj
 0001:0007d300       ?Finish@Vote@@QAEXH@Z      0047e300 f   votingsystem.obj
 0001:0007d6f0       ??0?$DArray@PAVVote@@@@QAE@XZ 0047e6f0 f i votingsystem.obj
 0001:0007d710       ?PutData@?$DArray@PAVVote@@@@QAEHABQAVVote@@@Z 0047e710 f i votingsystem.obj
 0001:0007d760       ?Size@?$DArray@PAVVote@@@@QBEHXZ 0047e760 f i votingsystem.obj
 0001:0007d770       ?ValidIndex@?$DArray@PAVVote@@@@QBE_NH@Z 0047e770 f i votingsystem.obj
 0001:0007d790       ??A?$DArray@PAVVote@@@@QAEAAPAVVote@@H@Z 0047e790 f i votingsystem.obj
 0001:0007d7e0       ??A?$BoundedArray@M@@QAEAAMI@Z 0047e7e0 f i votingsystem.obj
 0001:0007d810       ?Grow@?$DArray@PAVVote@@@@IAEXXZ 0047e810 f i votingsystem.obj
 0001:0007d840       ?SetSize@?$DArray@PAVVote@@@@QAEXH@Z 0047e840 f i votingsystem.obj
 0001:0007d940       ?ceil@@YAMM@Z              0047e940 f i votingsystem.obj
 0001:0007d970       ??0WhiteBoard@@QAE@XZ      0047e970 f   whiteboard.obj
 0001:0007d9a0       ??1WhiteBoard@@QAE@XZ      0047e9a0 f   whiteboard.obj
 0001:0007d9e0       ?RequestStartLine@WhiteBoard@@QAEXMM@Z 0047e9e0 f   whiteboard.obj
 0001:0007daa0       ?RequestAddLinePoint@WhiteBoard@@QAEXMMMM@Z 0047eaa0 f   whiteboard.obj
 0001:0007db60       ?RequestErase@WhiteBoard@@QAEXMMMM@Z 0047eb60 f   whiteboard.obj
 0001:0007dc00       ?RequestEraseAllLines@WhiteBoard@@QAEXXZ 0047ec00 f   whiteboard.obj
 0001:0007e8a0       ?AddPoint@WhiteBoard@@IAE_NW4Action@1@HMM@Z 0047f8a0 f   whiteboard.obj
 0001:0007e990       ?ErasePoint@WhiteBoard@@IAE_NH@Z 0047f990 f   whiteboard.obj
 0001:0007e9f0       ?EraseBlock@WhiteBoard@@IAEXMMMM@Z 0047f9f0 f   whiteboard.obj
 0001:0007ed70       ?ReceivedAction@WhiteBoard@@QAEXW4Action@1@HMMMM@Z 0047fd70 f   whiteboard.obj
 0001:0007ee40       ?GetListPoints@WhiteBoard@@QBEPBV?$LList@PAVWhiteBoardPoint@@@@XZ 0047fe40 f   whiteboard.obj
 0001:0007ee50       ?HasChanges@WhiteBoard@@QBE_NXZ 0047fe50 f   whiteboard.obj
 0001:0007ee60       ?ClearChanges@WhiteBoard@@QAEXXZ 0047fe60 f   whiteboard.obj
 0001:0007ee70       ??0WhiteBoardPoint@@QAE@HMM_N@Z 0047fe70 f   whiteboard.obj
 0001:0007ee90       ??0?$LList@PAVWhiteBoardPoint@@@@QAE@XZ 0047fe90 f i whiteboard.obj
 0001:0007eeb0       ??1?$LList@PAVWhiteBoardPoint@@@@QAE@XZ 0047feb0 f i whiteboard.obj
 0001:0007eec0       ?PutData@?$LList@PAVWhiteBoardPoint@@@@QAEXABQAVWhiteBoardPoint@@@Z 0047fec0 f i whiteboard.obj
 0001:0007eed0       ?PutDataAtIndex@?$LList@PAVWhiteBoardPoint@@@@QAEXABQAVWhiteBoardPoint@@H@Z 0047fed0 f i whiteboard.obj
 0001:0007ef50       ?RemoveData@?$LList@PAVWhiteBoardPoint@@@@QAEXH@Z 0047ff50 f i whiteboard.obj
 0001:0007f000       ?Empty@?$LList@PAVWhiteBoardPoint@@@@QAEXXZ 00480000 f i whiteboard.obj
 0001:0007f040       ??_G?$LListItem@PAVWhiteBoardPoint@@@@QAEPAXI@Z 00480040 f i whiteboard.obj
 0001:0007f050       ?PutDataAtEnd@?$LList@PAVWhiteBoardPoint@@@@QAEXABQAVWhiteBoardPoint@@@Z 00480050 f i whiteboard.obj
 0001:0007f0b0       ?PutDataAtStart@?$LList@PAVWhiteBoardPoint@@@@QAEXABQAVWhiteBoardPoint@@@Z 004800b0 f i whiteboard.obj
 0001:0007f120       ??0?$LListItem@PAVWhiteBoardPoint@@@@QAE@XZ 00480120 f i whiteboard.obj
 0001:0007f130       ??1?$LListItem@PAVWhiteBoardPoint@@@@QAE@XZ 00480130 f i whiteboard.obj
 0001:0007f150       ??0WorldMessage@@QAE@XZ    00480150 f i world.obj
 0001:0007f1c0       ??0Spectator@@QAE@XZ       004801c0 f i world.obj
 0001:0007f1d0       ??0World@@QAE@XZ           004801d0 f   world.obj
 0001:0007f420       ?GenerateUniqueId@World@@QAEHXZ 00480420 f   world.obj
 0001:0007f430       ?Init@World@@QAEXXZ        00480430 f   world.obj
 0001:0007f470       ?LoadNodes@World@@QAEXXZ   00480470 f   world.obj
 0001:0007fe10       ?GetGameScale@World@@SA?AVFixed@@XZ 00480e10 f   world.obj
 0001:0007fe60       ?AssignCities@World@@QAEXXZ 00480e60 f   world.obj
 0001:00081840       ?GetAllianceColour@World@@SA?AVColour@@H@Z 00482840 f   world.obj
 0001:000818f0       ?GetAllianceName@World@@QAEPADH@Z 004828f0 f   world.obj
 0001:000819b0       ?CountAllianceMembers@World@@QAEHH@Z 004829b0 f   world.obj
 0001:00081a10       ?FindFreeAllianceId@World@@QAEHXZ 00482a10 f   world.obj
 0001:00081a30       ?RequestAlliance@World@@QAEXHH@Z 00482a30 f   world.obj
 0001:00081a50       ?IsFriend@World@@QAE_NHH@Z 00482a50 f   world.obj
 0001:00081a90       ?InitialiseTeam@World@@QAEXHHH@Z 00482a90 f   world.obj
 0001:00081c90       ?InitialiseSpectator@World@@QAEXH@Z 00482c90 f   world.obj
 0001:00081d80       ?AmISpectating@World@@QAE_NXZ 00482d80 f   world.obj
 0001:00081da0       ?IsSpectating@World@@QAEHH@Z 00482da0 f   world.obj
 0001:00081df0       ?GetSpectator@World@@QAEPAVSpectator@@H@Z 00482df0 f   world.obj
 0001:00081e30       ?ReassignTeams@World@@QAEXH@Z 00482e30 f   world.obj
 0001:00081f80       ?RemoveTeams@World@@QAEXHH@Z 00482f80 f   world.obj
 0001:00082210       ?RemoveSpectator@World@@QAEXH@Z 00483210 f   world.obj
 0001:00082300       ?RemoveAITeam@World@@QAEXH@Z 00483300 f   world.obj
 0001:00082390       ?RemoveTeam@World@@QAEXH@Z 00483390 f   world.obj
 0001:00082400       ??_GTeam@@QAEPAXI@Z        00483400 f i world.obj
 0001:00082420       ??1Team@@QAE@XZ            00483420 f i world.obj
 0001:00082480       ?RandomObjects@World@@QAEXH@Z 00483480 f   world.obj
 0001:00082b70       ?LaunchNuke@World@@QAEXHHVFixed@@00@Z 00483b70 f   world.obj
 0001:00083180       ?GetNearestObject@World@@QAEHHVFixed@@0H_N@Z 00484180 f   world.obj
 0001:000832b0       ?IsValidPlacement@World@@QAE_NHVFixed@@0H@Z 004842b0 f   world.obj
 0001:000834c0       ?GetTeam@World@@QAEPAVTeam@@H@Z 004844c0 f   world.obj
 0001:00083500       ?GetMyTeam@World@@QAEPAVTeam@@XZ 00484500 f   world.obj
 0001:00083520       ?AddWorldObject@World@@QAEHPAVWorldObject@@@Z 00484520 f   world.obj
 0001:00083590       ?GetWorldObject@World@@QAEPAVWorldObject@@H@Z 00484590 f   world.obj
 0001:000835f0       ?Shutdown@World@@QAEXXZ    004845f0 f   world.obj
 0001:00083600       ?CreateExplosion@World@@QAEXHVFixed@@00H@Z 00484600 f   world.obj
 0001:000839e0       ?ObjectPlacement@World@@QAEXHHVFixed@@0H@Z 004849e0 f   world.obj
 0001:00083b00       ?ObjectStateChange@World@@QAEXHH@Z 00484b00 f   world.obj
 0001:00083b20       ?ObjectAction@World@@QAEXHHVFixed@@0_N@Z 00484b20 f   world.obj
 0001:00083c90       ?ObjectSetWaypoint@World@@QAEXHVFixed@@0@Z 00484c90 f   world.obj
 0001:00083cd0       ?ObjectClearActionQueue@World@@QAEXH@Z 00484cd0 f   world.obj
 0001:00083ce0       ?ObjectClearLastAction@World@@QAEXH@Z 00484ce0 f   world.obj
 0001:00083d00       ?ObjectSpecialAction@World@@QAEXHHH@Z 00484d00 f   world.obj
 0001:00083d30       ?FleetSetWaypoint@World@@QAEXHHVFixed@@0@Z 00484d30 f   world.obj
 0001:00083d70       ?TeamCeaseFire@World@@QAEXHH@Z 00484d70 f   world.obj
 0001:00083e10       ?TeamShareRadar@World@@QAEXHH@Z 00484e10 f   world.obj
 0001:00083e80       ?AssignTerritory@World@@QAEXHHH@Z 00484e80 f   world.obj
 0001:00083ef0       ?WhiteBoardAction@World@@QAEXHHHVFixed@@000@Z 00484ef0 f   world.obj
 0001:00083f60       ?AddWorldMessage@World@@QAEXVFixed@@0HPADH_N@Z 00484f60 f   world.obj
 0001:00084020       ?AddWorldMessage@World@@QAEXHHPADH_N@Z 00485020 f   world.obj
 0001:000840d0       ?AddDestroyedMessage@World@@QAEXHH_N@Z 004850d0 f   world.obj
 0001:000842e0       ?AddOutOfFueldMessage@World@@QAEXH@Z 004852e0 f   world.obj
 0001:00084300       ?Update@World@@QAEXXZ      00485300 f   world.obj
 0001:00085320       ??_GWorldObject@@QAEPAXI@Z 00486320 f i world.obj
 0001:00085340       ??_GGunFire@@QAEPAXI@Z     00486340 f i world.obj
 0001:00085360       ?CanSetTimeFactor@World@@QAE_NVFixed@@@Z 00486360 f   world.obj
 0001:00085470       ?IsVisible@World@@QAE_NVFixed@@0H@Z 00486470 f   world.obj
 0001:00085540       ?UpdateRadar@World@@QAEXXZ 00486540 f   world.obj
 0001:00085da0       ?GetDefcon@World@@QAEHXZ   00486da0 f   world.obj
 0001:00085e50       ?SetTimeScaleFactor@World@@QAEXVFixed@@@Z 00486e50 f   world.obj
 0001:00085e70       ?GetTimeScaleFactor@World@@QAE?AVFixed@@XZ 00486e70 f   world.obj
 0001:00085eb0       ?GenerateWorldEvent@World@@QAEXXZ 00486eb0 f   world.obj
 0001:00086060       ?IsSailable@World@@QAE_NABVFixed@@000@Z 00487060 f   world.obj
 0001:000863c0       ?IsSailableSlow@World@@QAE_NABVFixed@@000@Z 004873c0 f   world.obj
 0001:00086c10       ?GetClosestNode@World@@QAEHABVFixed@@0@Z 00487c10 f   world.obj
 0001:00086d40       ??0nodeInfoStruct@@QAE@XZ  00487d40 f i world.obj
 0001:00086d50       ?GetClosestNodeSlow@World@@QAEHABVFixed@@0@Z 00487d50 f   world.obj
 0001:00086df0       ?GetDistanceAcrossSeamSqd@World@@QAE?AVFixed@@ABV2@000@Z 00487df0 f   world.obj
 0001:00087120       ?GetDistanceAcrossSeam@World@@QAE?AVFixed@@ABV2@000@Z 00488120 f   world.obj
 0001:00087150       ?GetDistanceSqd@World@@QAE?AVFixed@@ABV2@000_N@Z 00488150 f   world.obj
 0001:000872d0       ?GetDistance@World@@QAE?AVFixed@@ABV2@000_N@Z 004882d0 f   world.obj
 0001:00087300       ?GetSailDistanceSlow@World@@QAE?AVFixed@@ABV2@000@Z 00488300 f   world.obj
 0001:00087940       ?GetSailDistance@World@@QAE?AVFixed@@ABV2@000@Z 00488940 f   world.obj
 0001:00087c70       ?GetSeamCrossLatitude@World@@QAEXV?$Vector3@VFixed@@@@0PAVFixed@@1@Z 00488c70 f   world.obj
 0001:00087e90       ?GetTerritoryOwner@World@@QAEHH@Z 00488e90 f   world.obj
 0001:00087ee0       ?GetNumNukers@World@@QAEXHPAH0@Z 00488ee0 f   world.obj
 0001:00088460       ?CreatePopList@World@@QAEXPAV?$LList@H@@@Z 00489460 f   world.obj
 0001:000884a0       ?IsChatMessageVisible@World@@QAE_NHH_N@Z 004894a0 f   world.obj
 0001:00088530       ?AddChatMessage@World@@QAEXHHPADH_N@Z 00489530 f   world.obj
 0001:000886b0       ?GetUnitValue@World@@QAEHH@Z 004896b0 f   world.obj
 0001:00088720       ?ParseCityDataFile@World@@SAXXZ 00489720 f   world.obj
 0001:000890b0       ?GetAttackOdds@World@@QAEHHHH@Z 0048a0b0 f   world.obj
 0001:000890e0       ?GetAttackOdds@World@@QAEHHH@Z 0048a0e0 f   world.obj
 0001:00089380       ?WriteNodeCoverageFile@World@@QAEXXZ 0048a380 f   world.obj
 0001:00089530       ?ClearWorld@World@@QAEXXZ  0048a530 f   world.obj
 0001:000896b0       ?SetMessage@WorldMessage@@QAEXPAD@Z 0048a6b0 f   world.obj
 0001:000896d0       ??0?$Vector3@VFixed@@@@QAE@XZ 0048a6d0 f i world.obj
 0001:00089720       ??_0?$Vector3@VFixed@@@@QAEABV0@VFixed@@@Z 0048a720 f i world.obj
 0001:000897b0       ?PutDataAtStart@?$LList@PAVChatMessage@@@@QAEXABQAVChatMessage@@@Z 0048a7b0 f i world.obj
 0001:00089820       ??0?$BoundedArray@V?$Vector3@VFixed@@@@@@QAE@XZ 0048a820 f i world.obj
 0001:00089830       ?Initialise@?$BoundedArray@V?$Vector3@VFixed@@@@@@QAEXI@Z 0048a830 f i world.obj
 0001:00089890       ?EmptyAndDelete@?$LList@PAVFleet@@@@QAEXXZ 0048a890 f i world.obj
 0001:00089900       ??0?$FastDArray@PAVWorldObject@@@@QAE@XZ 0048a900 f i world.obj
 0001:00089920       ?PutData@?$FastDArray@PAVWorldObject@@@@QAEHABQAVWorldObject@@@Z 0048a920 f i world.obj
 0001:00089990       ?RemoveData@?$FastDArray@PAVWorldObject@@@@QAEXH@Z 0048a990 f i world.obj
 0001:000899f0       ?EmptyAndDelete@?$FastDArray@PAVWorldObject@@@@QAEXXZ 0048a9f0 f i world.obj
 0001:00089a20       ??0?$LList@PAVNode@@@@QAE@XZ 0048aa20 f i world.obj
 0001:00089a40       ?PutData@?$LList@PAVNode@@@@QAEXABQAVNode@@@Z 0048aa40 f i world.obj
 0001:00089a50       ??0?$FastDArray@PAVGunFire@@@@QAE@XZ 0048aa50 f i world.obj
 0001:00089a70       ?RemoveData@?$FastDArray@PAVGunFire@@@@QAEXH@Z 0048aa70 f i world.obj
 0001:00089ad0       ?EmptyAndDelete@?$FastDArray@PAVGunFire@@@@QAEXXZ 0048aad0 f i world.obj
 0001:00089b00       ??0?$FastDArray@PAVExplosion@@@@QAE@XZ 0048ab00 f i world.obj
 0001:00089b20       ?RemoveData@?$FastDArray@PAVExplosion@@@@QAEXH@Z 0048ab20 f i world.obj
 0001:00089b80       ?EmptyAndDelete@?$FastDArray@PAVExplosion@@@@QAEXXZ 0048ab80 f i world.obj
 0001:00089bb0       ??0?$LList@PAVWorldMessage@@@@QAE@XZ 0048abb0 f i world.obj
 0001:00089bd0       ?PutData@?$LList@PAVWorldMessage@@@@QAEXABQAVWorldMessage@@@Z 0048abd0 f i world.obj
 0001:00089be0       ?RemoveData@?$LList@PAVWorldMessage@@@@QAEXH@Z 0048abe0 f i world.obj
 0001:00089c90       ??0?$LList@PAVTeam@@@@QAE@XZ 0048ac90 f i world.obj
 0001:00089cb0       ?PutData@?$LList@PAVTeam@@@@QAEXABQAVTeam@@@Z 0048acb0 f i world.obj
 0001:00089cc0       ?RemoveData@?$LList@PAVTeam@@@@QAEXH@Z 0048acc0 f i world.obj
 0001:00089d70       ??0?$LList@PAVSpectator@@@@QAE@XZ 0048ad70 f i world.obj
 0001:00089d90       ?PutData@?$LList@PAVSpectator@@@@QAEXABQAVSpectator@@@Z 0048ad90 f i world.obj
 0001:00089da0       ?RemoveData@?$LList@PAVSpectator@@@@QAEXH@Z 0048ada0 f i world.obj
 0001:00089e50       ??0?$LList@PAUParsedCity@@@@QAE@XZ 0048ae50 f i world.obj
 0001:00089e70       ??1?$LList@PAUParsedCity@@@@QAE@XZ 0048ae70 f i world.obj
 0001:00089e80       ?PutData@?$LList@PAUParsedCity@@@@QAEXABQAUParsedCity@@@Z 0048ae80 f i world.obj
 0001:00089e90       ?Size@?$LList@PAUParsedCity@@@@QBEHXZ 0048ae90 f i world.obj
 0001:00089ea0       ??A?$LList@PAUParsedCity@@@@QAEPAUParsedCity@@H@Z 0048aea0 f i world.obj
 0001:00089eb0       ??_GFleet@@QAEPAXI@Z       0048aeb0 f i world.obj
 0001:00089ef0       ??1Fleet@@QAE@XZ           0048aef0 f i world.obj
 0001:00089f30       ?RemoveData@?$LList@PAVFleet@@@@QAEXH@Z 0048af30 f i world.obj
 0001:00089fe0       ??0?$DArray@PAVWorldObject@@@@QAE@XZ 0048afe0 f i world.obj
 0001:0008a000       ?EmptyAndDelete@?$DArray@PAVWorldObject@@@@QAEXXZ 0048b000 f i world.obj
 0001:0008a050       ?Grow@?$FastDArray@PAVWorldObject@@@@IAEXXZ 0048b050 f i world.obj
 0001:0008a080       ?PutDataAtEnd@?$LList@PAVNode@@@@QAEXABQAVNode@@@Z 0048b080 f i world.obj
 0001:0008a0e0       ??0?$DArray@PAVGunFire@@@@QAE@XZ 0048b0e0 f i world.obj
 0001:0008a100       ?EmptyAndDelete@?$DArray@PAVGunFire@@@@QAEXXZ 0048b100 f i world.obj
 0001:0008a150       ??0?$DArray@PAVExplosion@@@@QAE@XZ 0048b150 f i world.obj
 0001:0008a170       ?EmptyAndDelete@?$DArray@PAVExplosion@@@@QAEXXZ 0048b170 f i world.obj
 0001:0008a1c0       ?PutDataAtEnd@?$LList@PAVWorldMessage@@@@QAEXABQAVWorldMessage@@@Z 0048b1c0 f i world.obj
 0001:0008a220       ?PutDataAtEnd@?$LList@PAVTeam@@@@QAEXABQAVTeam@@@Z 0048b220 f i world.obj
 0001:0008a280       ?PutDataAtEnd@?$LList@PAVSpectator@@@@QAEXABQAVSpectator@@@Z 0048b280 f i world.obj
 0001:0008a2e0       ?PutDataAtEnd@?$LList@PAUParsedCity@@@@QAEXABQAUParsedCity@@@Z 0048b2e0 f i world.obj
 0001:0008a340       ?GetData@?$LList@PAUParsedCity@@@@QBEPAUParsedCity@@H@Z 0048b340 f i world.obj
 0001:0008a350       ?Empty@?$LList@PAUParsedCity@@@@QAEXXZ 0048b350 f i world.obj
 0001:0008a390       ??_GExplosion@@QAEPAXI@Z   0048b390 f i world.obj
 0001:0008a3b0       ??_G?$LListItem@PAUParsedCity@@@@QAEPAXI@Z 0048b3b0 f i world.obj
 0001:0008a3c0       ??1Explosion@@QAE@XZ       0048b3c0 f i world.obj
 0001:0008a3d0       ?SetSize@?$FastDArray@PAVWorldObject@@@@QAEXH@Z 0048b3d0 f i world.obj
 0001:0008a5b0       ??0?$LListItem@PAVNode@@@@QAE@XZ 0048b5b0 f i world.obj
 0001:0008a5c0       ??0?$LListItem@PAVWorldMessage@@@@QAE@XZ 0048b5c0 f i world.obj
 0001:0008a5d0       ??0?$LListItem@PAVTeam@@@@QAE@XZ 0048b5d0 f i world.obj
 0001:0008a5e0       ??0?$LListItem@PAVSpectator@@@@QAE@XZ 0048b5e0 f i world.obj
 0001:0008a5f0       ?GetItem@?$LList@PAUParsedCity@@@@IBEPAV?$LListItem@PAUParsedCity@@@@H@Z 0048b5f0 f i world.obj
 0001:0008a680       ??0?$LListItem@PAUParsedCity@@@@QAE@XZ 0048b680 f i world.obj
 0001:0008a690       ??1?$LListItem@PAUParsedCity@@@@QAE@XZ 0048b690 f i world.obj
 0001:0008a6a0       ?RebuildFreeList@?$FastDArray@PAVWorldObject@@@@IAEXXZ 0048b6a0 f i world.obj
 0001:0008a730       ?RebuildNumUsed@?$FastDArray@PAVWorldObject@@@@IAEXXZ 0048b730 f i world.obj
 0001:0008a750       ?ValidIndex@?$LList@PAUParsedCity@@@@QBE_NH@Z 0048b750 f i world.obj
 0001:0008a770       ??0WorldObject@@QAE@XZ     0048b770 f   worldobject.obj
 0001:0008aa10       ??1WorldObject@@QAE@XZ     0048ba10 f   worldobject.obj
 0001:0008ab20       ?InitialiseTimers@WorldObject@@UAEXXZ 0048bb20 f   worldobject.obj
 0001:0008abc0       ?SetType@WorldObject@@QAEXH@Z 0048bbc0 f   worldobject.obj
 0001:0008abd0       ?SetTeamId@WorldObject@@QAEXH@Z 0048bbd0 f   worldobject.obj
 0001:0008abe0       ?SetPosition@WorldObject@@QAEXVFixed@@0@Z 0048bbe0 f   worldobject.obj
 0001:0008ac00       ?IsHiddenFrom@WorldObject@@UAE_NXZ 0048bc00 f   worldobject.obj
 0001:0008ac10       ?AddState@WorldObject@@QAEXPADVFixed@@111_NHH@Z 0048bc10 f   worldobject.obj
 0001:0008ace0       ??0WorldObjectState@@QAE@XZ 0048bce0 f i worldobject.obj
 0001:0008acf0       ?IsActionable@WorldObject@@UAE_NXZ 0048bcf0 f   worldobject.obj
 0001:0008ad10       ?GetActionRange@WorldObject@@UAE?AVFixed@@XZ 0048bd10 f   worldobject.obj
 0001:0008ad40       ?GetActionRangeSqd@WorldObject@@UAE?AVFixed@@XZ 0048bd40 f   worldobject.obj
 0001:0008ad80       ?GetRadarRange@WorldObject@@UAE?AVFixed@@XZ 0048bd80 f   worldobject.obj
 0001:0008adb0       ?Action@WorldObject@@UAEXHVFixed@@0@Z 0048bdb0 f   worldobject.obj
 0001:0008ae20       ?CanSetState@WorldObject@@UAE_NH@Z 0048be20 f   worldobject.obj
 0001:0008ae90       ?SetState@WorldObject@@UAEXH@Z 0048be90 f   worldobject.obj
 0001:0008aef0       ?Update@WorldObject@@UAE_NXZ 0048bef0 f   worldobject.obj
 0001:0008b500       ?GetBmpBlurFilename@WorldObject@@QAEPADXZ 0048c500 f   worldobject.obj
 0001:0008b530       ?Render@WorldObject@@UAEXXZ 0048c530 f   worldobject.obj
 0001:0008b7f0       ?RenderCounter@WorldObject@@QAEXH@Z 0048c7f0 f   worldobject.obj
 0001:0008bab0       ?GetSize@WorldObject@@UAE?AVFixed@@XZ 0048cab0 f   worldobject.obj
 0001:0008bbf0       ?CheckCurrentState@WorldObject@@QAE_NXZ 0048cbf0 f   worldobject.obj
 0001:0008bcd0       ?GetName@WorldObject@@SAPADH@Z 0048ccd0 f   worldobject.obj
 0001:0008be30       ?GetType@WorldObject@@SAHPAD@Z 0048ce30 f   worldobject.obj
 0001:0008be60       ?GetTypeName@WorldObject@@SAPADH@Z 0048ce60 f   worldobject.obj
 0001:0008bf00       ?SetRadarRange@WorldObject@@QAEXVFixed@@@Z 0048cf00 f   worldobject.obj
 0001:0008bf20       ?RunAI@WorldObject@@UAEXXZ 0048cf20 f   worldobject.obj
 0001:0008bf30       ?RenderGhost@WorldObject@@UAEXH@Z 0048cf30 f   worldobject.obj
 0001:0008c150       ?GetBmpImage@WorldObject@@UAEPAVImage@@H@Z 0048d150 f   worldobject.obj
 0001:0008c160       ?IsMovingObject@WorldObject@@QAE_NXZ 0048d160 f   worldobject.obj
 0001:0008c190       ?RequestAction@WorldObject@@UAEXPAVActionOrder@@@Z 0048d190 f   worldobject.obj
 0001:0008c1b0       ?IsActionQueueable@WorldObject@@UAE_NXZ 0048d1b0 f   worldobject.obj
 0001:0008c1c0       ?UsingGuns@WorldObject@@UAE_NXZ 0048d1c0 f   worldobject.obj
 0001:0008c1d0       ?NukeStrike@WorldObject@@UAEXXZ 0048d1d0 f   worldobject.obj
 0001:0008c1e0       ?UsingNukes@WorldObject@@UAE_NXZ 0048d1e0 f   worldobject.obj
 0001:0008c1f0       ?Retaliate@WorldObject@@UAEXH@Z 0048d1f0 f   worldobject.obj
 0001:0008c200       ?IsPinging@WorldObject@@UAE_NXZ 0048d200 f   worldobject.obj
 0001:0008c210       ?FireGun@WorldObject@@UAEXVFixed@@@Z 0048d210 f   worldobject.obj
 0001:0008c3e0       ?GetAttackOdds@WorldObject@@UAEHH@Z 0048d3e0 f   worldobject.obj
 0001:0008c410       ?CreateObject@WorldObject@@SAPAV1@H@Z 0048d410 f   worldobject.obj
 0001:0008c700       ?ClearActionQueue@WorldObject@@QAEXXZ 0048d700 f   worldobject.obj
 0001:0008c710       ?ClearLastAction@WorldObject@@QAEXXZ 0048d710 f   worldobject.obj
 0001:0008c750       ?SetTargetObjectId@WorldObject@@QAEXH@Z 0048d750 f   worldobject.obj
 0001:0008c760       ?GetTargetObjectId@WorldObject@@QAEHXZ 0048d760 f   worldobject.obj
 0001:0008c770       ?FleetAction@WorldObject@@UAEXH@Z 0048d770 f   worldobject.obj
 0001:0008c780       ?LaunchBomber@WorldObject@@QAE_NHVFixed@@0@Z 0048d780 f   worldobject.obj
 0001:0008ca60       ?LaunchFighter@WorldObject@@QAE_NHVFixed@@0@Z 0048da60 f   worldobject.obj
 0001:0008cbf0       ??_GFighter@@QAEPAXI@Z     0048dbf0 f i worldobject.obj
 0001:0008cc10       ??1Fighter@@QAE@XZ         0048dc10 f i worldobject.obj
 0001:0008cc20       ?IsValidCombatTarget@WorldObject@@UAEHH@Z 0048dc20 f   worldobject.obj
 0001:0008cdb0       ?CeaseFire@WorldObject@@UAEXH@Z 0048ddb0 f   worldobject.obj
 0001:0008ce80       ?IsValidMovementTarget@WorldObject@@UAEHVFixed@@0@Z 0048de80 f   worldobject.obj
 0001:0008ce90       ?CanLaunchBomber@WorldObject@@UAE_NXZ 0048de90 f   worldobject.obj
 0001:0008cea0       ?CanLaunchFighter@WorldObject@@UAE_NXZ 0048dea0 f   worldobject.obj
 0001:0008ceb0       ?CountIncomingFighters@WorldObject@@UAEHXZ 0048deb0 f   worldobject.obj
 0001:0008cec0       ?SetWaypointOnAction@WorldObject@@UAE_NXZ 0048dec0 f   worldobject.obj
 0001:0008ced0       ?GetStateName@WorldObjectState@@QAEPADXZ 0048ded0 f   worldobject.obj
 0001:0008cef0       ?GetPrepareName@WorldObjectState@@QAEPADXZ 0048def0 f   worldobject.obj
 0001:0008cf10       ?GetPreparingName@WorldObjectState@@QAEPADXZ 0048df10 f   worldobject.obj
 0001:0008cf30       ?GetReadyName@WorldObjectState@@QAEPADXZ 0048df30 f   worldobject.obj
 0001:0008cf50       ?HashDouble@@YAPADNPAD@Z   0048df50 f   worldobject.obj
 0001:0008cfa0       ?LogState@WorldObject@@UAEPADXZ 0048dfa0 f   worldobject.obj
 0001:0008d310       ?ZeroVector@?$Vector3@VFixed@@@@SA?BV1@XZ 0048e310 f i worldobject.obj
 0001:0008d350       ??0?$LList@PAVWorldObjectState@@@@QAE@XZ 0048e350 f i worldobject.obj
 0001:0008d370       ??1?$LList@PAVWorldObjectState@@@@QAE@XZ 0048e370 f i worldobject.obj
 0001:0008d380       ?PutData@?$LList@PAVWorldObjectState@@@@QAEXABQAVWorldObjectState@@@Z 0048e380 f i worldobject.obj
 0001:0008d390       ?EmptyAndDelete@?$LList@PAVWorldObjectState@@@@QAEXXZ 0048e390 f i worldobject.obj
 0001:0008d3d0       ?SetAll@?$BoundedArray@V?$Vector3@VFixed@@@@@@QAEXABV?$Vector3@VFixed@@@@@Z 0048e3d0 f i worldobject.obj
 0001:0008d420       ??0?$BoundedArray@VFixed@@@@QAE@XZ 0048e420 f i worldobject.obj
 0001:0008d430       ??1?$BoundedArray@VFixed@@@@QAE@XZ 0048e430 f i worldobject.obj
 0001:0008d440       ?Initialise@?$BoundedArray@VFixed@@@@QAEXI@Z 0048e440 f i worldobject.obj
 0001:0008d4a0       ?SetAll@?$BoundedArray@VFixed@@@@QAEXABVFixed@@@Z 0048e4a0 f i worldobject.obj
 0001:0008d4c0       ??0?$LList@PAVActionOrder@@@@QAE@XZ 0048e4c0 f i worldobject.obj
 0001:0008d4e0       ??1?$LList@PAVActionOrder@@@@QAE@XZ 0048e4e0 f i worldobject.obj
 0001:0008d4f0       ?PutData@?$LList@PAVActionOrder@@@@QAEXABQAVActionOrder@@@Z 0048e4f0 f i worldobject.obj
 0001:0008d500       ?RemoveDataAtEnd@?$LList@PAVActionOrder@@@@QAEXXZ 0048e500 f i worldobject.obj
 0001:0008d510       ?Empty@?$LList@PAVActionOrder@@@@QAEXXZ 0048e510 f i worldobject.obj
 0001:0008d550       ?EmptyAndDelete@?$LList@PAVActionOrder@@@@QAEXXZ 0048e550 f i worldobject.obj
 0001:0008d590       ?PutDataAtEnd@?$LList@PAVWorldObjectState@@@@QAEXABQAVWorldObjectState@@@Z 0048e590 f i worldobject.obj
 0001:0008d5f0       ?RemoveData@?$LList@PAVWorldObjectState@@@@QAEXH@Z 0048e5f0 f i worldobject.obj
 0001:0008d670       ?Empty@?$LList@PAVWorldObjectState@@@@QAEXXZ 0048e670 f i worldobject.obj
 0001:0008d6b0       ?Empty@?$BoundedArray@VFixed@@@@QAEXXZ 0048e6b0 f i worldobject.obj
 0001:0008d6d0       ?PutDataAtEnd@?$LList@PAVActionOrder@@@@QAEXABQAVActionOrder@@@Z 0048e6d0 f i worldobject.obj
 0001:0008d730       ??_G?$LListItem@PAVWorldObjectState@@@@QAEPAXI@Z 0048e730 f i worldobject.obj
 0001:0008d740       ??0?$LListItem@PAVWorldObjectState@@@@QAE@XZ 0048e740 f i worldobject.obj
 0001:0008d750       ??1?$LListItem@PAVWorldObjectState@@@@QAE@XZ 0048e750 f i worldobject.obj
 0001:0008d760       ??0?$LListItem@PAVActionOrder@@@@QAE@XZ 0048e760 f i worldobject.obj
 0001:0008d770       ?Render@JoinLeaveButton@@EAEXHH_N0@Z 0048e770 f i alliances_window.obj
 0001:0008d8a0       ?MouseUp@JoinLeaveButton@@EAEXXZ 0048e8a0 f i alliances_window.obj
 0001:0008d9b0       ?MouseUp@ConfirmShareRadarButton@@UAEXXZ 0048e9b0 f i alliances_window.obj
 0001:0008da30       ??0ShareRadarWindow@@QAE@H@Z 0048ea30 f   alliances_window.obj
 0001:0008da80       ??_EShareRadarWindow@@UAEPAXI@Z 0048ea80 f i  CIL library: CIL module
 0001:0008da80       ??_GShareRadarWindow@@UAEPAXI@Z 0048ea80 f i alliances_window.obj
 0001:0008dab0       ??1InterfaceWindow@@UAE@XZ 0048eab0 f i alliances_window.obj
 0001:0008dac0       ??1ShareRadarWindow@@UAE@XZ 0048eac0 f i alliances_window.obj
 0001:0008dad0       ?Create@ShareRadarWindow@@UAEXXZ 0048ead0 f   alliances_window.obj
 0001:0008db80       ??0ConfirmShareRadarButton@@QAE@XZ 0048eb80 f i alliances_window.obj
 0001:0008db90       ??_GConfirmShareRadarButton@@UAEPAXI@Z 0048eb90 f i alliances_window.obj
 0001:0008db90       ??_EConfirmShareRadarButton@@UAEPAXI@Z 0048eb90 f i  CIL library: CIL module
 0001:0008dbc0       ??0InterfaceButton@@QAE@XZ 0048ebc0 f i alliances_window.obj
 0001:0008dbd0       ??1InterfaceButton@@UAE@XZ 0048ebd0 f i alliances_window.obj
 0001:0008dbe0       ??1ConfirmShareRadarButton@@UAE@XZ 0048ebe0 f i alliances_window.obj
 0001:0008dbf0       ??_EInterfaceButton@@UAEPAXI@Z 0048ebf0 f i  CIL library: CIL module
 0001:0008dbf0       ??_GInterfaceButton@@UAEPAXI@Z 0048ebf0 f i alliances_window.obj
 0001:0008dc20       ?Render@ShareRadarWindow@@UAEX_N@Z 0048ec20 f   alliances_window.obj
 0001:0008df00       ?MouseUp@ConfirmCeaseFireButton@@UAEXXZ 0048ef00 f i alliances_window.obj
 0001:0008df80       ??0CeaseFireWindow@@QAE@H@Z 0048ef80 f   alliances_window.obj
 0001:0008dfd0       ??_GCeaseFireWindow@@UAEPAXI@Z 0048efd0 f i alliances_window.obj
 0001:0008dfd0       ??_ECeaseFireWindow@@UAEPAXI@Z 0048efd0 f i  CIL library: CIL module
 0001:0008e000       ??1CeaseFireWindow@@UAE@XZ 0048f000 f i alliances_window.obj
 0001:0008e010       ?Create@CeaseFireWindow@@UAEXXZ 0048f010 f   alliances_window.obj
 0001:0008e0c0       ??0ConfirmCeaseFireButton@@QAE@XZ 0048f0c0 f i alliances_window.obj
 0001:0008e0d0       ??_EConfirmCeaseFireButton@@UAEPAXI@Z 0048f0d0 f i  CIL library: CIL module
 0001:0008e0d0       ??_GConfirmCeaseFireButton@@UAEPAXI@Z 0048f0d0 f i alliances_window.obj
 0001:0008e100       ??1ConfirmCeaseFireButton@@UAE@XZ 0048f100 f i alliances_window.obj
 0001:0008e110       ?Render@CeaseFireWindow@@UAEX_N@Z 0048f110 f   alliances_window.obj
 0001:0008e3f0       ?Render@VoteButton@@UAEXHH_N0@Z 0048f3f0 f i alliances_window.obj
 0001:0008e640       ?MouseUp@VoteButton@@UAEXXZ 0048f640 f i alliances_window.obj
 0001:0008e6b0       ??0VotingWindow@@QAE@XZ    0048f6b0 f   alliances_window.obj
 0001:0008e6f0       ??_EVotingWindow@@UAEPAXI@Z 0048f6f0 f i  CIL library: CIL module
 0001:0008e6f0       ??_GVotingWindow@@UAEPAXI@Z 0048f6f0 f i alliances_window.obj
 0001:0008e720       ??1VotingWindow@@UAE@XZ    0048f720 f i alliances_window.obj
 0001:0008e730       ?Create@VotingWindow@@UAEXXZ 0048f730 f   alliances_window.obj
 0001:0008e920       ??0InvertedBox@@QAE@XZ     0048f920 f i alliances_window.obj
 0001:0008e930       ??0VoteButton@@QAE@XZ      0048f930 f i alliances_window.obj
 0001:0008e940       ??_GInvertedBox@@UAEPAXI@Z 0048f940 f i alliances_window.obj
 0001:0008e940       ??_EInvertedBox@@UAEPAXI@Z 0048f940 f i  CIL library: CIL module
 0001:0008e970       ??_GVoteButton@@UAEPAXI@Z  0048f970 f i alliances_window.obj
 0001:0008e970       ??_EVoteButton@@UAEPAXI@Z  0048f970 f i  CIL library: CIL module
 0001:0008e9a0       ??1InvertedBox@@UAE@XZ     0048f9a0 f i alliances_window.obj
 0001:0008e9b0       ??1VoteButton@@UAE@XZ      0048f9b0 f i alliances_window.obj
 0001:0008e9c0       ?Render@VotingWindow@@UAEX_N@Z 0048f9c0 f   alliances_window.obj
 0001:0008f540       ?Render@RequestCeasefireButton@@UAEXHH_N0@Z 00490540 f i alliances_window.obj
 0001:0008f730       ?MouseUp@RequestCeasefireButton@@UAEXXZ 00490730 f i alliances_window.obj
 0001:0008f800       ?Render@RequestShareRadarButton@@UAEXHH_N0@Z 00490800 f i alliances_window.obj
 0001:0008f9f0       ?MouseUp@RequestShareRadarButton@@UAEXXZ 004909f0 f i alliances_window.obj
 0001:0008fac0       ?Render@AllianceTeamButton@@UAEXHH_N0@Z 00490ac0 f i alliances_window.obj
 0001:000900e0       ?MouseUp@AllianceTeamButton@@UAEXXZ 004910e0 f i alliances_window.obj
 0001:00090100       ?Render@AllianceVoteButton@@UAEXHH_N0@Z 00491100 f i alliances_window.obj
 0001:00090a90       ?MouseUp@AllianceVoteButton@@UAEXXZ 00491a90 f i alliances_window.obj
 0001:00090b40       ??0AlliancesWindow@@QAE@XZ 00491b40 f   alliances_window.obj
 0001:00090c70       ??_GAlliancesWindow@@UAEPAXI@Z 00491c70 f i alliances_window.obj
 0001:00090c70       ??_EAlliancesWindow@@UAEPAXI@Z 00491c70 f i  CIL library: CIL module
 0001:00090ca0       ??1AlliancesWindow@@UAE@XZ 00491ca0 f i alliances_window.obj
 0001:00090cb0       ?Create@AlliancesWindow@@UAEXXZ 00491cb0 f   alliances_window.obj
 0001:000911d0       ??0AllianceTeamButton@@QAE@XZ 004921d0 f i alliances_window.obj
 0001:000911e0       ??0RequestCeasefireButton@@QAE@XZ 004921e0 f i alliances_window.obj
 0001:000911f0       ??0RequestShareRadarButton@@QAE@XZ 004921f0 f i alliances_window.obj
 0001:00091200       ??0JoinLeaveButton@@QAE@XZ 00492200 f i alliances_window.obj
 0001:00091210       ??0AllianceVoteButton@@QAE@XZ 00492210 f i alliances_window.obj
 0001:00091220       ??_EAllianceTeamButton@@UAEPAXI@Z 00492220 f i  CIL library: CIL module
 0001:00091220       ??_GAllianceTeamButton@@UAEPAXI@Z 00492220 f i alliances_window.obj
 0001:00091250       ??_GRequestCeasefireButton@@UAEPAXI@Z 00492250 f i alliances_window.obj
 0001:00091250       ??_ERequestCeasefireButton@@UAEPAXI@Z 00492250 f i  CIL library: CIL module
 0001:00091280       ??_GRequestShareRadarButton@@UAEPAXI@Z 00492280 f i alliances_window.obj
 0001:00091280       ??_ERequestShareRadarButton@@UAEPAXI@Z 00492280 f i  CIL library: CIL module
 0001:000912b0       ??_EJoinLeaveButton@@UAEPAXI@Z 004922b0 f i  CIL library: CIL module
 0001:000912b0       ??_GJoinLeaveButton@@UAEPAXI@Z 004922b0 f i alliances_window.obj
 0001:000912e0       ??_EAllianceVoteButton@@UAEPAXI@Z 004922e0 f i  CIL library: CIL module
 0001:000912e0       ??_GAllianceVoteButton@@UAEPAXI@Z 004922e0 f i alliances_window.obj
 0001:00091310       ??1AllianceTeamButton@@UAE@XZ 00492310 f i alliances_window.obj
 0001:00091320       ??1RequestCeasefireButton@@UAE@XZ 00492320 f i alliances_window.obj
 0001:00091330       ??1RequestShareRadarButton@@UAE@XZ 00492330 f i alliances_window.obj
 0001:00091340       ??1JoinLeaveButton@@UAE@XZ 00492340 f i alliances_window.obj
 0001:00091350       ??1AllianceVoteButton@@UAE@XZ 00492350 f i alliances_window.obj
 0001:00091360       ?Update@AlliancesWindow@@UAEXXZ 00492360 f   alliances_window.obj
 0001:00091690       ?Render@AlliancesWindow@@UAEX_N@Z 00492690 f   alliances_window.obj
 0001:00091e70       ?Render@ApplyKeyButton@@UAEXHH_N0@Z 00492e70 f i authkey_window.obj
 0001:00091f00       ?MouseUp@ApplyKeyButton@@UAEXXZ 00492f00 f i authkey_window.obj
 0001:00091f30       ?MouseUp@PasteKeyButton@@UAEXXZ 00492f30 f i authkey_window.obj
 0001:00091f40       ??0PlayDemoButton@@QAE@XZ  00492f40 f   authkey_window.obj
 0001:00091f60       ??_GPlayDemoButton@@UAEPAXI@Z 00492f60 f i authkey_window.obj
 0001:00091f60       ??_EPlayDemoButton@@UAEPAXI@Z 00492f60 f i  CIL library: CIL module
 0001:00091f90       ??1PlayDemoButton@@UAE@XZ  00492f90 f i authkey_window.obj
 0001:00091fa0       ?IsVisible@PlayDemoButton@@QAE_NXZ 00492fa0 f   authkey_window.obj
 0001:00092020       ?Render@PlayDemoButton@@UAEXHH_N0@Z 00493020 f   authkey_window.obj
 0001:00092050       ?MouseUp@PlayDemoButton@@UAEXXZ 00493050 f   authkey_window.obj
 0001:000920c0       ?Render@AuthInputField@@UAEXHH_N0@Z 004930c0 f i authkey_window.obj
 0001:00092560       ?Keypress@AuthInputField@@UAEXH_N00E@Z 00493560 f i authkey_window.obj
 0001:000925e0       ?MouseUp@AuthInputField@@UAEXXZ 004935e0 f i authkey_window.obj
 0001:00092630       ??0AuthKeyWindow@@QAE@XZ   00493630 f   authkey_window.obj
 0001:00092680       ??_EAuthKeyWindow@@UAEPAXI@Z 00493680 f i  CIL library: CIL module
 0001:00092680       ??_GAuthKeyWindow@@UAEPAXI@Z 00493680 f i authkey_window.obj
 0001:000926b0       ??1AuthKeyWindow@@UAE@XZ   004936b0 f i authkey_window.obj
 0001:000926c0       ?Create@AuthKeyWindow@@UAEXXZ 004936c0 f   authkey_window.obj
 0001:00092940       ??0AuthInputField@@QAE@XZ  00493940 f i authkey_window.obj
 0001:00092950       ??0PasteKeyButton@@QAE@XZ  00493950 f i authkey_window.obj
 0001:00092960       ??0ApplyKeyButton@@QAE@XZ  00493960 f i authkey_window.obj
 0001:00092970       ??_GAuthInputField@@UAEPAXI@Z 00493970 f i authkey_window.obj
 0001:00092970       ??_EAuthInputField@@UAEPAXI@Z 00493970 f i  CIL library: CIL module
 0001:000929a0       ??1InputField@@UAE@XZ      004939a0 f i authkey_window.obj
 0001:000929b0       ??_EPasteKeyButton@@UAEPAXI@Z 004939b0 f i  CIL library: CIL module
 0001:000929b0       ??_GPasteKeyButton@@UAEPAXI@Z 004939b0 f i authkey_window.obj
 0001:000929e0       ??_EApplyKeyButton@@UAEPAXI@Z 004939e0 f i  CIL library: CIL module
 0001:000929e0       ??_GApplyKeyButton@@UAEPAXI@Z 004939e0 f i authkey_window.obj
 0001:00092a10       ??1AuthInputField@@UAE@XZ  00493a10 f i authkey_window.obj
 0001:00092a20       ??1PasteKeyButton@@UAE@XZ  00493a20 f i authkey_window.obj
 0001:00092a30       ??1ApplyKeyButton@@UAE@XZ  00493a30 f i authkey_window.obj
 0001:00092a40       ?PasteFromClipboard@AuthKeyWindow@@QAEXXZ 00493a40 f   authkey_window.obj
 0001:00092ac0       ?Render@AuthKeyWindow@@UAEX_N@Z 00493ac0 f   authkey_window.obj
 0001:00092f50       ??0BadKeyWindow@@QAE@XZ    00493f50 f   badkey_window.obj
 0001:00092fa0       ??_GBadKeyWindow@@UAEPAXI@Z 00493fa0 f i badkey_window.obj
 0001:00092fa0       ??_EBadKeyWindow@@UAEPAXI@Z 00493fa0 f i  CIL library: CIL module
 0001:00092fd0       ??1BadKeyWindow@@UAE@XZ    00493fd0 f i badkey_window.obj
 0001:00092fe0       ?Create@BadKeyWindow@@UAEXXZ 00493fe0 f   badkey_window.obj
 0001:00093100       ?Render@BadKeyWindow@@UAEX_N@Z 00494100 f   badkey_window.obj
 0001:000932c0       ??0CasualtiesWindow@@QAE@PAD@Z 004942c0 f   casualties_window.obj
 0001:00093340       ??_GCasualtiesWindow@@UAEPAXI@Z 00494340 f i casualties_window.obj
 0001:00093340       ??_ECasualtiesWindow@@UAEPAXI@Z 00494340 f i  CIL library: CIL module
 0001:00093370       ??1CasualtiesWindow@@UAE@XZ 00494370 f i casualties_window.obj
 0001:00093380       ?Create@CasualtiesWindow@@UAEXXZ 00494380 f   casualties_window.obj
 0001:000933c0       ?Remove@CasualtiesWindow@@UAEXXZ 004943c0 f   casualties_window.obj
 0001:000933e0       ?Render@CasualtiesWindow@@UAEX_N@Z 004943e0 f   casualties_window.obj
 0001:000937a0       ?MouseUp@SetChannelButton@@UAEXXZ 004947a0 f i chat_window.obj
 0001:000937c0       ?Render@SetChannelButton@@UAEXHH_N0@Z 004947c0 f i chat_window.obj
 0001:000937f0       ??0ChatWindow@@QAE@XZ      004947f0 f   chat_window.obj
 0001:000938f0       ??_EChatWindow@@UAEPAXI@Z  004948f0 f i  CIL library: CIL module
 0001:000938f0       ??_GChatWindow@@UAEPAXI@Z  004948f0 f i chat_window.obj
 0001:00093920       ??1FadingWindow@@UAE@XZ    00494920 f i chat_window.obj
 0001:00093930       ??1ChatWindow@@UAE@XZ      00494930 f i chat_window.obj
 0001:00093950       ?Create@ChatWindow@@UAEXXZ 00494950 f   chat_window.obj
 0001:00093b80       ??0ChatInputField@@QAE@XZ  00494b80 f i chat_window.obj
 0001:00093b90       ??0SetChannelButton@@QAE@XZ 00494b90 f i chat_window.obj
 0001:00093ba0       ??_EChatInputField@@UAEPAXI@Z 00494ba0 f i  CIL library: CIL module
 0001:00093ba0       ??_GChatInputField@@UAEPAXI@Z 00494ba0 f i chat_window.obj
 0001:00093bd0       ??_ESetChannelButton@@UAEPAXI@Z 00494bd0 f i  CIL library: CIL module
 0001:00093bd0       ??_GSetChannelButton@@UAEPAXI@Z 00494bd0 f i chat_window.obj
 0001:00093c00       ??1ChatInputField@@UAE@XZ  00494c00 f i chat_window.obj
 0001:00093c10       ??1SetChannelButton@@UAE@XZ 00494c10 f i chat_window.obj
 0001:00093c20       ?Update@ChatWindow@@UAEXXZ 00494c20 f   chat_window.obj
 0001:00093fd0       ?BeginTypingMessage@ChatWindow@@QAEXXZ 00494fd0 f   chat_window.obj
 0001:00093fe0       ?EndTypingMessage@ChatWindow@@QAEXXZ 00494fe0 f   chat_window.obj
 0001:00093ff0       ?RenderWindow@ChatWindow@@IAEXXZ 00494ff0 f   chat_window.obj
 0001:00094150       ?RenderTeams@ChatWindow@@IAEXXZ 00495150 f   chat_window.obj
 0001:00094670       ?RenderMessages@ChatWindow@@IAEXXZ 00495670 f   chat_window.obj
 0001:00094cb0       ?GetChannelName@ChatWindow@@IAEPADH_N@Z 00495cb0 f   chat_window.obj
 0001:00094da0       ?Render@ChatWindow@@UAEX_N@Z 00495da0 f   chat_window.obj
 0001:00094ea0       ?MouseUp@ChatInputField@@UAEXXZ 00495ea0 f   chat_window.obj
 0001:00094ec0       ?Render@ChatInputField@@UAEXHH_N0@Z 00495ec0 f   chat_window.obj
 0001:00095000       ?Keypress@ChatInputField@@UAEXH_N00E@Z 00496000 f   chat_window.obj
 0001:00095190       ?MouseUp@AbortButton@@EAEXXZ 00496190 f i connecting_window.obj
 0001:000951c0       ??0ConnectingWindow@@QAE@XZ 004961c0 f   connecting_window.obj
 0001:00095290       ??_EConnectingWindow@@UAEPAXI@Z 00496290 f i  CIL library: CIL module
 0001:00095290       ??_GConnectingWindow@@UAEPAXI@Z 00496290 f i connecting_window.obj
 0001:000952c0       ??1ConnectingWindow@@UAE@XZ 004962c0 f   connecting_window.obj
 0001:00095330       ?Create@ConnectingWindow@@UAEXXZ 00496330 f   connecting_window.obj
 0001:00095400       ??0AbortButton@@QAE@XZ     00496400 f i connecting_window.obj
 0001:00095410       ??_EAbortButton@@UAEPAXI@Z 00496410 f i  CIL library: CIL module
 0001:00095410       ??_GAbortButton@@UAEPAXI@Z 00496410 f i connecting_window.obj
 0001:00095440       ??1AbortButton@@UAE@XZ     00496440 f i connecting_window.obj
 0001:00095450       ?Render@ConnectingWindow@@UAEX_N@Z 00496450 f   connecting_window.obj
 0001:00095da0       ?RenderTimeRemaining@ConnectingWindow@@QAEXM@Z 00496da0 f   connecting_window.obj
 0001:00095f80       ?MouseUp@NetworkButton@@EAEXXZ 00496f80 f i debug_window.obj
 0001:00096020       ?MouseUp@ProfileButton@@EAEXXZ 00497020 f i debug_window.obj
 0001:000960c0       ?MouseUp@StyleEditorButton@@EAEXXZ 004970c0 f i debug_window.obj
 0001:00096140       ??0DebugWindow@@QAE@XZ     00497140 f   debug_window.obj
 0001:00096180       ??_GDebugWindow@@UAEPAXI@Z 00497180 f i debug_window.obj
 0001:00096180       ??_EDebugWindow@@UAEPAXI@Z 00497180 f i  CIL library: CIL module
 0001:000961b0       ??1DebugWindow@@UAE@XZ     004971b0 f i debug_window.obj
 0001:000961c0       ?Create@DebugWindow@@UAEXXZ 004971c0 f   debug_window.obj
 0001:00096320       ??0NetworkButton@@QAE@XZ   00497320 f i debug_window.obj
 0001:00096330       ??0ProfileButton@@QAE@XZ   00497330 f i debug_window.obj
 0001:00096340       ??0StyleEditorButton@@QAE@XZ 00497340 f i debug_window.obj
 0001:00096350       ??_GNetworkButton@@UAEPAXI@Z 00497350 f i debug_window.obj
 0001:00096350       ??_ENetworkButton@@UAEPAXI@Z 00497350 f i  CIL library: CIL module
 0001:00096380       ??_GProfileButton@@UAEPAXI@Z 00497380 f i debug_window.obj
 0001:00096380       ??_EProfileButton@@UAEPAXI@Z 00497380 f i  CIL library: CIL module
 0001:000963b0       ??_GStyleEditorButton@@UAEPAXI@Z 004973b0 f i debug_window.obj
 0001:000963b0       ??_EStyleEditorButton@@UAEPAXI@Z 004973b0 f i  CIL library: CIL module
 0001:000963e0       ??1NetworkButton@@UAE@XZ   004973e0 f i debug_window.obj
 0001:000963f0       ??1ProfileButton@@UAE@XZ   004973f0 f i debug_window.obj
 0001:00096400       ??1StyleEditorButton@@UAE@XZ 00497400 f i debug_window.obj
 0001:00096410       ?MouseUp@ExitGameButton@@EAEXXZ 00497410 f i demo_window.obj
 0001:00096420       ??0BuyNowButton@@QAE@XZ    00497420 f   demo_window.obj
 0001:00096440       ??_EBuyNowButton@@UAEPAXI@Z 00497440 f i  CIL library: CIL module
 0001:00096440       ??_GBuyNowButton@@UAEPAXI@Z 00497440 f i demo_window.obj
 0001:00096470       ??1BuyNowButton@@UAE@XZ    00497470 f i demo_window.obj
 0001:00096480       ?MouseUp@BuyNowButton@@UAEXXZ 00497480 f   demo_window.obj
 0001:00096530       ??0DemoWindow@@QAE@XZ      00497530 f   demo_window.obj
 0001:000965d0       ??_GDemoWindow@@UAEPAXI@Z  004975d0 f i demo_window.obj
 0001:000965d0       ??_EDemoWindow@@UAEPAXI@Z  004975d0 f i  CIL library: CIL module
 0001:00096600       ??1DemoWindow@@UAE@XZ      00497600 f i demo_window.obj
 0001:00096610       ?Create@DemoWindow@@UAEXXZ 00497610 f   demo_window.obj
 0001:00096740       ??0ExitGameButton@@QAE@XZ  00497740 f i demo_window.obj
 0001:00096750       ??_EExitGameButton@@UAEPAXI@Z 00497750 f i  CIL library: CIL module
 0001:00096750       ??_GExitGameButton@@UAEPAXI@Z 00497750 f i demo_window.obj
 0001:00096780       ??1ExitGameButton@@UAE@XZ  00497780 f i demo_window.obj
 0001:00096790       ?Render@DemoWindow@@UAEX_N@Z 00497790 f   demo_window.obj
 0001:00096ce0       ??0WelcomeToDemoWindow@@QAE@XZ 00497ce0 f   demo_window.obj
 0001:00096d20       ??_GWelcomeToDemoWindow@@UAEPAXI@Z 00497d20 f i demo_window.obj
 0001:00096d20       ??_EWelcomeToDemoWindow@@UAEPAXI@Z 00497d20 f i  CIL library: CIL module
 0001:00096d50       ??1WelcomeToDemoWindow@@UAE@XZ 00497d50 f i demo_window.obj
 0001:00096d60       ?Create@WelcomeToDemoWindow@@UAEXXZ 00497d60 f   demo_window.obj
 0001:00096e80       ?Render@WelcomeToDemoWindow@@UAEX_N@Z 00497e80 f   demo_window.obj
 0001:000971b0       ??0FadingWindow@@QAE@PAD@Z 004981b0 f   fading_window.obj
 0001:000971d0       ??_GFadingWindow@@UAEPAXI@Z 004981d0 f i fading_window.obj
 0001:000971d0       ??_EFadingWindow@@UAEPAXI@Z 004981d0 f i  CIL library: CIL module
 0001:00097200       ?Render@FadingWindow@@UAEX_N@Z 00498200 f   fading_window.obj
 0001:00097220       ?Render@FadingWindow@@QAEX_N0@Z 00498220 f   fading_window.obj
 0001:000974b0       ?SaveProperties@FadingWindow@@QAEXPAD@Z 004984b0 f   fading_window.obj
 0001:00097510       ?LoadProperties@FadingWindow@@QAEXPAD@Z 00498510 f   fading_window.obj
 0001:00097580       ??0FleetPlacementIconWindow@@QAE@PADH@Z 00498580 f   fleet_placement_icon.obj
 0001:000975c0       ??_EFleetPlacementIconWindow@@UAEPAXI@Z 004985c0 f i  CIL library: CIL module
 0001:000975c0       ??_GFleetPlacementIconWindow@@UAEPAXI@Z 004985c0 f i fleet_placement_icon.obj
 0001:000975f0       ??1FleetPlacementIconWindow@@UAE@XZ 004985f0 f i fleet_placement_icon.obj
 0001:00097600       ?Render@FleetPlacementIconWindow@@UAEX_N@Z 00498600 f   fleet_placement_icon.obj
 0001:00097630       ?Create@FleetPlacementIconWindow@@UAEXXZ 00498630 f   fleet_placement_icon.obj
 0001:00097690       ??0FleetPlacementIconButton@@QAE@H@Z 00498690 f   fleet_placement_icon.obj
 0001:000976b0       ??_GFleetPlacementIconButton@@UAEPAXI@Z 004986b0 f i fleet_placement_icon.obj
 0001:000976b0       ??_EFleetPlacementIconButton@@UAEPAXI@Z 004986b0 f i  CIL library: CIL module
 0001:000976e0       ??1FleetPlacementIconButton@@UAE@XZ 004986e0 f i fleet_placement_icon.obj
 0001:000976f0       ?Render@FleetPlacementIconButton@@UAEXHH_N0@Z 004986f0 f   fleet_placement_icon.obj
 0001:00097a80       ?MouseUp@FleetPlacementIconButton@@UAEXXZ 00498a80 f   fleet_placement_icon.obj
 0001:00097f30       ??0InfoWindow@@QAE@XZ      00498f30 f   info_window.obj
 0001:00097fb0       ??_EInfoWindow@@UAEPAXI@Z  00498fb0 f i  CIL library: CIL module
 0001:00097fb0       ??_GInfoWindow@@UAEPAXI@Z  00498fb0 f i info_window.obj
 0001:00097fe0       ??1InfoWindow@@UAE@XZ      00498fe0 f i info_window.obj
 0001:00097ff0       ?Create@InfoWindow@@UAEXXZ 00498ff0 f   info_window.obj
 0001:000980d0       ?Render@InfoWindow@@UAEX_N@Z 004990d0 f   info_window.obj
 0001:00098820       ?SwitchInfoDisplay@InfoWindow@@QAEXHH@Z 00499820 f   info_window.obj
 0001:00098830       ?TooltipRender@Interface@@KAXPAVEclWindow@@PAVEclButton@@M@Z 00499830 f   interface.obj
 0001:00098d50       ??0Interface@@QAE@XZ       00499d50 f   interface.obj
 0001:00098d80       ?Init@Interface@@QAEXXZ    00499d80 f   interface.obj
 0001:00098dd0       ?ToggleFullscreenAsync@@YAXXZ 00499dd0 f   interface.obj
 0001:00098de0       ?Update@Interface@@QAEXXZ  00499de0 f   interface.obj
 0001:00099050       ?Render@Interface@@QAEXXZ  0049a050 f   interface.obj
 0001:00099eb0       ?RenderMouse@Interface@@QAEXXZ 0049aeb0 f   interface.obj
 0001:00099f90       ?ShowMessage@Interface@@QAEXVFixed@@0HPAD_N@Z 0049af90 f   interface.obj
 0001:0009a080       ?Shutdown@Interface@@QAEXXZ 0049b080 f   interface.obj
 0001:0009a090       ?OpenSetupWindows@Interface@@QAEXXZ 0049b090 f   interface.obj
 0001:0009a110       ?OpenGameWindows@Interface@@QAEXXZ 0049b110 f   interface.obj
 0001:0009a340       ?UsingChatWindow@Interface@@QAE_NXZ 0049b340 f   interface.obj
 0001:0009a390       ?SetMouseCursor@Interface@@QAEXPBD@Z 0049b390 f   interface.obj
 0001:0009a3e0       ?PutDataAtStart@?$LList@PAVWorldMessage@@@@QAEXABQAVWorldMessage@@@Z 0049b3e0 f i interface.obj
 0001:0009a460       ?Render@LobbyOptionsButton@@UAEXHH_N0@Z 0049b460 f i lobby_window.obj
 0001:0009a530       ?IsVisible@RequestJoinSpectatorsButton@@QAE_NXZ 0049b530 f i lobby_window.obj
 0001:0009a590       ?Render@RequestJoinSpectatorsButton@@UAEXHH_N0@Z 0049b590 f i lobby_window.obj
 0001:0009a5d0       ?MouseUp@RequestJoinSpectatorsButton@@UAEXXZ 0049b5d0 f i lobby_window.obj
 0001:0009a610       ?IsVisible@RequestJoinGameButton@@QAE_NXZ 0049b610 f i lobby_window.obj
 0001:0009a670       ?Render@RequestJoinGameButton@@UAEXHH_N0@Z 0049b670 f i lobby_window.obj
 0001:0009a6b0       ?MouseUp@RequestJoinGameButton@@UAEXXZ 0049b6b0 f i lobby_window.obj
 0001:0009a6e0       ?MouseUp@RenameButton@@EAEXXZ 0049b6e0 f i lobby_window.obj
 0001:0009a790       ?MouseUp@KickTeamButton@@EAEXXZ 0049b790 f i lobby_window.obj
 0001:0009a800       ?MouseUp@CancelLobbyOptionsButton@@EAEXXZ 0049b800 f i lobby_window.obj
 0001:0009a810       ?Render@TeamAllianceButton@@UAEXHH_N0@Z 0049b810 f i lobby_window.obj
 0001:0009aa70       ?MouseUp@TeamAllianceButton@@UAEXXZ 0049ba70 f i lobby_window.obj
 0001:0009aaa0       ??0TeamOptionsWindow@@QAE@H@Z 0049baa0 f   lobby_window.obj
 0001:0009aae0       ??_ETeamOptionsWindow@@UAEPAXI@Z 0049bae0 f i  CIL library: CIL module
 0001:0009aae0       ??_GTeamOptionsWindow@@UAEPAXI@Z 0049bae0 f i lobby_window.obj
 0001:0009ab10       ??1TeamOptionsWindow@@UAE@XZ 0049bb10 f i lobby_window.obj
 0001:0009ab20       ?Create@TeamOptionsWindow@@UAEXXZ 0049bb20 f   lobby_window.obj
 0001:0009af20       ??0RenameButton@@QAE@XZ    0049bf20 f i lobby_window.obj
 0001:0009af40       ??0KickTeamButton@@QAE@XZ  0049bf40 f i lobby_window.obj
 0001:0009af60       ??0RequestJoinSpectatorsButton@@QAE@XZ 0049bf60 f i lobby_window.obj
 0001:0009af80       ??0TeamAllianceButton@@QAE@XZ 0049bf80 f i lobby_window.obj
 0001:0009afa0       ??0CancelLobbyOptionsButton@@QAE@XZ 0049bfa0 f i lobby_window.obj
 0001:0009afc0       ??_GRenameButton@@UAEPAXI@Z 0049bfc0 f i lobby_window.obj
 0001:0009afc0       ??_ERenameButton@@UAEPAXI@Z 0049bfc0 f i  CIL library: CIL module
 0001:0009aff0       ??0LobbyOptionsButton@@QAE@XZ 0049bff0 f i lobby_window.obj
 0001:0009b010       ??1LobbyOptionsButton@@UAE@XZ 0049c010 f i lobby_window.obj
 0001:0009b020       ??_GKickTeamButton@@UAEPAXI@Z 0049c020 f i lobby_window.obj
 0001:0009b020       ??_EKickTeamButton@@UAEPAXI@Z 0049c020 f i  CIL library: CIL module
 0001:0009b050       ??_ERequestJoinSpectatorsButton@@UAEPAXI@Z 0049c050 f i  CIL library: CIL module
 0001:0009b050       ??_GRequestJoinSpectatorsButton@@UAEPAXI@Z 0049c050 f i lobby_window.obj
 0001:0009b080       ??_GTeamAllianceButton@@UAEPAXI@Z 0049c080 f i lobby_window.obj
 0001:0009b080       ??_ETeamAllianceButton@@UAEPAXI@Z 0049c080 f i  CIL library: CIL module
 0001:0009b0b0       ??_GCancelLobbyOptionsButton@@UAEPAXI@Z 0049c0b0 f i lobby_window.obj
 0001:0009b0b0       ??_ECancelLobbyOptionsButton@@UAEPAXI@Z 0049c0b0 f i  CIL library: CIL module
 0001:0009b0e0       ??1RenameButton@@UAE@XZ    0049c0e0 f i lobby_window.obj
 0001:0009b0f0       ??_ELobbyOptionsButton@@UAEPAXI@Z 0049c0f0 f i  CIL library: CIL module
 0001:0009b0f0       ??_GLobbyOptionsButton@@UAEPAXI@Z 0049c0f0 f i lobby_window.obj
 0001:0009b120       ??1KickTeamButton@@UAE@XZ  0049c120 f i lobby_window.obj
 0001:0009b130       ??1RequestJoinSpectatorsButton@@UAE@XZ 0049c130 f i lobby_window.obj
 0001:0009b140       ??1TeamAllianceButton@@UAE@XZ 0049c140 f i lobby_window.obj
 0001:0009b150       ??1CancelLobbyOptionsButton@@UAE@XZ 0049c150 f i lobby_window.obj
 0001:0009b160       ?Update@TeamOptionsWindow@@UAEXXZ 0049c160 f   lobby_window.obj
 0001:0009b1d0       ?TeamOptionsAvailable@TeamButton@@QAE_NXZ 0049c1d0 f i lobby_window.obj
 0001:0009b220       ?GetTeamOptionsButton@TeamButton@@QAEXAAH000@Z 0049c220 f i lobby_window.obj
 0001:0009b260       ?MouseInTeamOptionsButton@TeamButton@@QAE_NXZ 0049c260 f i lobby_window.obj
 0001:0009b2d0       ?Render@TeamButton@@UAEXHH_N0@Z 0049c2d0 f i lobby_window.obj
 0001:0009be20       ?MouseUp@TeamButton@@UAEXXZ 0049ce20 f i lobby_window.obj
 0001:0009c0c0       ??0ClientOptionButton@@QAE@XZ 0049d0c0 f i lobby_window.obj
 0001:0009c0f0       ?Render@ClientOptionButton@@UAEXHH_N0@Z 0049d0f0 f i lobby_window.obj
 0001:0009c540       ??_EClientOptionButton@@UAEPAXI@Z 0049d540 f i  CIL library: CIL module
 0001:0009c540       ??_GClientOptionButton@@UAEPAXI@Z 0049d540 f i lobby_window.obj
 0001:0009c570       ??1ClientOptionButton@@UAE@XZ 0049d570 f i lobby_window.obj
 0001:0009c580       ??0TeamReadyButton@@QAE@XZ 0049d580 f i lobby_window.obj
 0001:0009c5a0       ??1TeamReadyButton@@UAE@XZ 0049d5a0 f i lobby_window.obj
 0001:0009c5d0       ?IsEnable@TeamReadyButton@@QAE_NXZ 0049d5d0 f i lobby_window.obj
 0001:0009c760       ?IsVisible@TeamReadyButton@@QAE_NXZ 0049d760 f i lobby_window.obj
 0001:0009c780       ?Render@TeamReadyButton@@UAEXHH_N0@Z 0049d780 f i lobby_window.obj
 0001:0009c810       ?MouseUp@TeamReadyButton@@UAEXXZ 0049d810 f i lobby_window.obj
 0001:0009c9f0       ??_GTeamReadyButton@@UAEPAXI@Z 0049d9f0 f i lobby_window.obj
 0001:0009c9f0       ??_ETeamReadyButton@@UAEPAXI@Z 0049d9f0 f i  CIL library: CIL module
 0001:0009ca40       ?IsVisible@RequestAIButton@@AAE_NXZ 0049da40 f i lobby_window.obj
 0001:0009ca80       ?Render@RequestAIButton@@EAEXHH_N0@Z 0049da80 f i lobby_window.obj
 0001:0009cae0       ?MouseUp@RequestAIButton@@EAEXXZ 0049dae0 f i lobby_window.obj
 0001:0009cb30       ?MouseUp@ExitButton@@UAEXXZ 0049db30 f i lobby_window.obj
 0001:0009cb60       ?Render@MiniWorldMapButton@@UAEXHH_N0@Z 0049db60 f i lobby_window.obj
 0001:0009d210       ?RegisterGameOptionButton@@YAXPAVInterfaceWindow@@MMMMMHAAV?$BoundedArray@PAVGameOption@@@@_N22M@Z 0049e210 f   lobby_window.obj
 0001:0009d6b0       ?SetGameOptions@@YAXAAV?$BoundedArray@PAVGameOption@@@@@Z 0049e6b0 f   lobby_window.obj
 0001:0009d7d0       ?MouseUp@AdvancedOptionsButton@@EAEXXZ 0049e7d0 f i lobby_window.obj
 0001:0009d870       ??0LobbyOptionsWindow@@QAE@XZ 0049e870 f   lobby_window.obj
 0001:0009d920       ??_ELobbyOptionsWindow@@UAEPAXI@Z 0049e920 f i  CIL library: CIL module
 0001:0009d920       ??_GLobbyOptionsWindow@@UAEPAXI@Z 0049e920 f i lobby_window.obj
 0001:0009d950       ??1LobbyOptionsWindow@@UAE@XZ 0049e950 f i lobby_window.obj
 0001:0009d970       ?Create@LobbyOptionsWindow@@UAEXXZ 0049e970 f   lobby_window.obj
 0001:0009dbc0       ?Update@LobbyOptionsWindow@@UAEXXZ 0049ebc0 f   lobby_window.obj
 0001:0009de40       ?Render@LobbyOptionsWindow@@UAEX_N@Z 0049ee40 f   lobby_window.obj
 0001:0009e270       ??0LobbyWindow@@QAE@XZ     0049f270 f   lobby_window.obj
 0001:0009e300       ??_ELobbyWindow@@UAEPAXI@Z 0049f300 f i  CIL library: CIL module
 0001:0009e300       ??_GLobbyWindow@@UAEPAXI@Z 0049f300 f i lobby_window.obj
 0001:0009e330       ??1LobbyWindow@@UAE@XZ     0049f330 f   lobby_window.obj
 0001:0009e3d0       ?StartNewServer@LobbyWindow@@QAE_NXZ 0049f3d0 f   lobby_window.obj
 0001:0009e440       ?Create@LobbyWindow@@UAEXXZ 0049f440 f   lobby_window.obj
 0001:0009e8f0       ??0TeamButton@@QAE@XZ      0049f8f0 f i lobby_window.obj
 0001:0009e900       ??0RequestAIButton@@QAE@XZ 0049f900 f i lobby_window.obj
 0001:0009e910       ??0RequestJoinGameButton@@QAE@XZ 0049f910 f i lobby_window.obj
 0001:0009e920       ??0MiniWorldMapButton@@QAE@XZ 0049f920 f i lobby_window.obj
 0001:0009e930       ??0AdvancedOptionsButton@@QAE@XZ 0049f930 f i lobby_window.obj
 0001:0009e940       ??0ExitButton@@QAE@XZ      0049f940 f i lobby_window.obj
 0001:0009e950       ??_GTeamButton@@UAEPAXI@Z  0049f950 f i lobby_window.obj
 0001:0009e950       ??_ETeamButton@@UAEPAXI@Z  0049f950 f i  CIL library: CIL module
 0001:0009e980       ??_GRequestAIButton@@UAEPAXI@Z 0049f980 f i lobby_window.obj
 0001:0009e980       ??_ERequestAIButton@@UAEPAXI@Z 0049f980 f i  CIL library: CIL module
 0001:0009e9b0       ??_GRequestJoinGameButton@@UAEPAXI@Z 0049f9b0 f i lobby_window.obj
 0001:0009e9b0       ??_ERequestJoinGameButton@@UAEPAXI@Z 0049f9b0 f i  CIL library: CIL module
 0001:0009e9e0       ??_EMiniWorldMapButton@@UAEPAXI@Z 0049f9e0 f i  CIL library: CIL module
 0001:0009e9e0       ??_GMiniWorldMapButton@@UAEPAXI@Z 0049f9e0 f i lobby_window.obj
 0001:0009ea10       ??_EAdvancedOptionsButton@@UAEPAXI@Z 0049fa10 f i  CIL library: CIL module
 0001:0009ea10       ??_GAdvancedOptionsButton@@UAEPAXI@Z 0049fa10 f i lobby_window.obj
 0001:0009ea40       ??_EExitButton@@UAEPAXI@Z  0049fa40 f i  CIL library: CIL module
 0001:0009ea40       ??_GExitButton@@UAEPAXI@Z  0049fa40 f i lobby_window.obj
 0001:0009ea70       ??1TeamButton@@UAE@XZ      0049fa70 f i lobby_window.obj
 0001:0009ea80       ??1RequestAIButton@@UAE@XZ 0049fa80 f i lobby_window.obj
 0001:0009ea90       ??1RequestJoinGameButton@@UAE@XZ 0049fa90 f i lobby_window.obj
 0001:0009eaa0       ??1MiniWorldMapButton@@UAE@XZ 0049faa0 f i lobby_window.obj
 0001:0009eab0       ??1AdvancedOptionsButton@@UAE@XZ 0049fab0 f i lobby_window.obj
 0001:0009eac0       ??1ExitButton@@UAE@XZ      0049fac0 f i lobby_window.obj
 0001:0009ead0       ?OrderTeams@LobbyWindow@@QAEXXZ 0049fad0 f   lobby_window.obj
 0001:0009ecb0       ?Update@LobbyWindow@@UAEXXZ 0049fcb0 f   lobby_window.obj
 0001:0009f140       ?Render@LobbyWindow@@UAEX_N@Z 004a0140 f   lobby_window.obj
 0001:0009fe40       ?MouseUp@ApplyTeamNameButton@@EAEXXZ 004a0e40 f i lobby_window.obj
 0001:0009ff90       ??0RenameTeamWindow@@QAE@H@Z 004a0f90 f   lobby_window.obj
 0001:000a01e0       ??_ERenameTeamWindow@@UAEPAXI@Z 004a11e0 f i  CIL library: CIL module
 0001:000a01e0       ??_GRenameTeamWindow@@UAEPAXI@Z 004a11e0 f i lobby_window.obj
 0001:000a0210       ??1RenameTeamWindow@@UAE@XZ 004a1210 f i lobby_window.obj
 0001:000a0220       ?Create@RenameTeamWindow@@UAEXXZ 004a1220 f   lobby_window.obj
 0001:000a0350       ??0ApplyTeamNameButton@@QAE@XZ 004a1350 f i lobby_window.obj
 0001:000a0360       ??_EApplyTeamNameButton@@UAEPAXI@Z 004a1360 f i  CIL library: CIL module
 0001:000a0360       ??_GApplyTeamNameButton@@UAEPAXI@Z 004a1360 f i lobby_window.obj
 0001:000a0390       ??1ApplyTeamNameButton@@UAE@XZ 004a1390 f i lobby_window.obj
 0001:000a03a0       ?Render@RenameTeamWindow@@UAEX_N@Z 004a13a0 f   lobby_window.obj
 0001:000a04a0       ??0?$BoundedArray@PAVGameOption@@@@QAE@XZ 004a14a0 f i lobby_window.obj
 0001:000a04b0       ??1?$BoundedArray@PAVGameOption@@@@QAE@XZ 004a14b0 f i lobby_window.obj
 0001:000a04c0       ?Initialise@?$BoundedArray@PAVGameOption@@@@QAEXI@Z 004a14c0 f i lobby_window.obj
 0001:000a04e0       ??A?$BoundedArray@PAVGameOption@@@@QAEAAPAVGameOption@@I@Z 004a14e0 f i lobby_window.obj
 0001:000a0510       ?SetAll@?$BoundedArray@PAVGameOption@@@@QAEXABQAVGameOption@@@Z 004a1510 f i lobby_window.obj
 0001:000a0530       ?Empty@?$BoundedArray@PAVGameOption@@@@QAEXXZ 004a1530 f i lobby_window.obj
 0001:000a0560       ?MouseUp@MainMenuNewGameButton@@EAEXXZ 004a1560 f i mainmenu.obj
 0001:000a07b0       ?Render@MainMenuNewGameButton@@EAEXHH_N0@Z 004a17b0 f i mainmenu.obj
 0001:000a07c0       ?MouseUp@MainMenuJoinGameButton@@EAEXXZ 004a17c0 f i mainmenu.obj
 0001:000a0850       ?Render@MainMenuJoinGameButton@@EAEXHH_N0@Z 004a1850 f i mainmenu.obj
 0001:000a0860       ?MouseUp@MainMenuOptionsButton@@EAEXXZ 004a1860 f i mainmenu.obj
 0001:000a08e0       ?MouseUp@ConfirmExitButton@@EAEXXZ 004a18e0 f i mainmenu.obj
 0001:000a08f0       ??0ConfirmExitWindow@@QAE@XZ 004a18f0 f i mainmenu.obj
 0001:000a0920       ?Create@ConfirmExitWindow@@UAEXXZ 004a1920 f i mainmenu.obj
 0001:000a09d0       ?Render@ConfirmExitWindow@@UAEX_N@Z 004a19d0 f i mainmenu.obj
 0001:000a0a50       ??_GConfirmExitWindow@@UAEPAXI@Z 004a1a50 f i mainmenu.obj
 0001:000a0a50       ??_EConfirmExitWindow@@UAEPAXI@Z 004a1a50 f i  CIL library: CIL module
 0001:000a0a80       ??0ConfirmExitButton@@QAE@XZ 004a1a80 f i mainmenu.obj
 0001:000a0a90       ??1ConfirmExitWindow@@UAE@XZ 004a1a90 f i mainmenu.obj
 0001:000a0aa0       ??_GConfirmExitButton@@UAEPAXI@Z 004a1aa0 f i mainmenu.obj
 0001:000a0aa0       ??_EConfirmExitButton@@UAEPAXI@Z 004a1aa0 f i  CIL library: CIL module
 0001:000a0ad0       ??1ConfirmExitButton@@UAE@XZ 004a1ad0 f i mainmenu.obj
 0001:000a0ae0       ?MouseUp@MainMenuExitButton@@EAEXXZ 004a1ae0 f i mainmenu.obj
 0001:000a0bb0       ?MouseUp@ConfirmLeaveGameButton@@EAEXXZ 004a1bb0 f i mainmenu.obj
 0001:000a0bd0       ??0ConfirmLeaveGameWindow@@QAE@XZ 004a1bd0 f i mainmenu.obj
 0001:000a0c00       ?Create@ConfirmLeaveGameWindow@@UAEXXZ 004a1c00 f i mainmenu.obj
 0001:000a0cb0       ?Render@ConfirmLeaveGameWindow@@UAEX_N@Z 004a1cb0 f i mainmenu.obj
 0001:000a0d30       ??_EConfirmLeaveGameWindow@@UAEPAXI@Z 004a1d30 f i  CIL library: CIL module
 0001:000a0d30       ??_GConfirmLeaveGameWindow@@UAEPAXI@Z 004a1d30 f i mainmenu.obj
 0001:000a0d60       ??0ConfirmLeaveGameButton@@QAE@XZ 004a1d60 f i mainmenu.obj
 0001:000a0d70       ??1ConfirmLeaveGameWindow@@UAE@XZ 004a1d70 f i mainmenu.obj
 0001:000a0d80       ??_GConfirmLeaveGameButton@@UAEPAXI@Z 004a1d80 f i mainmenu.obj
 0001:000a0d80       ??_EConfirmLeaveGameButton@@UAEPAXI@Z 004a1d80 f i  CIL library: CIL module
 0001:000a0db0       ??1ConfirmLeaveGameButton@@UAE@XZ 004a1db0 f i mainmenu.obj
 0001:000a0dc0       ?MouseUp@MainMenuLeaveGameButton@@EAEXXZ 004a1dc0 f i mainmenu.obj
 0001:000a0e90       ?MouseUp@DebugButton@@EAEXXZ 004a1e90 f i mainmenu.obj
 0001:000a0f10       ??0DemoModeButton@@QAE@XZ  004a1f10 f i mainmenu.obj
 0001:000a0f40       ?MouseUp@DemoModeButton@@UAEXXZ 004a1f40 f i mainmenu.obj
 0001:000a1140       ?Render@DemoModeButton@@UAEXHH_N0@Z 004a2140 f i mainmenu.obj
 0001:000a1430       ??_GDemoModeButton@@UAEPAXI@Z 004a2430 f i mainmenu.obj
 0001:000a1430       ??_EDemoModeButton@@UAEPAXI@Z 004a2430 f i  CIL library: CIL module
 0001:000a1460       ??1DemoModeButton@@UAE@XZ  004a2460 f i mainmenu.obj
 0001:000a1470       ?Render@TutorialModeButton@@UAEXHH_N0@Z 004a2470 f i mainmenu.obj
 0001:000a1730       ?MouseUp@TutorialModeButton@@UAEXXZ 004a2730 f i mainmenu.obj
 0001:000a18f0       ??0TutorialMenu@@QAE@XZ    004a28f0 f i mainmenu.obj
 0001:000a1930       ?Create@TutorialMenu@@UAEXXZ 004a2930 f i mainmenu.obj
 0001:000a1b10       ??_ETutorialMenu@@UAEPAXI@Z 004a2b10 f i  CIL library: CIL module
 0001:000a1b10       ??_GTutorialMenu@@UAEPAXI@Z 004a2b10 f i mainmenu.obj
 0001:000a1b40       ??0TutorialModeButton@@QAE@XZ 004a2b40 f i mainmenu.obj
 0001:000a1b50       ??1TutorialMenu@@UAE@XZ    004a2b50 f i mainmenu.obj
 0001:000a1b60       ??_GTutorialModeButton@@UAEPAXI@Z 004a2b60 f i mainmenu.obj
 0001:000a1b60       ??_ETutorialModeButton@@UAEPAXI@Z 004a2b60 f i  CIL library: CIL module
 0001:000a1b90       ??1TutorialModeButton@@UAE@XZ 004a2b90 f i mainmenu.obj
 0001:000a1ba0       ?MouseUp@ShowTutorialMenuButton@@EAEXXZ 004a2ba0 f i mainmenu.obj
 0001:000a1d20       ?MouseUp@ModWindowButton@@UAEXXZ 004a2d20 f i mainmenu.obj
 0001:000a1e20       ?ConfirmExit@@YAXPBD@Z     004a2e20 f   mainmenu.obj
 0001:000a1ee0       ?AttemptQuitImmediately@@YAXXZ 004a2ee0 f   mainmenu.obj
 0001:000a1ef0       ??0MainMenu@@QAE@XZ        004a2ef0 f   mainmenu.obj
 0001:000a1f30       ??_EMainMenu@@UAEPAXI@Z    004a2f30 f i  CIL library: CIL module
 0001:000a1f30       ??_GMainMenu@@UAEPAXI@Z    004a2f30 f i mainmenu.obj
 0001:000a1f60       ??1MainMenu@@UAE@XZ        004a2f60 f i mainmenu.obj
 0001:000a1f70       ?Create@MainMenu@@UAEXXZ   004a2f70 f   mainmenu.obj
 0001:000a2310       ??0MainMenuNewGameButton@@QAE@XZ 004a3310 f i mainmenu.obj
 0001:000a2320       ??0MainMenuJoinGameButton@@QAE@XZ 004a3320 f i mainmenu.obj
 0001:000a2330       ??0ShowTutorialMenuButton@@QAE@XZ 004a3330 f i mainmenu.obj
 0001:000a2340       ??0MainMenuOptionsButton@@QAE@XZ 004a3340 f i mainmenu.obj
 0001:000a2350       ??0DebugButton@@QAE@XZ     004a3350 f i mainmenu.obj
 0001:000a2360       ??0ModWindowButton@@QAE@XZ 004a3360 f i mainmenu.obj
 0001:000a2370       ??0MainMenuLeaveGameButton@@QAE@XZ 004a3370 f i mainmenu.obj
 0001:000a2380       ??0MainMenuExitButton@@QAE@XZ 004a3380 f i mainmenu.obj
 0001:000a2390       ??_EMainMenuNewGameButton@@UAEPAXI@Z 004a3390 f i  CIL library: CIL module
 0001:000a2390       ??_GMainMenuNewGameButton@@UAEPAXI@Z 004a3390 f i mainmenu.obj
 0001:000a23c0       ??_GMainMenuJoinGameButton@@UAEPAXI@Z 004a33c0 f i mainmenu.obj
 0001:000a23c0       ??_EMainMenuJoinGameButton@@UAEPAXI@Z 004a33c0 f i  CIL library: CIL module
 0001:000a23f0       ??_GShowTutorialMenuButton@@UAEPAXI@Z 004a33f0 f i mainmenu.obj
 0001:000a23f0       ??_EShowTutorialMenuButton@@UAEPAXI@Z 004a33f0 f i  CIL library: CIL module
 0001:000a2420       ??_EMainMenuOptionsButton@@UAEPAXI@Z 004a3420 f i  CIL library: CIL module
 0001:000a2420       ??_GMainMenuOptionsButton@@UAEPAXI@Z 004a3420 f i mainmenu.obj
 0001:000a2450       ??_GDebugButton@@UAEPAXI@Z 004a3450 f i mainmenu.obj
 0001:000a2450       ??_EDebugButton@@UAEPAXI@Z 004a3450 f i  CIL library: CIL module
 0001:000a2480       ??_GModWindowButton@@UAEPAXI@Z 004a3480 f i mainmenu.obj
 0001:000a2480       ??_EModWindowButton@@UAEPAXI@Z 004a3480 f i  CIL library: CIL module
 0001:000a24b0       ??_EMainMenuLeaveGameButton@@UAEPAXI@Z 004a34b0 f i  CIL library: CIL module
 0001:000a24b0       ??_GMainMenuLeaveGameButton@@UAEPAXI@Z 004a34b0 f i mainmenu.obj
 0001:000a24e0       ??_GMainMenuExitButton@@UAEPAXI@Z 004a34e0 f i mainmenu.obj
 0001:000a24e0       ??_EMainMenuExitButton@@UAEPAXI@Z 004a34e0 f i  CIL library: CIL module
 0001:000a2510       ??1MainMenuNewGameButton@@UAE@XZ 004a3510 f i mainmenu.obj
 0001:000a2520       ??1MainMenuJoinGameButton@@UAE@XZ 004a3520 f i mainmenu.obj
 0001:000a2530       ??1ShowTutorialMenuButton@@UAE@XZ 004a3530 f i mainmenu.obj
 0001:000a2540       ??1MainMenuOptionsButton@@UAE@XZ 004a3540 f i mainmenu.obj
 0001:000a2550       ??1DebugButton@@UAE@XZ     004a3550 f i mainmenu.obj
 0001:000a2560       ??1ModWindowButton@@UAE@XZ 004a3560 f i mainmenu.obj
 0001:000a2570       ??1MainMenuLeaveGameButton@@UAE@XZ 004a3570 f i mainmenu.obj
 0001:000a2580       ??1MainMenuExitButton@@UAE@XZ 004a3580 f i mainmenu.obj
 0001:000a2590       ?RestartWindowManager@DefconScreenOptionsWindow@@EAEXXZ 004a3590 f i mainmenu.obj
 0001:000a25a0       ?MouseUp@PlayerNameOptionsButton@@EAEXXZ 004a35a0 f i mainmenu.obj
 0001:000a2620       ?Render@PlayerNameOptionsButton@@EAEXHH_N0@Z 004a3620 f i mainmenu.obj
 0001:000a2690       ?MouseUp@ScreenOptionsButton@@EAEXXZ 004a3690 f i mainmenu.obj
 0001:000a2710       ??0DefconScreenOptionsWindow@@QAE@XZ 004a3710 f i mainmenu.obj
 0001:000a2720       ??_GDefconScreenOptionsWindow@@UAEPAXI@Z 004a3720 f i mainmenu.obj
 0001:000a2720       ??_EDefconScreenOptionsWindow@@UAEPAXI@Z 004a3720 f i  CIL library: CIL module
 0001:000a2750       ??1ScreenOptionsWindow@@UAE@XZ 004a3750 f i mainmenu.obj
 0001:000a2760       ??1DefconScreenOptionsWindow@@UAE@XZ 004a3760 f i mainmenu.obj
 0001:000a2770       ?MouseUp@GraphicsOptionsButton@@EAEXXZ 004a3770 f i mainmenu.obj
 0001:000a27e0       ?MouseUp@SoundOptionsButton@@EAEXXZ 004a37e0 f i mainmenu.obj
 0001:000a2860       ?MouseUp@NetworkOptionsButton@@EAEXXZ 004a3860 f i mainmenu.obj
 0001:000a28e0       ?MouseUp@ControlOptionsButton@@EAEXXZ 004a38e0 f i mainmenu.obj
 0001:000a2960       ??0OptionsMenuWindow@@QAE@XZ 004a3960 f   mainmenu.obj
 0001:000a29a0       ??_EOptionsMenuWindow@@UAEPAXI@Z 004a39a0 f i  CIL library: CIL module
 0001:000a29a0       ??_GOptionsMenuWindow@@UAEPAXI@Z 004a39a0 f i mainmenu.obj
 0001:000a29d0       ??1OptionsMenuWindow@@UAE@XZ 004a39d0 f i mainmenu.obj
 0001:000a29e0       ?Create@OptionsMenuWindow@@UAEXXZ 004a39e0 f   mainmenu.obj
 0001:000a2be0       ??0ScreenOptionsButton@@QAE@XZ 004a3be0 f i mainmenu.obj
 0001:000a2bf0       ??0GraphicsOptionsButton@@QAE@XZ 004a3bf0 f i mainmenu.obj
 0001:000a2c00       ??0SoundOptionsButton@@QAE@XZ 004a3c00 f i mainmenu.obj
 0001:000a2c10       ??0NetworkOptionsButton@@QAE@XZ 004a3c10 f i mainmenu.obj
 0001:000a2c20       ??0ControlOptionsButton@@QAE@XZ 004a3c20 f i mainmenu.obj
 0001:000a2c30       ??_EScreenOptionsButton@@UAEPAXI@Z 004a3c30 f i  CIL library: CIL module
 0001:000a2c30       ??_GScreenOptionsButton@@UAEPAXI@Z 004a3c30 f i mainmenu.obj
 0001:000a2c60       ??_GGraphicsOptionsButton@@UAEPAXI@Z 004a3c60 f i mainmenu.obj
 0001:000a2c60       ??_EGraphicsOptionsButton@@UAEPAXI@Z 004a3c60 f i  CIL library: CIL module
 0001:000a2c90       ??_ESoundOptionsButton@@UAEPAXI@Z 004a3c90 f i  CIL library: CIL module
 0001:000a2c90       ??_GSoundOptionsButton@@UAEPAXI@Z 004a3c90 f i mainmenu.obj
 0001:000a2cc0       ??_GNetworkOptionsButton@@UAEPAXI@Z 004a3cc0 f i mainmenu.obj
 0001:000a2cc0       ??_ENetworkOptionsButton@@UAEPAXI@Z 004a3cc0 f i  CIL library: CIL module
 0001:000a2cf0       ??_EControlOptionsButton@@UAEPAXI@Z 004a3cf0 f i  CIL library: CIL module
 0001:000a2cf0       ??_GControlOptionsButton@@UAEPAXI@Z 004a3cf0 f i mainmenu.obj
 0001:000a2d20       ??1ScreenOptionsButton@@UAE@XZ 004a3d20 f i mainmenu.obj
 0001:000a2d30       ??1GraphicsOptionsButton@@UAE@XZ 004a3d30 f i mainmenu.obj
 0001:000a2d40       ??1SoundOptionsButton@@UAE@XZ 004a3d40 f i mainmenu.obj
 0001:000a2d50       ??1NetworkOptionsButton@@UAE@XZ 004a3d50 f i mainmenu.obj
 0001:000a2d60       ??1ControlOptionsButton@@UAE@XZ 004a3d60 f i mainmenu.obj
 0001:000a2d70       ?MouseUp@ApplyGraphicsButton@@EAEXXZ 004a3d70 f i mainmenu.obj
 0001:000a2e70       ??0GraphicsOptionsWindow@@QAE@XZ 004a3e70 f   mainmenu.obj
 0001:000a2f50       ??_EGraphicsOptionsWindow@@UAEPAXI@Z 004a3f50 f i  CIL library: CIL module
 0001:000a2f50       ??_GGraphicsOptionsWindow@@UAEPAXI@Z 004a3f50 f i mainmenu.obj
 0001:000a2f80       ??1GraphicsOptionsWindow@@UAE@XZ 004a3f80 f i mainmenu.obj
 0001:000a2f90       ?Create@GraphicsOptionsWindow@@UAEXXZ 004a3f90 f   mainmenu.obj
 0001:000a3570       ??0ApplyGraphicsButton@@QAE@XZ 004a4570 f i mainmenu.obj
 0001:000a3580       ??_GApplyGraphicsButton@@UAEPAXI@Z 004a4580 f i mainmenu.obj
 0001:000a3580       ??_EApplyGraphicsButton@@UAEPAXI@Z 004a4580 f i  CIL library: CIL module
 0001:000a35b0       ??1ApplyGraphicsButton@@UAE@XZ 004a45b0 f i mainmenu.obj
 0001:000a35c0       ?Render@GraphicsOptionsWindow@@UAEX_N@Z 004a45c0 f   mainmenu.obj
 0001:000a3910       ?MouseUp@ApplyControlsButton@@EAEXXZ 004a4910 f i mainmenu.obj
 0001:000a3b10       ??0ControlOptionsWindow@@QAE@XZ 004a4b10 f   mainmenu.obj
 0001:000a3c60       ??_EControlOptionsWindow@@UAEPAXI@Z 004a4c60 f i  CIL library: CIL module
 0001:000a3c60       ??_GControlOptionsWindow@@UAEPAXI@Z 004a4c60 f i mainmenu.obj
 0001:000a3c90       ??1ControlOptionsWindow@@UAE@XZ 004a4c90 f i mainmenu.obj
 0001:000a3ca0       ?Create@ControlOptionsWindow@@UAEXXZ 004a4ca0 f   mainmenu.obj
 0001:000a4270       ??0PlayerNameOptionsButton@@QAE@XZ 004a5270 f i mainmenu.obj
 0001:000a4280       ??0ApplyControlsButton@@QAE@XZ 004a5280 f i mainmenu.obj
 0001:000a4290       ??_EPlayerNameOptionsButton@@UAEPAXI@Z 004a5290 f i  CIL library: CIL module
 0001:000a4290       ??_GPlayerNameOptionsButton@@UAEPAXI@Z 004a5290 f i mainmenu.obj
 0001:000a42c0       ??_EApplyControlsButton@@UAEPAXI@Z 004a52c0 f i  CIL library: CIL module
 0001:000a42c0       ??_GApplyControlsButton@@UAEPAXI@Z 004a52c0 f i mainmenu.obj
 0001:000a42f0       ??1PlayerNameOptionsButton@@UAE@XZ 004a52f0 f i mainmenu.obj
 0001:000a4300       ??1ApplyControlsButton@@UAE@XZ 004a5300 f i mainmenu.obj
 0001:000a4310       ?Render@ControlOptionsWindow@@UAEX_N@Z 004a5310 f   mainmenu.obj
 0001:000a4660       ?MouseUp@ApplyNetworkButton@@EAEXXZ 004a5660 f i mainmenu.obj
 0001:000a48c0       ?Render@ShowNetworkingHelpButton@@EAEXHH_N0@Z 004a58c0 f i mainmenu.obj
 0001:000a4990       ?MouseUp@ShowNetworkingHelpButton@@EAEXXZ 004a5990 f i mainmenu.obj
 0001:000a4a20       ??0NetworkOptionsWindow@@QAE@XZ 004a5a20 f   mainmenu.obj
 0001:000a4ae0       ??_ENetworkOptionsWindow@@UAEPAXI@Z 004a5ae0 f i  CIL library: CIL module
 0001:000a4ae0       ??_GNetworkOptionsWindow@@UAEPAXI@Z 004a5ae0 f i mainmenu.obj
 0001:000a4b10       ??1NetworkOptionsWindow@@UAE@XZ 004a5b10 f i mainmenu.obj
 0001:000a4b20       ?Create@NetworkOptionsWindow@@UAEXXZ 004a5b20 f   mainmenu.obj
 0001:000a4e00       ??0ShowNetworkingHelpButton@@QAE@XZ 004a5e00 f i mainmenu.obj
 0001:000a4e20       ??0ApplyNetworkButton@@QAE@XZ 004a5e20 f i mainmenu.obj
 0001:000a4e30       ??_GShowNetworkingHelpButton@@UAEPAXI@Z 004a5e30 f i mainmenu.obj
 0001:000a4e30       ??_EShowNetworkingHelpButton@@UAEPAXI@Z 004a5e30 f i  CIL library: CIL module
 0001:000a4e60       ??_EApplyNetworkButton@@UAEPAXI@Z 004a5e60 f i  CIL library: CIL module
 0001:000a4e60       ??_GApplyNetworkButton@@UAEPAXI@Z 004a5e60 f i mainmenu.obj
 0001:000a4e90       ??1ShowNetworkingHelpButton@@UAE@XZ 004a5e90 f i mainmenu.obj
 0001:000a4ea0       ??1ApplyNetworkButton@@UAE@XZ 004a5ea0 f i mainmenu.obj
 0001:000a4eb0       ?Render@NetworkOptionsWindow@@UAEX_N@Z 004a5eb0 f   mainmenu.obj
 0001:000a5130       ?Render@InstalledModButton@@UAEXHH_N0@Z 004a6130 f i mod_window.obj
 0001:000a54d0       ?MouseUp@InstalledModButton@@UAEXXZ 004a64d0 f i mod_window.obj
 0001:000a5530       ?IsVisible@ActivateDeactivateButton@@AAEHXZ 004a6530 f i mod_window.obj
 0001:000a5570       ?Render@ActivateDeactivateButton@@EAEXHH_N0@Z 004a6570 f i mod_window.obj
 0001:000a55e0       ?MouseUp@ActivateDeactivateButton@@EAEXXZ 004a65e0 f i mod_window.obj
 0001:000a5760       ?IsVisible@MoveModButton@@QAEHXZ 004a6760 f i mod_window.obj
 0001:000a5790       ?Render@MoveModButton@@UAEXHH_N0@Z 004a6790 f i mod_window.obj
 0001:000a57e0       ?MouseUp@MoveModButton@@UAEXXZ 004a67e0 f i mod_window.obj
 0001:000a58e0       ?IsVisible@ApplyModsButton@@AAE_NXZ 004a68e0 f i mod_window.obj
 0001:000a58f0       ?Render@ApplyModsButton@@EAEXHH_N0@Z 004a68f0 f i mod_window.obj
 0001:000a5930       ?MouseUp@ApplyModsButton@@EAEXXZ 004a6930 f i mod_window.obj
 0001:000a5950       ?Render@FindMoreModsButton@@EAEXHH_N0@Z 004a6950 f i mod_window.obj
 0001:000a5a20       ?MouseUp@FindMoreModsButton@@EAEXXZ 004a6a20 f i mod_window.obj
 0001:000a5ab0       ?GetValidURL@VisitModWebsiteButton@@AAEPADXZ 004a6ab0 f i mod_window.obj
 0001:000a5b10       ?Render@VisitModWebsiteButton@@EAEXHH_N0@Z 004a6b10 f i mod_window.obj
 0001:000a5cc0       ?MouseUp@VisitModWebsiteButton@@EAEXXZ 004a6cc0 f i mod_window.obj
 0001:000a5d40       ??0ModWindow@@QAE@XZ       004a6d40 f   mod_window.obj
 0001:000a5d90       ??_EModWindow@@UAEPAXI@Z   004a6d90 f i  CIL library: CIL module
 0001:000a5d90       ??_GModWindow@@UAEPAXI@Z   004a6d90 f i mod_window.obj
 0001:000a5dc0       ??1ModWindow@@UAE@XZ       004a6dc0 f i mod_window.obj
 0001:000a5dd0       ?Create@ModWindow@@UAEXXZ  004a6dd0 f   mod_window.obj
 0001:000a6210       ??0InstalledModButton@@QAE@XZ 004a7210 f i mod_window.obj
 0001:000a6220       ??0FindMoreModsButton@@QAE@XZ 004a7220 f i mod_window.obj
 0001:000a6230       ??0ActivateDeactivateButton@@QAE@XZ 004a7230 f i mod_window.obj
 0001:000a6240       ??0MoveModButton@@QAE@XZ   004a7240 f i mod_window.obj
 0001:000a6250       ??0ApplyModsButton@@QAE@XZ 004a7250 f i mod_window.obj
 0001:000a6260       ??0VisitModWebsiteButton@@QAE@XZ 004a7260 f i mod_window.obj
 0001:000a6270       ??_EInstalledModButton@@UAEPAXI@Z 004a7270 f i  CIL library: CIL module
 0001:000a6270       ??_GInstalledModButton@@UAEPAXI@Z 004a7270 f i mod_window.obj
 0001:000a62a0       ??_EFindMoreModsButton@@UAEPAXI@Z 004a72a0 f i  CIL library: CIL module
 0001:000a62a0       ??_GFindMoreModsButton@@UAEPAXI@Z 004a72a0 f i mod_window.obj
 0001:000a62d0       ??_EActivateDeactivateButton@@UAEPAXI@Z 004a72d0 f i  CIL library: CIL module
 0001:000a62d0       ??_GActivateDeactivateButton@@UAEPAXI@Z 004a72d0 f i mod_window.obj
 0001:000a6300       ??_GMoveModButton@@UAEPAXI@Z 004a7300 f i mod_window.obj
 0001:000a6300       ??_EMoveModButton@@UAEPAXI@Z 004a7300 f i  CIL library: CIL module
 0001:000a6330       ??_GApplyModsButton@@UAEPAXI@Z 004a7330 f i mod_window.obj
 0001:000a6330       ??_EApplyModsButton@@UAEPAXI@Z 004a7330 f i  CIL library: CIL module
 0001:000a6360       ??_EVisitModWebsiteButton@@UAEPAXI@Z 004a7360 f i  CIL library: CIL module
 0001:000a6360       ??_GVisitModWebsiteButton@@UAEPAXI@Z 004a7360 f i mod_window.obj
 0001:000a6390       ??1InstalledModButton@@UAE@XZ 004a7390 f i mod_window.obj
 0001:000a63a0       ??1FindMoreModsButton@@UAE@XZ 004a73a0 f i mod_window.obj
 0001:000a63b0       ??1ActivateDeactivateButton@@UAE@XZ 004a73b0 f i mod_window.obj
 0001:000a63c0       ??1MoveModButton@@UAE@XZ   004a73c0 f i mod_window.obj
 0001:000a63d0       ??1ApplyModsButton@@UAE@XZ 004a73d0 f i mod_window.obj
 0001:000a63e0       ??1VisitModWebsiteButton@@UAE@XZ 004a73e0 f i mod_window.obj
 0001:000a63f0       ?SelectMod@ModWindow@@QAEXPAD0@Z 004a73f0 f   mod_window.obj
 0001:000a6590       ??_GBitmap@@QAEPAXI@Z      004a7590 f i mod_window.obj
 0001:000a65b0       ?Render@ModWindow@@UAEX_N@Z 004a75b0 f   mod_window.obj
 0001:000a6ba0       ??0NetworkWindow@@QAE@PAD0_N@Z 004a7ba0 f   network_window.obj
 0001:000a6bd0       ??_GNetworkWindow@@UAEPAXI@Z 004a7bd0 f i network_window.obj
 0001:000a6bd0       ??_ENetworkWindow@@UAEPAXI@Z 004a7bd0 f i  CIL library: CIL module
 0001:000a6c00       ??1NetworkWindow@@UAE@XZ   004a7c00 f i network_window.obj
 0001:000a6c10       ?Create@NetworkWindow@@UAEXXZ 004a7c10 f   network_window.obj
 0001:000a6cd0       ?Render@NetworkWindow@@UAEX_N@Z 004a7cd0 f   network_window.obj
 0001:000a7e20       ??0PlacementIconWindow@@QAE@PADH@Z 004a8e20 f   placement_icon.obj
 0001:000a7e60       ??_EPlacementIconWindow@@UAEPAXI@Z 004a8e60 f i  CIL library: CIL module
 0001:000a7e60       ??_GPlacementIconWindow@@UAEPAXI@Z 004a8e60 f i placement_icon.obj
 0001:000a7e90       ??1PlacementIconWindow@@UAE@XZ 004a8e90 f i placement_icon.obj
 0001:000a7ea0       ?Render@PlacementIconWindow@@UAEX_N@Z 004a8ea0 f   placement_icon.obj
 0001:000a7ee0       ?Create@PlacementIconWindow@@UAEXXZ 004a8ee0 f   placement_icon.obj
 0001:000a7f50       ??0PlacementIconButton@@QAE@H@Z 004a8f50 f   placement_icon.obj
 0001:000a7f70       ??_GPlacementIconButton@@UAEPAXI@Z 004a8f70 f i placement_icon.obj
 0001:000a7f70       ??_EPlacementIconButton@@UAEPAXI@Z 004a8f70 f i  CIL library: CIL module
 0001:000a7fa0       ??1PlacementIconButton@@UAE@XZ 004a8fa0 f i placement_icon.obj
 0001:000a7fb0       ?Render@PlacementIconButton@@UAEXHH_N0@Z 004a8fb0 f   placement_icon.obj
 0001:000a8360       ?MouseUp@PlacementIconButton@@UAEXXZ 004a9360 f   placement_icon.obj
 0001:000a8500       ?GetRawLmbClicked@InputManager@@QBE_NXZ 004a9500 f i profile_window.obj
 0001:000a8510       ?MouseUp@ProfilerButton@@UAEXXZ 004a9510 f i profile_window.obj
 0001:000a8660       ??0ProfileWindow@@QAE@PAD0_N@Z 004a9660 f   profile_window.obj
 0001:000a86e0       ??_GProfileWindow@@UAEPAXI@Z 004a96e0 f i profile_window.obj
 0001:000a86e0       ??_EProfileWindow@@UAEPAXI@Z 004a96e0 f i  CIL library: CIL module
 0001:000a8710       ??1ProfileWindow@@UAE@XZ   004a9710 f   profile_window.obj
 0001:000a8730       ?RenderElementProfile@ProfileWindow@@IAEXPAVProfiledElement@@I@Z 004a9730 f   profile_window.obj
 0001:000a8b60       ?RenderFrameTimes@ProfileWindow@@IAEXMMMM@Z 004a9b60 f   profile_window.obj
 0001:000a8f90       ?Render@ProfileWindow@@UAEX_N@Z 004a9f90 f   profile_window.obj
 0001:000a9140       ?Create@ProfileWindow@@UAEXXZ 004aa140 f   profile_window.obj
 0001:000a92b0       ??0ProfilerButton@@QAE@XZ  004aa2b0 f i profile_window.obj
 0001:000a92c0       ??_EProfilerButton@@UAEPAXI@Z 004aa2c0 f i  CIL library: CIL module
 0001:000a92c0       ??_GProfilerButton@@UAEPAXI@Z 004aa2c0 f i profile_window.obj
 0001:000a92f0       ??1ProfilerButton@@UAE@XZ  004aa2f0 f i profile_window.obj
 0001:000a9300       ?NumUsed@?$HashTable@PAVProfiledElement@@@@QBEIXZ 004aa300 f i profile_window.obj
 0001:000a9310       ?MouseUp@ResynchronisedButton@@EAEXXZ 004aa310 f i resynchronise_window.obj
 0001:000a9410       ??0ResynchroniseWindow@@QAE@XZ 004aa410 f   resynchronise_window.obj
 0001:000a9480       ??_GResynchroniseWindow@@UAEPAXI@Z 004aa480 f i resynchronise_window.obj
 0001:000a9480       ??_EResynchroniseWindow@@UAEPAXI@Z 004aa480 f i  CIL library: CIL module
 0001:000a94b0       ??1ResynchroniseWindow@@UAE@XZ 004aa4b0 f i resynchronise_window.obj
 0001:000a94c0       ?Create@ResynchroniseWindow@@UAEXXZ 004aa4c0 f   resynchronise_window.obj
 0001:000a9590       ??0ResynchronisedButton@@QAE@XZ 004aa590 f i resynchronise_window.obj
 0001:000a95a0       ??_GResynchronisedButton@@UAEPAXI@Z 004aa5a0 f i resynchronise_window.obj
 0001:000a95a0       ??_EResynchronisedButton@@UAEPAXI@Z 004aa5a0 f i  CIL library: CIL module
 0001:000a95d0       ??1ResynchronisedButton@@UAE@XZ 004aa5d0 f i resynchronise_window.obj
 0001:000a95e0       ?Update@ResynchroniseWindow@@UAEXXZ 004aa5e0 f   resynchronise_window.obj
 0001:000a9620       ?Render@ResynchroniseWindow@@UAEX_N@Z 004aa620 f   resynchronise_window.obj
 0001:000a97d0       ?Render@RequestServerListButton@@UAEXHH_N0@Z 004aa7d0 f i serverbrowser_window.obj
 0001:000a98a0       ?MouseUp@RequestServerListButton@@UAEXXZ 004aa8a0 f i serverbrowser_window.obj
 0001:000a98c0       ?MouseUp@ApplyServerPasswordButton@@UAEXXZ 004aa8c0 f i serverbrowser_window.obj
 0001:000a9980       ??0ServerPasswordWindow@@QAE@XZ 004aa980 f   serverbrowser_window.obj
 0001:000a99f0       ??_GServerPasswordWindow@@UAEPAXI@Z 004aa9f0 f i serverbrowser_window.obj
 0001:000a99f0       ??_EServerPasswordWindow@@UAEPAXI@Z 004aa9f0 f i  CIL library: CIL module
 0001:000a9a20       ??1ServerPasswordWindow@@UAE@XZ 004aaa20 f i serverbrowser_window.obj
 0001:000a9a30       ?Create@ServerPasswordWindow@@UAEXXZ 004aaa30 f   serverbrowser_window.obj
 0001:000a9b60       ??0ApplyServerPasswordButton@@QAE@XZ 004aab60 f i serverbrowser_window.obj
 0001:000a9b70       ??_EApplyServerPasswordButton@@UAEPAXI@Z 004aab70 f i  CIL library: CIL module
 0001:000a9b70       ??_GApplyServerPasswordButton@@UAEPAXI@Z 004aab70 f i serverbrowser_window.obj
 0001:000a9ba0       ??1ApplyServerPasswordButton@@UAE@XZ 004aaba0 f i serverbrowser_window.obj
 0001:000a9bb0       ?Render@ServerPasswordWindow@@UAEX_N@Z 004aabb0 f   serverbrowser_window.obj
 0001:000a9c30       ?Render@JoinGameButton@@UAEXHH_N0@Z 004aac30 f i serverbrowser_window.obj
 0001:000a9c40       ?MouseUp@JoinGameButton@@UAEXXZ 004aac40 f i serverbrowser_window.obj
 0001:000a9c90       ?RenderPlayerSlots@@YAXHHHHHHHHH@Z 004aac90 f   serverbrowser_window.obj
 0001:000a9d60       ?Render@GameServerButton@@UAEXHH_N0@Z 004aad60 f i serverbrowser_window.obj
 0001:000ab2b0       ?MouseUp@GameServerButton@@UAEXXZ 004ac2b0 f i serverbrowser_window.obj
 0001:000ab340       ?SelectOption@UpdateServerListDropDownMenu@@EAEXH@Z 004ac340 f i serverbrowser_window.obj
 0001:000ab360       ?MouseUp@FiltersButton@@EAEXXZ 004ac360 f i serverbrowser_window.obj
 0001:000ab3e0       ?MouseUp@SortButton@@UAEXXZ 004ac3e0 f i serverbrowser_window.obj
 0001:000ab450       ?Render@SortButton@@UAEXHH_N0@Z 004ac450 f i serverbrowser_window.obj
 0001:000ab700       ??0ServerBrowserWindow@@QAE@XZ 004ac700 f   serverbrowser_window.obj
 0001:000ab810       ??_GServerBrowserWindow@@UAEPAXI@Z 004ac810 f i serverbrowser_window.obj
 0001:000ab810       ??_EServerBrowserWindow@@UAEPAXI@Z 004ac810 f i  CIL library: CIL module
 0001:000ab840       ?ConnectToServer@ServerBrowserWindow@@SA_NPAVDirectory@@PBD@Z 004ac840 f   serverbrowser_window.obj
 0001:000abfc0       ?IsOurServer@ServerBrowserWindow@@SA_NPADH@Z 004acfc0 f   serverbrowser_window.obj
 0001:000ac0c0       ??1ServerBrowserWindow@@UAE@XZ 004ad0c0 f   serverbrowser_window.obj
 0001:000ac120       ?Create@ServerBrowserWindow@@UAEXXZ 004ad120 f   serverbrowser_window.obj
 0001:000ac710       ??0SortButton@@QAE@XZ      004ad710 f i serverbrowser_window.obj
 0001:000ac720       ??0GameServerButton@@QAE@XZ 004ad720 f i serverbrowser_window.obj
 0001:000ac730       ??0UpdateServerListDropDownMenu@@QAE@XZ 004ad730 f i serverbrowser_window.obj
 0001:000ac750       ??0FiltersButton@@QAE@XZ   004ad750 f i serverbrowser_window.obj
 0001:000ac760       ??0RequestServerListButton@@QAE@XZ 004ad760 f i serverbrowser_window.obj
 0001:000ac770       ??0JoinGameButton@@QAE@XZ  004ad770 f i serverbrowser_window.obj
 0001:000ac780       ??_ESortButton@@UAEPAXI@Z  004ad780 f i  CIL library: CIL module
 0001:000ac780       ??_GSortButton@@UAEPAXI@Z  004ad780 f i serverbrowser_window.obj
 0001:000ac7b0       ??_GGameServerButton@@UAEPAXI@Z 004ad7b0 f i serverbrowser_window.obj
 0001:000ac7b0       ??_EGameServerButton@@UAEPAXI@Z 004ad7b0 f i  CIL library: CIL module
 0001:000ac7e0       ??_EUpdateServerListDropDownMenu@@UAEPAXI@Z 004ad7e0 f i  CIL library: CIL module
 0001:000ac7e0       ??_GUpdateServerListDropDownMenu@@UAEPAXI@Z 004ad7e0 f i serverbrowser_window.obj
 0001:000ac810       ??_EFiltersButton@@UAEPAXI@Z 004ad810 f i  CIL library: CIL module
 0001:000ac810       ??_GFiltersButton@@UAEPAXI@Z 004ad810 f i serverbrowser_window.obj
 0001:000ac840       ??_ERequestServerListButton@@UAEPAXI@Z 004ad840 f i  CIL library: CIL module
 0001:000ac840       ??_GRequestServerListButton@@UAEPAXI@Z 004ad840 f i serverbrowser_window.obj
 0001:000ac870       ??_EJoinGameButton@@UAEPAXI@Z 004ad870 f i  CIL library: CIL module
 0001:000ac870       ??_GJoinGameButton@@UAEPAXI@Z 004ad870 f i serverbrowser_window.obj
 0001:000ac8a0       ??1SortButton@@UAE@XZ      004ad8a0 f i serverbrowser_window.obj
 0001:000ac8b0       ??1GameServerButton@@UAE@XZ 004ad8b0 f i serverbrowser_window.obj
 0001:000ac8c0       ??1UpdateServerListDropDownMenu@@UAE@XZ 004ad8c0 f i serverbrowser_window.obj
 0001:000ac8d0       ??1FiltersButton@@UAE@XZ   004ad8d0 f i serverbrowser_window.obj
 0001:000ac8e0       ??1RequestServerListButton@@UAE@XZ 004ad8e0 f i serverbrowser_window.obj
 0001:000ac8f0       ??1JoinGameButton@@UAE@XZ  004ad8f0 f i serverbrowser_window.obj
 0001:000ac900       ?FilterServerList@ServerBrowserWindow@@QAEXXZ 004ad900 f   serverbrowser_window.obj
 0001:000acd20       ?IsServerInList@ServerBrowserWindow@@QAE_NPADH@Z 004add20 f   serverbrowser_window.obj
 0001:000acdd0       ?ScoreServer_Default@ServerBrowserWindow@@IAEHPAVDirectory@@@Z 004addd0 f   serverbrowser_window.obj
 0001:000acfa0       ?ScoreServer_Name@ServerBrowserWindow@@IAEHPAVDirectory@@@Z 004adfa0 f   serverbrowser_window.obj
 0001:000ad000       ?ScoreServer_Game@ServerBrowserWindow@@IAEHPAVDirectory@@@Z 004ae000 f   serverbrowser_window.obj
 0001:000ad010       ?ScoreServer_Mods@ServerBrowserWindow@@IAEHPAVDirectory@@@Z 004ae010 f   serverbrowser_window.obj
 0001:000ad090       ?ScoreServer_Time@ServerBrowserWindow@@IAEHPAVDirectory@@@Z 004ae090 f   serverbrowser_window.obj
 0001:000ad0c0       ?ScoreServer_Spectators@ServerBrowserWindow@@IAEHPAVDirectory@@@Z 004ae0c0 f   serverbrowser_window.obj
 0001:000ad0d0       ?ScoreServer_Teams@ServerBrowserWindow@@IAEHPAVDirectory@@@Z 004ae0d0 f   serverbrowser_window.obj
 0001:000ad100       ?SortServerList@ServerBrowserWindow@@QAEXXZ 004ae100 f   serverbrowser_window.obj
 0001:000ad2e0       ??_G?$LList@PAVDirectory@@@@QAEPAXI@Z 004ae2e0 f i serverbrowser_window.obj
 0001:000ad300       ?Update@ServerBrowserWindow@@UAEXXZ 004ae300 f   serverbrowser_window.obj
 0001:000ad680       ?Render@ServerBrowserWindow@@UAEX_N@Z 004ae680 f   serverbrowser_window.obj
 0001:000ad690       ?ClearServerList@ServerBrowserWindow@@QAEXXZ 004ae690 f   serverbrowser_window.obj
 0001:000ad6d0       ?MouseUp@ConnectToManualIPButton@@EAEXXZ 004ae6d0 f i serverbrowser_window.obj
 0001:000ad790       ??0EnterIPManuallyWindow@@QAE@XZ 004ae790 f   serverbrowser_window.obj
 0001:000ad830       ??_GEnterIPManuallyWindow@@UAEPAXI@Z 004ae830 f i serverbrowser_window.obj
 0001:000ad830       ??_EEnterIPManuallyWindow@@UAEPAXI@Z 004ae830 f i  CIL library: CIL module
 0001:000ad860       ??1EnterIPManuallyWindow@@UAE@XZ 004ae860 f i serverbrowser_window.obj
 0001:000ad870       ?Create@EnterIPManuallyWindow@@UAEXXZ 004ae870 f   serverbrowser_window.obj
 0001:000ad990       ??0ConnectToManualIPButton@@QAE@XZ 004ae990 f i serverbrowser_window.obj
 0001:000ad9a0       ??_EConnectToManualIPButton@@UAEPAXI@Z 004ae9a0 f i  CIL library: CIL module
 0001:000ad9a0       ??_GConnectToManualIPButton@@UAEPAXI@Z 004ae9a0 f i serverbrowser_window.obj
 0001:000ad9d0       ??1ConnectToManualIPButton@@UAE@XZ 004ae9d0 f i serverbrowser_window.obj
 0001:000ad9e0       ?Render@EnterIPManuallyWindow@@UAEX_N@Z 004ae9e0 f   serverbrowser_window.obj
 0001:000adad0       ?MouseUp@UpdateServerListCheckBox@@EAEXXZ 004aead0 f i serverbrowser_window.obj
 0001:000adaf0       ??0FiltersWindow@@QAE@XZ   004aeaf0 f   serverbrowser_window.obj
 0001:000adb20       ??_GFiltersWindow@@UAEPAXI@Z 004aeb20 f i serverbrowser_window.obj
 0001:000adb20       ??_EFiltersWindow@@UAEPAXI@Z 004aeb20 f i  CIL library: CIL module
 0001:000adb50       ??1FiltersWindow@@UAE@XZ   004aeb50 f i serverbrowser_window.obj
 0001:000adb60       ?Create@FiltersWindow@@UAEXXZ 004aeb60 f   serverbrowser_window.obj
 0001:000add60       ??0UpdateServerListCheckBox@@QAE@XZ 004aed60 f i serverbrowser_window.obj
 0001:000add70       ??_GUpdateServerListCheckBox@@UAEPAXI@Z 004aed70 f i serverbrowser_window.obj
 0001:000add70       ??_EUpdateServerListCheckBox@@UAEPAXI@Z 004aed70 f i  CIL library: CIL module
 0001:000adda0       ??1CheckBox@@UAE@XZ        004aeda0 f i serverbrowser_window.obj
 0001:000addb0       ??1UpdateServerListCheckBox@@UAE@XZ 004aedb0 f i serverbrowser_window.obj
 0001:000addc0       ?Render@FiltersWindow@@UAEX_N@Z 004aedc0 f   serverbrowser_window.obj
 0001:000adf20       ?MouseUp@ConnectToDetailsButton@@EAEXXZ 004aef20 f i serverdetails_window.obj
 0001:000adf50       ??0ServerDetailsWindow@@QAE@PADH@Z 004aef50 f   serverdetails_window.obj
 0001:000ae090       ??_GServerDetailsWindow@@UAEPAXI@Z 004af090 f i serverdetails_window.obj
 0001:000ae090       ??_EServerDetailsWindow@@UAEPAXI@Z 004af090 f i  CIL library: CIL module
 0001:000ae0c0       ??1ServerDetailsWindow@@UAE@XZ 004af0c0 f i serverdetails_window.obj
 0001:000ae0d0       ?Create@ServerDetailsWindow@@UAEXXZ 004af0d0 f   serverdetails_window.obj
 0001:000ae1e0       ??0ConnectToDetailsButton@@QAE@XZ 004af1e0 f i serverdetails_window.obj
 0001:000ae1f0       ??_EConnectToDetailsButton@@UAEPAXI@Z 004af1f0 f i  CIL library: CIL module
 0001:000ae1f0       ??_GConnectToDetailsButton@@UAEPAXI@Z 004af1f0 f i serverdetails_window.obj
 0001:000ae220       ??1ConnectToDetailsButton@@UAE@XZ 004af220 f i serverdetails_window.obj
 0001:000ae230       ?Render@ServerDetailsWindow@@UAEX_N@Z 004af230 f   serverdetails_window.obj
 0001:000aebd0       ?Update@ServerDetailsWindow@@UAEXXZ 004afbd0 f   serverdetails_window.obj
 0001:000aece0       ??0SidePanel@@QAE@PAD@Z    004afce0 f   side_panel.obj
 0001:000aed60       ??_GSidePanel@@UAEPAXI@Z   004afd60 f i side_panel.obj
 0001:000aed60       ??_ESidePanel@@UAEPAXI@Z   004afd60 f i  CIL library: CIL module
 0001:000aed90       ??1SidePanel@@UAE@XZ       004afd90 f   side_panel.obj
 0001:000aef10       ?Create@SidePanel@@UAEXXZ  004aff10 f   side_panel.obj
 0001:000af0a0       ?Render@SidePanel@@UAEX_N@Z 004b00a0 f   side_panel.obj
 0001:000af720       ?ChangeMode@SidePanel@@QAEXH@Z 004b0720 f   side_panel.obj
 0001:000afc70       ??0UnitPlacementButton@@QAE@H@Z 004b0c70 f   side_panel.obj
 0001:000afca0       ??_GUnitPlacementButton@@UAEPAXI@Z 004b0ca0 f i side_panel.obj
 0001:000afca0       ??_EUnitPlacementButton@@UAEPAXI@Z 004b0ca0 f i  CIL library: CIL module
 0001:000afcd0       ??1UnitPlacementButton@@UAE@XZ 004b0cd0 f i side_panel.obj
 0001:000afce0       ?Render@UnitPlacementButton@@UAEXHH_N0@Z 004b0ce0 f   side_panel.obj
 0001:000b01a0       ?MouseUp@UnitPlacementButton@@UAEXXZ 004b11a0 f   side_panel.obj
 0001:000b0330       ??0PanelModeButton@@QAE@H_N@Z 004b1330 f   side_panel.obj
 0001:000b0360       ??_GPanelModeButton@@UAEPAXI@Z 004b1360 f i side_panel.obj
 0001:000b0360       ??_EPanelModeButton@@UAEPAXI@Z 004b1360 f i  CIL library: CIL module
 0001:000b0390       ??1PanelModeButton@@UAE@XZ 004b1390 f i side_panel.obj
 0001:000b03a0       ?Render@PanelModeButton@@UAEXHH_N0@Z 004b13a0 f   side_panel.obj
 0001:000b0660       ?MouseUp@PanelModeButton@@UAEXXZ 004b1660 f   side_panel.obj
 0001:000b06f0       ??0AddToFleetButton@@QAE@H@Z 004b16f0 f   side_panel.obj
 0001:000b0720       ??_GAddToFleetButton@@UAEPAXI@Z 004b1720 f i side_panel.obj
 0001:000b0720       ??_EAddToFleetButton@@UAEPAXI@Z 004b1720 f i  CIL library: CIL module
 0001:000b0750       ??1AddToFleetButton@@UAE@XZ 004b1750 f i side_panel.obj
 0001:000b0760       ?Render@AddToFleetButton@@UAEXHH_N0@Z 004b1760 f   side_panel.obj
 0001:000b0c20       ?MouseUp@AddToFleetButton@@UAEXXZ 004b1c20 f   side_panel.obj
 0001:000b0e80       ??0RemoveUnitButton@@QAE@XZ 004b1e80 f   side_panel.obj
 0001:000b0ea0       ??_ERemoveUnitButton@@UAEPAXI@Z 004b1ea0 f i  CIL library: CIL module
 0001:000b0ea0       ??_GRemoveUnitButton@@UAEPAXI@Z 004b1ea0 f i side_panel.obj
 0001:000b0ed0       ??1RemoveUnitButton@@UAE@XZ 004b1ed0 f i side_panel.obj
 0001:000b0ee0       ?Render@RemoveUnitButton@@UAEXHH_N0@Z 004b1ee0 f   side_panel.obj
 0001:000b0f00       ?MouseUp@RemoveUnitButton@@UAEXXZ 004b1f00 f   side_panel.obj
 0001:000b10f0       ??0NewFleetButton@@QAE@XZ  004b20f0 f   side_panel.obj
 0001:000b1110       ??_GNewFleetButton@@UAEPAXI@Z 004b2110 f i side_panel.obj
 0001:000b1110       ??_ENewFleetButton@@UAEPAXI@Z 004b2110 f i  CIL library: CIL module
 0001:000b1140       ??1NewFleetButton@@UAE@XZ  004b2140 f i side_panel.obj
 0001:000b1150       ?Render@NewFleetButton@@UAEXHH_N0@Z 004b2150 f   side_panel.obj
 0001:000b13b0       ?MouseUp@NewFleetButton@@UAEXXZ 004b23b0 f   side_panel.obj
 0001:000b13f0       ??0FleetPlacementButton@@QAE@XZ 004b23f0 f   side_panel.obj
 0001:000b1410       ??_EFleetPlacementButton@@UAEPAXI@Z 004b2410 f i  CIL library: CIL module
 0001:000b1410       ??_GFleetPlacementButton@@UAEPAXI@Z 004b2410 f i side_panel.obj
 0001:000b1440       ??1FleetPlacementButton@@UAE@XZ 004b2440 f i side_panel.obj
 0001:000b1450       ?Render@FleetPlacementButton@@UAEXHH_N0@Z 004b2450 f   side_panel.obj
 0001:000b15d0       ?MouseUp@FleetPlacementButton@@UAEXXZ 004b25d0 f   side_panel.obj
 0001:000b1710       ??0ColourEditorWindow@@QAE@PAD0_NHH@Z 004b2710 f i styleeditor_window.obj
 0001:000b1830       ?Create@ColourEditorWindow@@UAEXXZ 004b2830 f i styleeditor_window.obj
 0001:000b1950       ?Render@ColourEditorWindow@@UAEX_N@Z 004b2950 f i styleeditor_window.obj
 0001:000b1bc0       ??_EColourEditorWindow@@UAEPAXI@Z 004b2bc0 f i  CIL library: CIL module
 0001:000b1bc0       ??_GColourEditorWindow@@UAEPAXI@Z 004b2bc0 f i styleeditor_window.obj
 0001:000b1bf0       ??0ApplyStyleButton@@QAE@XZ 004b2bf0 f i styleeditor_window.obj
 0001:000b1c00       ??1ApplyStyleButton@@UAE@XZ 004b2c00 f i styleeditor_window.obj
 0001:000b1c10       ??1ColourEditorWindow@@UAE@XZ 004b2c10 f i styleeditor_window.obj
 0001:000b1c30       ??_EApplyStyleButton@@UAEPAXI@Z 004b2c30 f i  CIL library: CIL module
 0001:000b1c30       ??_GApplyStyleButton@@UAEPAXI@Z 004b2c30 f i styleeditor_window.obj
 0001:000b1c60       ?MouseUp@ApplyStyleButton@@EAEXXZ 004b2c60 f   styleeditor_window.obj
 0001:000b1cd0       ?Render@ColourButton@@UAEXHH_N0@Z 004b2cd0 f i styleeditor_window.obj
 0001:000b1e00       ?MouseUp@ColourButton@@UAEXXZ 004b2e00 f i styleeditor_window.obj
 0001:000b1f50       ??0ListStylesDialog@@QAE@XZ 004b2f50 f i styleeditor_window.obj
 0001:000b1f70       ?FileSelected@ListStylesDialog@@UAEXPAD@Z 004b2f70 f i styleeditor_window.obj
 0001:000b2100       ??_EListStylesDialog@@UAEPAXI@Z 004b3100 f i  CIL library: CIL module
 0001:000b2100       ??_GListStylesDialog@@UAEPAXI@Z 004b3100 f i styleeditor_window.obj
 0001:000b2130       ??1ListStylesDialog@@UAE@XZ 004b3130 f i styleeditor_window.obj
 0001:000b2140       ?MouseUp@LoadStylesButton@@EAEXXZ 004b3140 f i styleeditor_window.obj
 0001:000b21f0       ?MouseUp@SaveStylesButton@@EAEXXZ 004b31f0 f i styleeditor_window.obj
 0001:000b2350       ??0FontFileDialog@@QAE@PAD@Z 004b3350 f i styleeditor_window.obj
 0001:000b2370       ?FileSelected@FontFileDialog@@UAEXPAD@Z 004b3370 f i styleeditor_window.obj
 0001:000b2420       ??_EFontFileDialog@@UAEPAXI@Z 004b3420 f i  CIL library: CIL module
 0001:000b2420       ??_GFontFileDialog@@UAEPAXI@Z 004b3420 f i styleeditor_window.obj
 0001:000b2450       ??1FontFileDialog@@UAE@XZ  004b3450 f i styleeditor_window.obj
 0001:000b2460       ?Render@FontFilenameButton@@UAEXHH_N0@Z 004b3460 f i styleeditor_window.obj
 0001:000b2530       ?MouseUp@FontFilenameButton@@UAEXXZ 004b3530 f i styleeditor_window.obj
 0001:000b2630       ?Render@StyleCheckBox@@UAEXHH_N0@Z 004b3630 f i styleeditor_window.obj
 0001:000b26d0       ?MouseUp@StyleCheckBox@@UAEXXZ 004b36d0 f i styleeditor_window.obj
 0001:000b2730       ?Render@StyleInputField@@UAEXHH_N0@Z 004b3730 f i styleeditor_window.obj
 0001:000b27a0       ?MouseUp@StyleDefaultButton@@EAEXXZ 004b37a0 f i styleeditor_window.obj
 0001:000b2810       ??0StyleEditorWindow@@QAE@XZ 004b3810 f   styleeditor_window.obj
 0001:000b28e0       ??_EStyleEditorWindow@@UAEPAXI@Z 004b38e0 f i  CIL library: CIL module
 0001:000b28e0       ??_GStyleEditorWindow@@UAEPAXI@Z 004b38e0 f i styleeditor_window.obj
 0001:000b2910       ??1StyleEditorWindow@@UAE@XZ 004b3910 f   styleeditor_window.obj
 0001:000b2930       ??_GScrollBar@@QAEPAXI@Z   004b3930 f i styleeditor_window.obj
 0001:000b2940       ?Create@StyleEditorWindow@@UAEXXZ 004b3940 f   styleeditor_window.obj
 0001:000b2f80       ??0ColourButton@@QAE@XZ    004b3f80 f i styleeditor_window.obj
 0001:000b2f90       ??0StyleCheckBox@@QAE@XZ   004b3f90 f i styleeditor_window.obj
 0001:000b2fa0       ??0StyleInputField@@QAE@XZ 004b3fa0 f i styleeditor_window.obj
 0001:000b2fb0       ??0FontFilenameButton@@QAE@XZ 004b3fb0 f i styleeditor_window.obj
 0001:000b2fc0       ??0StyleDefaultButton@@QAE@XZ 004b3fc0 f i styleeditor_window.obj
 0001:000b2fd0       ??0LoadStylesButton@@QAE@XZ 004b3fd0 f i styleeditor_window.obj
 0001:000b2fe0       ??0SaveStylesButton@@QAE@XZ 004b3fe0 f i styleeditor_window.obj
 0001:000b2ff0       ??_EColourButton@@UAEPAXI@Z 004b3ff0 f i  CIL library: CIL module
 0001:000b2ff0       ??_GColourButton@@UAEPAXI@Z 004b3ff0 f i styleeditor_window.obj
 0001:000b3020       ??_EStyleCheckBox@@UAEPAXI@Z 004b4020 f i  CIL library: CIL module
 0001:000b3020       ??_GStyleCheckBox@@UAEPAXI@Z 004b4020 f i styleeditor_window.obj
 0001:000b3050       ??_EStyleInputField@@UAEPAXI@Z 004b4050 f i  CIL library: CIL module
 0001:000b3050       ??_GStyleInputField@@UAEPAXI@Z 004b4050 f i styleeditor_window.obj
 0001:000b3080       ??_GFontFilenameButton@@UAEPAXI@Z 004b4080 f i styleeditor_window.obj
 0001:000b3080       ??_EFontFilenameButton@@UAEPAXI@Z 004b4080 f i  CIL library: CIL module
 0001:000b30b0       ??_GStyleDefaultButton@@UAEPAXI@Z 004b40b0 f i styleeditor_window.obj
 0001:000b30b0       ??_EStyleDefaultButton@@UAEPAXI@Z 004b40b0 f i  CIL library: CIL module
 0001:000b30e0       ??_GLoadStylesButton@@UAEPAXI@Z 004b40e0 f i styleeditor_window.obj
 0001:000b30e0       ??_ELoadStylesButton@@UAEPAXI@Z 004b40e0 f i  CIL library: CIL module
 0001:000b3110       ??_ESaveStylesButton@@UAEPAXI@Z 004b4110 f i  CIL library: CIL module
 0001:000b3110       ??_GSaveStylesButton@@UAEPAXI@Z 004b4110 f i styleeditor_window.obj
 0001:000b3140       ??1ColourButton@@UAE@XZ    004b4140 f i styleeditor_window.obj
 0001:000b3150       ??1StyleCheckBox@@UAE@XZ   004b4150 f i styleeditor_window.obj
 0001:000b3160       ??1StyleInputField@@UAE@XZ 004b4160 f i styleeditor_window.obj
 0001:000b3170       ??1FontFilenameButton@@UAE@XZ 004b4170 f i styleeditor_window.obj
 0001:000b3180       ??1StyleDefaultButton@@UAE@XZ 004b4180 f i styleeditor_window.obj
 0001:000b3190       ??1LoadStylesButton@@UAE@XZ 004b4190 f i styleeditor_window.obj
 0001:000b31a0       ??1SaveStylesButton@@UAE@XZ 004b41a0 f i styleeditor_window.obj
 0001:000b31b0       ?Render@StyleEditorWindow@@UAEX_N@Z 004b41b0 f   styleeditor_window.obj
 0001:000b3660       ??0ToolbarButton@@QAE@XZ   004b4660 f   toolbar.obj
 0001:000b3680       ??_EToolbarButton@@UAEPAXI@Z 004b4680 f i  CIL library: CIL module
 0001:000b3680       ??_GToolbarButton@@UAEPAXI@Z 004b4680 f i toolbar.obj
 0001:000b36b0       ??1ToolbarButton@@UAE@XZ   004b46b0 f i toolbar.obj
 0001:000b36c0       ?Render@ToolbarButton@@UAEXHH_N0@Z 004b46c0 f   toolbar.obj
 0001:000b3b50       ?Render@PlacementWindowButton@@EAEXHH_N0@Z 004b4b50 f i toolbar.obj
 0001:000b3c10       ?MouseUp@PlacementWindowButton@@EAEXXZ 004b4c10 f i toolbar.obj
 0001:000b3cb0       ??0ChatWindowButton@@QAE@XZ 004b4cb0 f i toolbar.obj
 0001:000b3d20       ?Render@ChatWindowButton@@UAEXHH_N0@Z 004b4d20 f i toolbar.obj
 0001:000b3e70       ?MouseUp@ChatWindowButton@@UAEXXZ 004b4e70 f i toolbar.obj
 0001:000b3f10       ?CountVisableMessages@ChatWindowButton@@QAEHXZ 004b4f10 f i toolbar.obj
 0001:000b3f80       ??_GChatWindowButton@@UAEPAXI@Z 004b4f80 f i toolbar.obj
 0001:000b3f80       ??_EChatWindowButton@@UAEPAXI@Z 004b4f80 f i  CIL library: CIL module
 0001:000b3fb0       ??1ChatWindowButton@@UAE@XZ 004b4fb0 f i toolbar.obj
 0001:000b3fc0       ?Render@ShowAlliancesButton@@EAEXHH_N0@Z 004b4fc0 f i toolbar.obj
 0001:000b4000       ?MouseUp@ShowAlliancesButton@@EAEXXZ 004b5000 f i toolbar.obj
 0001:000b40a0       ?Render@ScoresWindowButton@@EAEXHH_N0@Z 004b50a0 f i toolbar.obj
 0001:000b40e0       ?MouseUp@ScoresWindowButton@@EAEXXZ 004b50e0 f i toolbar.obj
 0001:000b4180       ?Render@InfoWindowButton@@EAEXHH_N0@Z 004b5180 f i toolbar.obj
 0001:000b41c0       ?MouseUp@InfoWindowButton@@EAEXXZ 004b51c0 f i toolbar.obj
 0001:000b4260       ??0ToggleBoolButton@@QAE@XZ 004b5260 f i toolbar.obj
 0001:000b4280       ?Render@ToggleBoolButton@@UAEXHH_N0@Z 004b5280 f i toolbar.obj
 0001:000b4380       ?MouseUp@ToggleBoolButton@@UAEXXZ 004b5380 f i toolbar.obj
 0001:000b43c0       ??_EToggleBoolButton@@UAEPAXI@Z 004b53c0 f i  CIL library: CIL module
 0001:000b43c0       ??_GToggleBoolButton@@UAEPAXI@Z 004b53c0 f i toolbar.obj
 0001:000b43f0       ??1ToggleBoolButton@@UAE@XZ 004b53f0 f i toolbar.obj
 0001:000b4400       ??0WhiteBoardButton@@QAE@XZ 004b5400 f i toolbar.obj
 0001:000b4430       ?Render@WhiteBoardButton@@UAEXHH_N0@Z 004b5430 f i toolbar.obj
 0001:000b44b0       ?MouseUp@WhiteBoardButton@@UAEXXZ 004b54b0 f i toolbar.obj
 0001:000b4610       ??_GWhiteBoardButton@@UAEPAXI@Z 004b5610 f i toolbar.obj
 0001:000b4610       ??_EWhiteBoardButton@@UAEPAXI@Z 004b5610 f i  CIL library: CIL module
 0001:000b4640       ??1WhiteBoardButton@@UAE@XZ 004b5640 f i toolbar.obj
 0001:000b4650       ??0Toolbar@@QAE@XZ         004b5650 f   toolbar.obj
 0001:000b4760       ??_GToolbar@@UAEPAXI@Z     004b5760 f i toolbar.obj
 0001:000b4760       ??_EToolbar@@UAEPAXI@Z     004b5760 f i  CIL library: CIL module
 0001:000b4790       ??1Toolbar@@UAE@XZ         004b5790 f   toolbar.obj
 0001:000b47f0       ?Create@Toolbar@@UAEXXZ    004b57f0 f   toolbar.obj
 0001:000b5150       ??0PlacementWindowButton@@QAE@XZ 004b6150 f i toolbar.obj
 0001:000b5160       ??0ShowAlliancesButton@@QAE@XZ 004b6160 f i toolbar.obj
 0001:000b5170       ??0ScoresWindowButton@@QAE@XZ 004b6170 f i toolbar.obj
 0001:000b5180       ??0InfoWindowButton@@QAE@XZ 004b6180 f i toolbar.obj
 0001:000b5190       ??_GPlacementWindowButton@@UAEPAXI@Z 004b6190 f i toolbar.obj
 0001:000b5190       ??_EPlacementWindowButton@@UAEPAXI@Z 004b6190 f i  CIL library: CIL module
 0001:000b51c0       ??_GShowAlliancesButton@@UAEPAXI@Z 004b61c0 f i toolbar.obj
 0001:000b51c0       ??_EShowAlliancesButton@@UAEPAXI@Z 004b61c0 f i  CIL library: CIL module
 0001:000b51f0       ??_GScoresWindowButton@@UAEPAXI@Z 004b61f0 f i toolbar.obj
 0001:000b51f0       ??_EScoresWindowButton@@UAEPAXI@Z 004b61f0 f i  CIL library: CIL module
 0001:000b5220       ??_GInfoWindowButton@@UAEPAXI@Z 004b6220 f i toolbar.obj
 0001:000b5220       ??_EInfoWindowButton@@UAEPAXI@Z 004b6220 f i  CIL library: CIL module
 0001:000b5250       ??1PlacementWindowButton@@UAE@XZ 004b6250 f i toolbar.obj
 0001:000b5260       ??1ShowAlliancesButton@@UAE@XZ 004b6260 f i toolbar.obj
 0001:000b5270       ??1ScoresWindowButton@@UAE@XZ 004b6270 f i toolbar.obj
 0001:000b5280       ??1InfoWindowButton@@UAE@XZ 004b6280 f i toolbar.obj
 0001:000b5290       ?Render@Toolbar@@UAEX_N@Z  004b6290 f   toolbar.obj
 0001:000b52b0       ?Render@TutorialNextButton@@EAEXHH_N0@Z 004b62b0 f i tutorial_window.obj
 0001:000b52f0       ?MouseUp@TutorialNextButton@@EAEXXZ 004b62f0 f i tutorial_window.obj
 0001:000b5310       ?Render@TutorialRestartButton@@EAEXHH_N0@Z 004b6310 f i tutorial_window.obj
 0001:000b5350       ?MouseUp@TutorialRestartButton@@EAEXXZ 004b6350 f i tutorial_window.obj
 0001:000b5370       ??0TutorialWindow@@QAE@XZ  004b6370 f   tutorial_window.obj
 0001:000b5420       ??_GTutorialWindow@@UAEPAXI@Z 004b6420 f i tutorial_window.obj
 0001:000b5420       ??_ETutorialWindow@@UAEPAXI@Z 004b6420 f i  CIL library: CIL module
 0001:000b5450       ??1TutorialWindow@@UAE@XZ  004b6450 f i tutorial_window.obj
 0001:000b5460       ?Create@TutorialWindow@@UAEXXZ 004b6460 f   tutorial_window.obj
 0001:000b5520       ??0TutorialRestartButton@@QAE@XZ 004b6520 f i tutorial_window.obj
 0001:000b5530       ??0TutorialNextButton@@QAE@XZ 004b6530 f i tutorial_window.obj
 0001:000b5540       ??_ETutorialRestartButton@@UAEPAXI@Z 004b6540 f i  CIL library: CIL module
 0001:000b5540       ??_GTutorialRestartButton@@UAEPAXI@Z 004b6540 f i tutorial_window.obj
 0001:000b5570       ??_GTutorialNextButton@@UAEPAXI@Z 004b6570 f i tutorial_window.obj
 0001:000b5570       ??_ETutorialNextButton@@UAEPAXI@Z 004b6570 f i  CIL library: CIL module
 0001:000b55a0       ??1TutorialRestartButton@@UAE@XZ 004b65a0 f i tutorial_window.obj
 0001:000b55b0       ??1TutorialNextButton@@UAE@XZ 004b65b0 f i tutorial_window.obj
 0001:000b55c0       ?Render@TutorialWindow@@UAEX_N@Z 004b65c0 f   tutorial_window.obj
 0001:000b5e30       ?MouseUp@LevelChangeButton@@UAEXXZ 004b6e30 f i tutorial_window.obj
 0001:000b5e50       ??0TutorialChapterWindow@@QAE@XZ 004b6e50 f   tutorial_window.obj
 0001:000b5e80       ??_ETutorialChapterWindow@@UAEPAXI@Z 004b6e80 f i  CIL library: CIL module
 0001:000b5e80       ??_GTutorialChapterWindow@@UAEPAXI@Z 004b6e80 f i tutorial_window.obj
 0001:000b5eb0       ??1TutorialChapterWindow@@UAE@XZ 004b6eb0 f i tutorial_window.obj
 0001:000b5ec0       ?Create@TutorialChapterWindow@@UAEXXZ 004b6ec0 f   tutorial_window.obj
 0001:000b6000       ??0LevelChangeButton@@QAE@XZ 004b7000 f i tutorial_window.obj
 0001:000b6010       ??_ELevelChangeButton@@UAEPAXI@Z 004b7010 f i  CIL library: CIL module
 0001:000b6010       ??_GLevelChangeButton@@UAEPAXI@Z 004b7010 f i tutorial_window.obj
 0001:000b6040       ??1LevelChangeButton@@UAE@XZ 004b7040 f i tutorial_window.obj
 0001:000b6050       ?Render@PlanningButton@@EAEXHH_N0@Z 004b7050 f i whiteboard_panel.obj
 0001:000b6090       ?MouseUp@PlanningButton@@EAEXXZ 004b7090 f i whiteboard_panel.obj
 0001:000b60c0       ?MouseUp@EraseAllButton@@EAEXXZ 004b70c0 f i whiteboard_panel.obj
 0001:000b60f0       ?Render@ToggleShowAllWhiteBoardsButton@@EAEXHH_N0@Z 004b70f0 f i whiteboard_panel.obj
 0001:000b6130       ?MouseUp@ToggleShowAllWhiteBoardsButton@@EAEXXZ 004b7130 f i whiteboard_panel.obj
 0001:000b6150       ??0WhiteBoardPanel@@QAE@MM@Z 004b7150 f   whiteboard_panel.obj
 0001:000b61f0       ??_GWhiteBoardPanel@@UAEPAXI@Z 004b71f0 f i whiteboard_panel.obj
 0001:000b61f0       ??_EWhiteBoardPanel@@UAEPAXI@Z 004b71f0 f i  CIL library: CIL module
 0001:000b6220       ??1WhiteBoardPanel@@UAE@XZ 004b7220 f   whiteboard_panel.obj
 0001:000b6280       ?Create@WhiteBoardPanel@@UAEXXZ 004b7280 f   whiteboard_panel.obj
 0001:000b64b0       ??0PlanningButton@@QAE@XZ  004b74b0 f i whiteboard_panel.obj
 0001:000b64c0       ??0EraseAllButton@@QAE@XZ  004b74c0 f i whiteboard_panel.obj
 0001:000b64d0       ??0ToggleShowAllWhiteBoardsButton@@QAE@XZ 004b74d0 f i whiteboard_panel.obj
 0001:000b64e0       ??_EPlanningButton@@UAEPAXI@Z 004b74e0 f i  CIL library: CIL module
 0001:000b64e0       ??_GPlanningButton@@UAEPAXI@Z 004b74e0 f i whiteboard_panel.obj
 0001:000b6510       ??_EEraseAllButton@@UAEPAXI@Z 004b7510 f i  CIL library: CIL module
 0001:000b6510       ??_GEraseAllButton@@UAEPAXI@Z 004b7510 f i whiteboard_panel.obj
 0001:000b6540       ??_EToggleShowAllWhiteBoardsButton@@UAEPAXI@Z 004b7540 f i  CIL library: CIL module
 0001:000b6540       ??_GToggleShowAllWhiteBoardsButton@@UAEPAXI@Z 004b7540 f i whiteboard_panel.obj
 0001:000b6570       ??1PlanningButton@@UAE@XZ  004b7570 f i whiteboard_panel.obj
 0001:000b6580       ??1EraseAllButton@@UAE@XZ  004b7580 f i whiteboard_panel.obj
 0001:000b6590       ??1ToggleShowAllWhiteBoardsButton@@UAE@XZ 004b7590 f i whiteboard_panel.obj
 0001:000b65a0       ?Render@WhiteBoardPanel@@UAEX_N@Z 004b75a0 f   whiteboard_panel.obj
 0001:000b65c0       ??0WorldObjectWindow@@QAE@PAD@Z 004b75c0 f   worldobject_window.obj
 0001:000b65e0       ??_GWorldObjectWindow@@UAEPAXI@Z 004b75e0 f i worldobject_window.obj
 0001:000b65e0       ??_EWorldObjectWindow@@UAEPAXI@Z 004b75e0 f i  CIL library: CIL module
 0001:000b6610       ??1WorldObjectWindow@@UAE@XZ 004b7610 f i worldobject_window.obj
 0001:000b6620       ?Render@WorldObjectWindow@@UAEX_N@Z 004b7620 f   worldobject_window.obj
 0001:000b6670       ?Render@TimeScaleButton@@UAEXHH_N0@Z 004b7670 f i worldstatus_window.obj
 0001:000b6ee0       ?MouseUp@TimeScaleButton@@UAEXXZ 004b7ee0 f i worldstatus_window.obj
 0001:000b6f40       ?Render@DefconButton@@UAEXHH_N0@Z 004b7f40 f i worldstatus_window.obj
 0001:000b71f0       ??0WorldStatusWindow@@QAE@PAD@Z 004b81f0 f   worldstatus_window.obj
 0001:000b7250       ??_GWorldStatusWindow@@UAEPAXI@Z 004b8250 f i worldstatus_window.obj
 0001:000b7250       ??_EWorldStatusWindow@@UAEPAXI@Z 004b8250 f i  CIL library: CIL module
 0001:000b7280       ??1WorldStatusWindow@@UAE@XZ 004b8280 f   worldstatus_window.obj
 0001:000b72e0       ?Create@WorldStatusWindow@@UAEXXZ 004b82e0 f   worldstatus_window.obj
 0001:000b7670       ??0DefconButton@@QAE@XZ    004b8670 f i worldstatus_window.obj
 0001:000b7680       ??0TimeScaleButton@@QAE@XZ 004b8680 f i worldstatus_window.obj
 0001:000b76a0       ??_EDefconButton@@UAEPAXI@Z 004b86a0 f i  CIL library: CIL module
 0001:000b76a0       ??_GDefconButton@@UAEPAXI@Z 004b86a0 f i worldstatus_window.obj
 0001:000b76d0       ??_ETimeScaleButton@@UAEPAXI@Z 004b86d0 f i  CIL library: CIL module
 0001:000b76d0       ??_GTimeScaleButton@@UAEPAXI@Z 004b86d0 f i worldstatus_window.obj
 0001:000b7700       ??1DefconButton@@UAE@XZ    004b8700 f i worldstatus_window.obj
 0001:000b7710       ??1TimeScaleButton@@UAE@XZ 004b8710 f i worldstatus_window.obj
 0001:000b7720       ?Render@WorldStatusWindow@@UAEX_N@Z 004b8720 f   worldstatus_window.obj
 0001:000b7b00       ?MouseUp@StatsButton@@EAEXXZ 004b8b00 f i worldstatus_window.obj
 0001:000b7b90       ??0ScoresWindow@@QAE@XZ    004b8b90 f   worldstatus_window.obj
 0001:000b7bd0       ??_GScoresWindow@@UAEPAXI@Z 004b8bd0 f i worldstatus_window.obj
 0001:000b7bd0       ??_EScoresWindow@@UAEPAXI@Z 004b8bd0 f i  CIL library: CIL module
 0001:000b7c00       ??1ScoresWindow@@UAE@XZ    004b8c00 f   worldstatus_window.obj
 0001:000b7c60       ?Create@ScoresWindow@@UAEXXZ 004b8c60 f   worldstatus_window.obj
 0001:000b7cc0       ??0StatsButton@@QAE@XZ     004b8cc0 f i worldstatus_window.obj
 0001:000b7cd0       ??_GStatsButton@@UAEPAXI@Z 004b8cd0 f i worldstatus_window.obj
 0001:000b7cd0       ??_EStatsButton@@UAEPAXI@Z 004b8cd0 f i  CIL library: CIL module
 0001:000b7d00       ??1StatsButton@@UAE@XZ     004b8d00 f i worldstatus_window.obj
 0001:000b7d10       ?Render@ScoresWindow@@UAEX_N@Z 004b8d10 f   worldstatus_window.obj
 0001:000b8660       ??0StatsWindow@@QAE@XZ     004b9660 f   worldstatus_window.obj
 0001:000b86e0       ??_GStatsWindow@@UAEPAXI@Z 004b96e0 f i worldstatus_window.obj
 0001:000b86e0       ??_EStatsWindow@@UAEPAXI@Z 004b96e0 f i  CIL library: CIL module
 0001:000b8710       ??1StatsWindow@@UAE@XZ     004b9710 f i worldstatus_window.obj
 0001:000b8720       ?Create@StatsWindow@@UAEXXZ 004b9720 f   worldstatus_window.obj
 0001:000b8790       ?Render@StatsWindow@@UAEX_N@Z 004b9790 f   worldstatus_window.obj
 0001:000b9310       ??0CheckBox@@QAE@XZ        004ba310 f   checkbox.obj
 0001:000b9330       ??_ECheckBox@@UAEPAXI@Z    004ba330 f i  CIL library: CIL module
 0001:000b9330       ??_GCheckBox@@UAEPAXI@Z    004ba330 f i checkbox.obj
 0001:000b9360       ?RegisterBool@CheckBox@@QAEXPA_N@Z 004ba360 f   checkbox.obj
 0001:000b9370       ?Render@CheckBox@@UAEXHH_N0@Z 004ba370 f   checkbox.obj
 0001:000b9650       ?MouseUp@CheckBox@@UAEXXZ  004ba650 f   checkbox.obj
 0001:000b9670       ??0InterfaceWindow@@QAE@PAD0_N@Z 004ba670 f   core.obj
 0001:000b96a0       ??_GInterfaceWindow@@UAEPAXI@Z 004ba6a0 f i core.obj
 0001:000b96a0       ??_EInterfaceWindow@@UAEPAXI@Z 004ba6a0 f i  CIL library: CIL module
 0001:000b96d0       ?Create@InterfaceWindow@@UAEXXZ 004ba6d0 f   core.obj
 0001:000b9730       ?CreateValueControl@InterfaceWindow@@QAEXPADHHHHHPAXMMMPAVInterfaceButton@@0_N3@Z 004ba730 f   core.obj
 0001:000b9960       ?RemoveValueControl@InterfaceWindow@@QAEXPAD@Z 004ba960 f   core.obj
 0001:000b99d0       ?Render@InterfaceWindow@@UAEX_N@Z 004ba9d0 f   core.obj
 0001:000b9f70       ?Centralise@InterfaceWindow@@QAEXXZ 004baf70 f   core.obj
 0001:000b9fb0       ?RenderWindowShadow@InterfaceWindow@@SAXMMMMMM@Z 004bafb0 f   core.obj
 0001:000ba0c0       ?Render@InterfaceButton@@UAEXHH_N0@Z 004bb0c0 f   core.obj
 0001:000ba4f0       ??0CloseButton@@QAE@XZ     004bb4f0 f   core.obj
 0001:000ba500       ??_GCloseButton@@UAEPAXI@Z 004bb500 f i core.obj
 0001:000ba500       ??_ECloseButton@@UAEPAXI@Z 004bb500 f i  CIL library: CIL module
 0001:000ba530       ??1CloseButton@@UAE@XZ     004bb530 f i core.obj
 0001:000ba540       ?Render@CloseButton@@UAEXHH_N0@Z 004bb540 f   core.obj
 0001:000ba550       ?MouseUp@CloseButton@@UAEXXZ 004bb550 f   core.obj
 0001:000ba560       ??0TextButton@@QAE@XZ      004bb560 f   core.obj
 0001:000ba5c0       ??_GTextButton@@UAEPAXI@Z  004bb5c0 f i core.obj
 0001:000ba5c0       ??_ETextButton@@UAEPAXI@Z  004bb5c0 f i  CIL library: CIL module
 0001:000ba5f0       ??1TextButton@@UAE@XZ      004bb5f0 f   core.obj
 0001:000ba620       ?Render@TextButton@@UAEXHH_N0@Z 004bb620 f   core.obj
 0001:000ba730       ?SetRenderLanguage@TextButton@@QAEXPBD@Z 004bb730 f   core.obj
 0001:000ba770       ?MouseUp@TextInputButton@@UAEXXZ 004bb770 f   core.obj
 0001:000ba780       ?Keypress@TextInputButton@@UAEXH_N00E@Z 004bb780 f   core.obj
 0001:000ba850       ?Render@InvertedBox@@UAEXHH_N0@Z 004bb850 f   core.obj
 0001:000ba9d0       ??0DropDownOptionData@@QAE@PBDH_N0@Z 004bb9d0 f   drop_down_menu.obj
 0001:000baa10       ??1DropDownOptionData@@QAE@XZ 004bba10 f   drop_down_menu.obj
 0001:000baa30       ??0DropDownWindow@@QAE@PAD0_N0@Z 004bba30 f   drop_down_menu.obj
 0001:000baa70       ??_EDropDownWindow@@UAEPAXI@Z 004bba70 f i  CIL library: CIL module
 0001:000baa70       ??_GDropDownWindow@@UAEPAXI@Z 004bba70 f i drop_down_menu.obj
 0001:000baaa0       ??1DropDownWindow@@UAE@XZ  004bbaa0 f   drop_down_menu.obj
 0001:000baac0       ?Update@DropDownWindow@@UAEXXZ 004bbac0 f   drop_down_menu.obj
 0001:000baae0       ?CreateDropDownWindow@DropDownWindow@@SAPAV1@PAD0_N0@Z 004bbae0 f   drop_down_menu.obj
 0001:000bab80       ?RemoveDropDownWindow@DropDownWindow@@SAXXZ 004bbb80 f   drop_down_menu.obj
 0001:000baba0       ??0DropDownMenu@@QAE@_N@Z  004bbba0 f   drop_down_menu.obj
 0001:000babf0       ??_EDropDownMenu@@UAEPAXI@Z 004bbbf0 f i  CIL library: CIL module
 0001:000babf0       ??_GDropDownMenu@@UAEPAXI@Z 004bbbf0 f i drop_down_menu.obj
 0001:000bac20       ??1DropDownMenu@@UAE@XZ    004bbc20 f   drop_down_menu.obj
 0001:000baca0       ?Empty@DropDownMenu@@QAEXXZ 004bbca0 f   drop_down_menu.obj
 0001:000bacd0       ?SetProperties@DropDownMenu@@UAEXPADHHHH00_N1@Z 004bbcd0 f   drop_down_menu.obj
 0001:000bad70       ?AddOption@DropDownMenu@@QAEXPBDH_N0@Z 004bbd70 f   drop_down_menu.obj
 0001:000bae30       ?SelectOption@DropDownMenu@@UAEXH@Z 004bbe30 f   drop_down_menu.obj
 0001:000baed0       ?SelectOption2@DropDownMenu@@QAE_NPBD@Z 004bbed0 f   drop_down_menu.obj
 0001:000baf60       ?GetSelectionValue@DropDownMenu@@QAEHXZ 004bbf60 f   drop_down_menu.obj
 0001:000baf90       ?GetSelectionName@DropDownMenu@@QAEPBDXZ 004bbf90 f   drop_down_menu.obj
 0001:000bafc0       ?RegisterInt@DropDownMenu@@QAEXPAH@Z 004bbfc0 f   drop_down_menu.obj
 0001:000bafe0       ?FindValue@DropDownMenu@@QAEHH@Z 004bbfe0 f   drop_down_menu.obj
 0001:000bb030       ?Render@DropDownMenu@@UAEXHH_N0@Z 004bc030 f   drop_down_menu.obj
 0001:000bb0e0       ?CreateMenu@DropDownMenu@@QAEXXZ 004bc0e0 f   drop_down_menu.obj
 0001:000bb340       ?RemoveMenu@DropDownMenu@@QAEXXZ 004bc340 f   drop_down_menu.obj
 0001:000bb350       ?MouseUp@DropDownMenu@@UAEXXZ 004bc350 f   drop_down_menu.obj
 0001:000bb370       ?IsMenuVisible@DropDownMenu@@QAE_NXZ 004bc370 f   drop_down_menu.obj
 0001:000bb390       ??0DropDownMenuOption@@QAE@XZ 004bc390 f   drop_down_menu.obj
 0001:000bb3c0       ??_EDropDownMenuOption@@UAEPAXI@Z 004bc3c0 f i  CIL library: CIL module
 0001:000bb3c0       ??_GDropDownMenuOption@@UAEPAXI@Z 004bc3c0 f i drop_down_menu.obj
 0001:000bb3f0       ??1DropDownMenuOption@@UAE@XZ 004bc3f0 f   drop_down_menu.obj
 0001:000bb420       ?SetParentMenu@DropDownMenuOption@@QAEXPAVEclWindow@@PAVDropDownMenu@@H@Z 004bc420 f   drop_down_menu.obj
 0001:000bb4a0       ?Render@DropDownMenuOption@@UAEXHH_N0@Z 004bc4a0 f   drop_down_menu.obj
 0001:000bb580       ?MouseUp@DropDownMenuOption@@UAEXXZ 004bc580 f   drop_down_menu.obj
 0001:000bb5d0       ??0?$LList@PAVDropDownOptionData@@@@QAE@XZ 004bc5d0 f i drop_down_menu.obj
 0001:000bb5f0       ??1?$LList@PAVDropDownOptionData@@@@QAE@XZ 004bc5f0 f i drop_down_menu.obj
 0001:000bb600       ?PutDataAtEnd@?$LList@PAVDropDownOptionData@@@@QAEXABQAVDropDownOptionData@@@Z 004bc600 f i drop_down_menu.obj
 0001:000bb660       ?PutDataAtIndex@?$LList@PAVDropDownOptionData@@@@QAEXABQAVDropDownOptionData@@H@Z 004bc660 f i drop_down_menu.obj
 0001:000bb6e0       ?Size@?$LList@PAVDropDownOptionData@@@@QBEHXZ 004bc6e0 f i drop_down_menu.obj
 0001:000bb6f0       ?EmptyAndDelete@?$LList@PAVDropDownOptionData@@@@QAEXXZ 004bc6f0 f i drop_down_menu.obj
 0001:000bb740       ??A?$LList@PAVDropDownOptionData@@@@QAEPAVDropDownOptionData@@H@Z 004bc740 f i drop_down_menu.obj
 0001:000bb750       ??_GDropDownOptionData@@QAEPAXI@Z 004bc750 f i drop_down_menu.obj
 0001:000bb770       ?PutDataAtStart@?$LList@PAVDropDownOptionData@@@@QAEXABQAVDropDownOptionData@@@Z 004bc770 f i drop_down_menu.obj
 0001:000bb7e0       ?GetData@?$LList@PAVDropDownOptionData@@@@QBEPAVDropDownOptionData@@H@Z 004bc7e0 f i drop_down_menu.obj
 0001:000bb7f0       ?RemoveData@?$LList@PAVDropDownOptionData@@@@QAEXH@Z 004bc7f0 f i drop_down_menu.obj
 0001:000bb870       ?Empty@?$LList@PAVDropDownOptionData@@@@QAEXXZ 004bc870 f i drop_down_menu.obj
 0001:000bb8b0       ??0?$LListItem@PAVDropDownOptionData@@@@QAE@XZ 004bc8b0 f i drop_down_menu.obj
 0001:000bb8c0       ??_G?$LListItem@PAVDropDownOptionData@@@@QAEPAXI@Z 004bc8c0 f i drop_down_menu.obj
 0001:000bb8d0       ?GetItem@?$LList@PAVDropDownOptionData@@@@IBEPAV?$LListItem@PAVDropDownOptionData@@@@H@Z 004bc8d0 f i drop_down_menu.obj
 0001:000bb960       ??1?$LListItem@PAVDropDownOptionData@@@@QAE@XZ 004bc960 f i drop_down_menu.obj
 0001:000bb970       ?ValidIndex@?$LList@PAVDropDownOptionData@@@@QBE_NH@Z 004bc970 f i drop_down_menu.obj
 0001:000bb990       ?MouseUp@FileOKButton@@UAEXXZ 004bc990 f i filedialog.obj
 0001:000bba10       ??0FileButton@@QAE@H@Z     004bca10 f i filedialog.obj
 0001:000bba40       ?MouseUp@FileButton@@UAEXXZ 004bca40 f i filedialog.obj
 0001:000bbad0       ?Render@FileButton@@UAEXHH_N0@Z 004bcad0 f i filedialog.obj
 0001:000bbc70       ??_GFileButton@@UAEPAXI@Z  004bcc70 f i filedialog.obj
 0001:000bbc70       ??_EFileButton@@UAEPAXI@Z  004bcc70 f i  CIL library: CIL module
 0001:000bbca0       ??1FileButton@@UAE@XZ      004bcca0 f i filedialog.obj
 0001:000bbcb0       ?MouseUp@FileCancelButton@@EAEXXZ 004bccb0 f i filedialog.obj
 0001:000bbcc0       ?Render@SelectedButton@@EAEXHH_N0@Z 004bccc0 f i filedialog.obj
 0001:000bbd50       ??0FileDialog@@QAE@PAD@Z   004bcd50 f   filedialog.obj
 0001:000bbe00       ??_GFileDialog@@UAEPAXI@Z  004bce00 f i filedialog.obj
 0001:000bbe00       ??_EFileDialog@@UAEPAXI@Z  004bce00 f i  CIL library: CIL module
 0001:000bbe30       ?Init@FileDialog@@QAEXPAD00_N@Z 004bce30 f   filedialog.obj
 0001:000bbe70       ??1FileDialog@@UAE@XZ      004bce70 f   filedialog.obj
 0001:000bbf00       ?Create@FileDialog@@UAEXXZ 004bcf00 f   filedialog.obj
 0001:000bc120       ??0SelectedButton@@QAE@XZ  004bd120 f i filedialog.obj
 0001:000bc130       ??0FileCancelButton@@QAE@XZ 004bd130 f i filedialog.obj
 0001:000bc140       ??0FileOKButton@@QAE@XZ    004bd140 f i filedialog.obj
 0001:000bc150       ??_ESelectedButton@@UAEPAXI@Z 004bd150 f i  CIL library: CIL module
 0001:000bc150       ??_GSelectedButton@@UAEPAXI@Z 004bd150 f i filedialog.obj
 0001:000bc180       ??_EFileCancelButton@@UAEPAXI@Z 004bd180 f i  CIL library: CIL module
 0001:000bc180       ??_GFileCancelButton@@UAEPAXI@Z 004bd180 f i filedialog.obj
 0001:000bc1b0       ??_GFileOKButton@@UAEPAXI@Z 004bd1b0 f i filedialog.obj
 0001:000bc1b0       ??_EFileOKButton@@UAEPAXI@Z 004bd1b0 f i  CIL library: CIL module
 0001:000bc1e0       ??1SelectedButton@@UAE@XZ  004bd1e0 f i filedialog.obj
 0001:000bc1f0       ??1FileCancelButton@@UAE@XZ 004bd1f0 f i filedialog.obj
 0001:000bc200       ??1FileOKButton@@UAE@XZ    004bd200 f i filedialog.obj
 0001:000bc210       ?Remove@FileDialog@@UAEXXZ 004bd210 f   filedialog.obj
 0001:000bc230       ?SetDirectory@FileDialog@@QAEXPBD@Z 004bd230 f   filedialog.obj
 0001:000bc260       ?SetFilter@FileDialog@@QAEXPBD@Z 004bd260 f   filedialog.obj
 0001:000bc290       ?SetParent@FileDialog@@QAEXPBD@Z 004bd290 f   filedialog.obj
 0001:000bc2c0       ?FileSelected@FileDialog@@UAEXPAD@Z 004bd2c0 f   filedialog.obj
 0001:000bc2d0       ?RefreshFileList@FileDialog@@QAEXXZ 004bd2d0 f   filedialog.obj
 0001:000bc330       ?FileClicked@FileDialog@@QAEXH@Z 004bd330 f   filedialog.obj
 0001:000bc3a0       ?IsFileSelected@FileDialog@@QAEHH@Z 004bd3a0 f   filedialog.obj
 0001:000bc3f0       ??0InputField@@QAE@XZ      004bd3f0 f   inputfield.obj
 0001:000bc450       ??_GInputField@@UAEPAXI@Z  004bd450 f i inputfield.obj
 0001:000bc450       ??_EInputField@@UAEPAXI@Z  004bd450 f i  CIL library: CIL module
 0001:000bc480       ?SetCallback@InputField@@QAEXPAVInterfaceButton@@@Z 004bd480 f   inputfield.obj
 0001:000bc490       ?Render@InputField@@UAEXHH_N0@Z 004bd490 f   inputfield.obj
 0001:000bc8f0       ?MouseUp@InputField@@UAEXXZ 004bd8f0 f   inputfield.obj
 0001:000bc900       ?Keypress@InputField@@UAEXH_N00E@Z 004bd900 f   inputfield.obj
 0001:000bcb90       ?RegisterChar@InputField@@QAEXPAE@Z 004bdb90 f   inputfield.obj
 0001:000bcbb0       ?RegisterInt@InputField@@QAEXPAH@Z 004bdbb0 f   inputfield.obj
 0001:000bcbd0       ?RegisterFloat@InputField@@QAEXPAM@Z 004bdbd0 f   inputfield.obj
 0001:000bcbf0       ?RegisterString@InputField@@QAEXPAD@Z 004bdbf0 f   inputfield.obj
 0001:000bcc40       ?SetInputNoExtendedCharacters@InputField@@QAEX_N@Z 004bdc40 f   inputfield.obj
 0001:000bcc70       ?ClampToBounds@InputField@@QAEXXZ 004bdc70 f   inputfield.obj
 0001:000bce00       ?Refresh@InputField@@QAEXXZ 004bde00 f   inputfield.obj
 0001:000bceb0       ??0InputScroller@@QAE@XZ   004bdeb0 f   inputfield.obj
 0001:000bcee0       ??_GInputScroller@@UAEPAXI@Z 004bdee0 f i inputfield.obj
 0001:000bcee0       ??_EInputScroller@@UAEPAXI@Z 004bdee0 f i  CIL library: CIL module
 0001:000bcf10       ??1InputScroller@@UAE@XZ   004bdf10 f i inputfield.obj
 0001:000bcf20       ?Render@InputScroller@@UAEXHH_N0@Z 004bdf20 f   inputfield.obj
 0001:000bd220       ?MouseDown@InputScroller@@UAEXXZ 004be220 f   inputfield.obj
 0001:000bd250       ?MouseUp@InputScroller@@UAEXXZ 004be250 f   inputfield.obj
 0001:000bd260       ??0MessageDialog@@QAE@PAD0_N01@Z 004be260 f   message_dialog.obj
 0001:000bd300       ??_GMessageDialog@@UAEPAXI@Z 004be300 f i message_dialog.obj
 0001:000bd300       ??_EMessageDialog@@UAEPAXI@Z 004be300 f i  CIL library: CIL module
 0001:000bd330       ??1MessageDialog@@UAE@XZ   004be330 f   message_dialog.obj
 0001:000bd390       ?Create@MessageDialog@@UAEXXZ 004be390 f   message_dialog.obj
 0001:000bd450       ?Render@MessageDialog@@UAEX_N@Z 004be450 f   message_dialog.obj
 0001:000bd500       ?GetLines@MessageDialog@@IAEXXZ 004be500 f   message_dialog.obj
 0001:000bd850       ??0ScrollBar@@QAE@PAVEclWindow@@@Z 004be850 f   scrollbar.obj
 0001:000bd8e0       ??1ScrollBar@@QAE@XZ       004be8e0 f   scrollbar.obj
 0001:000bd8f0       ?Create@ScrollBar@@QAEXPADHHHHHHH@Z 004be8f0 f   scrollbar.obj
 0001:000bdad0       ?Remove@ScrollBar@@QAEXXZ  004bead0 f   scrollbar.obj
 0001:000bdb70       ?SetNumRows@ScrollBar@@QAEXH@Z 004beb70 f   scrollbar.obj
 0001:000bdb90       ?SetCurrentValue@ScrollBar@@QAEXH@Z 004beb90 f   scrollbar.obj
 0001:000bdbd0       ?SetWinSize@ScrollBar@@QAEXH@Z 004bebd0 f   scrollbar.obj
 0001:000bdbf0       ?ChangeCurrentValue@ScrollBar@@QAEXH@Z 004bebf0 f   scrollbar.obj
 0001:000bdc10       ??0ScrollBarButton@@QAE@PAVScrollBar@@@Z 004bec10 f   scrollbar.obj
 0001:000bdc40       ??_GScrollBarButton@@UAEPAXI@Z 004bec40 f i scrollbar.obj
 0001:000bdc40       ??_EScrollBarButton@@UAEPAXI@Z 004bec40 f i  CIL library: CIL module
 0001:000bdc70       ??1ScrollBarButton@@UAE@XZ 004bec70 f i scrollbar.obj
 0001:000bdc80       ?Render@ScrollBarButton@@UAEXHH_N0@Z 004bec80 f   scrollbar.obj
 0001:000be030       ?MouseUp@ScrollBarButton@@UAEXXZ 004bf030 f   scrollbar.obj
 0001:000be150       ?MouseDown@ScrollBarButton@@UAEXXZ 004bf150 f   scrollbar.obj
 0001:000be2d0       ??0ScrollChangeButton@@QAE@PAVScrollBar@@H@Z 004bf2d0 f   scrollbar.obj
 0001:000be300       ??_GScrollChangeButton@@UAEPAXI@Z 004bf300 f i scrollbar.obj
 0001:000be300       ??_EScrollChangeButton@@UAEPAXI@Z 004bf300 f i  CIL library: CIL module
 0001:000be330       ??1ScrollChangeButton@@UAE@XZ 004bf330 f i scrollbar.obj
 0001:000be340       ?MouseDown@ScrollChangeButton@@UAEXXZ 004bf340 f   scrollbar.obj
 0001:000be370       ?Render@ScrollChangeButton@@UAEXHH_N0@Z 004bf370 f   scrollbar.obj
 0001:000be4c0       ??0ObjectTypeMenu@@QAE@XZ  004bf4c0 f i soundeditor_window.obj
 0001:000be4e0       ?SelectOption@ObjectTypeMenu@@UAEXH@Z 004bf4e0 f i soundeditor_window.obj
 0001:000be5c0       ??_GObjectTypeMenu@@UAEPAXI@Z 004bf5c0 f i soundeditor_window.obj
 0001:000be5c0       ??_EObjectTypeMenu@@UAEPAXI@Z 004bf5c0 f i  CIL library: CIL module
 0001:000be5f0       ??1ObjectTypeMenu@@UAE@XZ  004bf5f0 f i soundeditor_window.obj
 0001:000be600       ?SelectOption@NewSoundEventMenu@@UAEXH@Z 004bf600 f i soundeditor_window.obj
 0001:000be7c0       ??0SoundEventButton@@QAE@XZ 004bf7c0 f i soundeditor_window.obj
 0001:000be7d0       ?Render@SoundEventButton@@UAEXHH_N0@Z 004bf7d0 f i soundeditor_window.obj
 0001:000be860       ?MouseUp@SoundEventButton@@UAEXXZ 004bf860 f i soundeditor_window.obj
 0001:000be880       ??_GSoundEventButton@@UAEPAXI@Z 004bf880 f i soundeditor_window.obj
 0001:000be880       ??_ESoundEventButton@@UAEPAXI@Z 004bf880 f i  CIL library: CIL module
 0001:000be8b0       ??1SoundEventButton@@UAE@XZ 004bf8b0 f i soundeditor_window.obj
 0001:000be8c0       ?Render@SoundPositionButton@@UAEXHH_N0@Z 004bf8c0 f i soundeditor_window.obj
 0001:000beb10       ?MouseUp@PlayButton@@UAEXXZ 004bfb10 f i soundeditor_window.obj
 0001:000beb20       ?MouseUp@PlayRepeatButton@@UAEXXZ 004bfb20 f i soundeditor_window.obj
 0001:000beb30       ?MouseUp@StopButton@@UAEXXZ 004bfb30 f i soundeditor_window.obj
 0001:000beb40       ?MouseUp@SaveAllButton@@UAEXXZ 004bfb40 f i soundeditor_window.obj
 0001:000beb50       ?MouseUp@DeleteEventButton@@UAEXXZ 004bfb50 f i soundeditor_window.obj
 0001:000bebd0       ??0SoundSelector@@QAE@PAD@Z 004bfbd0 f i soundeditor_window.obj
 0001:000bebf0       ?FileSelected@SoundSelector@@UAEXPAD@Z 004bfbf0 f i soundeditor_window.obj
 0001:000bec30       ??_GSoundSelector@@UAEPAXI@Z 004bfc30 f i soundeditor_window.obj
 0001:000bec30       ??_ESoundSelector@@UAEPAXI@Z 004bfc30 f i  CIL library: CIL module
 0001:000bec60       ??1SoundSelector@@UAE@XZ   004bfc60 f i soundeditor_window.obj
 0001:000bec70       ?Render@SoundSelectorButton@@UAEXHH_N0@Z 004bfc70 f i soundeditor_window.obj
 0001:000bed00       ?MouseUp@SoundSelectorButton@@UAEXXZ 004bfd00 f i soundeditor_window.obj
 0001:000bee50       ?Render@DspEffectButton@@UAEXHH_N0@Z 004bfe50 f i soundeditor_window.obj
 0001:000bef60       ?MouseUp@DspEffectButton@@UAEXXZ 004bff60 f i soundeditor_window.obj
 0001:000bf140       ?Render@DeleteDspEffectButton@@UAEXHH_N0@Z 004c0140 f i soundeditor_window.obj
 0001:000bf190       ?MouseUp@DeleteDspEffectButton@@UAEXXZ 004c0190 f i soundeditor_window.obj
 0001:000bf200       ?MouseUp@PurgeSoundsButton@@UAEXXZ 004c0200 f i soundeditor_window.obj
 0001:000bf290       ?ConvertVolume@@YAXAAM@Z   004c0290 f   soundeditor_window.obj
 0001:000bf3a0       ??0SoundEditorWindow@@QAE@XZ 004c03a0 f   soundeditor_window.obj
 0001:000bf3e0       ??_GSoundEditorWindow@@UAEPAXI@Z 004c03e0 f i soundeditor_window.obj
 0001:000bf3e0       ??_ESoundEditorWindow@@UAEPAXI@Z 004c03e0 f i  CIL library: CIL module
 0001:000bf410       ??1SoundEditorWindow@@UAE@XZ 004c0410 f   soundeditor_window.obj
 0001:000bf430       ?SelectEvent@SoundEditorWindow@@QAEXH@Z 004c0430 f   soundeditor_window.obj
 0001:000bf470       ?StartPlayback@SoundEditorWindow@@QAEX_N@Z 004c0470 f   soundeditor_window.obj
 0001:000bf550       ?StopPlayback@SoundEditorWindow@@QAEXXZ 004c0550 f   soundeditor_window.obj
 0001:000bf590       ?Update@SoundEditorWindow@@UAEXXZ 004c0590 f   soundeditor_window.obj
 0001:000bf5a0       ?Create@SoundEditorWindow@@UAEXXZ 004c05a0 f   soundeditor_window.obj
 0001:000bf840       ??0NewSoundEventMenu@@QAE@XZ 004c0840 f i soundeditor_window.obj
 0001:000bf860       ??0PurgeSoundsButton@@QAE@XZ 004c0860 f i soundeditor_window.obj
 0001:000bf870       ??0SaveAllButton@@QAE@XZ   004c0870 f i soundeditor_window.obj
 0001:000bf880       ??_ENewSoundEventMenu@@UAEPAXI@Z 004c0880 f i  CIL library: CIL module
 0001:000bf880       ??_GNewSoundEventMenu@@UAEPAXI@Z 004c0880 f i soundeditor_window.obj
 0001:000bf8b0       ??_GPurgeSoundsButton@@UAEPAXI@Z 004c08b0 f i soundeditor_window.obj
 0001:000bf8b0       ??_EPurgeSoundsButton@@UAEPAXI@Z 004c08b0 f i  CIL library: CIL module
 0001:000bf8e0       ??_GSaveAllButton@@UAEPAXI@Z 004c08e0 f i soundeditor_window.obj
 0001:000bf8e0       ??_ESaveAllButton@@UAEPAXI@Z 004c08e0 f i  CIL library: CIL module
 0001:000bf910       ??1NewSoundEventMenu@@UAE@XZ 004c0910 f i soundeditor_window.obj
 0001:000bf920       ??1PurgeSoundsButton@@UAE@XZ 004c0920 f i soundeditor_window.obj
 0001:000bf930       ??1SaveAllButton@@UAE@XZ   004c0930 f i soundeditor_window.obj
 0001:000bf940       ?CreateInstanceEditor@SoundEditorWindow@@QAEXXZ 004c0940 f   soundeditor_window.obj
 0001:000c00b0       ??0SoundPositionButton@@QAE@XZ 004c10b0 f i soundeditor_window.obj
 0001:000c00c0       ??0PlayButton@@QAE@XZ      004c10c0 f i soundeditor_window.obj
 0001:000c00d0       ??0PlayRepeatButton@@QAE@XZ 004c10d0 f i soundeditor_window.obj
 0001:000c00e0       ??0StopButton@@QAE@XZ      004c10e0 f i soundeditor_window.obj
 0001:000c00f0       ??0SoundSelectorButton@@QAE@XZ 004c10f0 f i soundeditor_window.obj
 0001:000c0100       ??0DspEffectButton@@QAE@XZ 004c1100 f i soundeditor_window.obj
 0001:000c0110       ??0DeleteDspEffectButton@@QAE@XZ 004c1110 f i soundeditor_window.obj
 0001:000c0120       ??0DeleteEventButton@@QAE@XZ 004c1120 f i soundeditor_window.obj
 0001:000c0130       ??_GSoundPositionButton@@UAEPAXI@Z 004c1130 f i soundeditor_window.obj
 0001:000c0130       ??_ESoundPositionButton@@UAEPAXI@Z 004c1130 f i  CIL library: CIL module
 0001:000c0160       ??_GPlayButton@@UAEPAXI@Z  004c1160 f i soundeditor_window.obj
 0001:000c0160       ??_EPlayButton@@UAEPAXI@Z  004c1160 f i  CIL library: CIL module
 0001:000c0190       ??_EPlayRepeatButton@@UAEPAXI@Z 004c1190 f i  CIL library: CIL module
 0001:000c0190       ??_GPlayRepeatButton@@UAEPAXI@Z 004c1190 f i soundeditor_window.obj
 0001:000c01c0       ??_EStopButton@@UAEPAXI@Z  004c11c0 f i  CIL library: CIL module
 0001:000c01c0       ??_GStopButton@@UAEPAXI@Z  004c11c0 f i soundeditor_window.obj
 0001:000c01f0       ??_ESoundSelectorButton@@UAEPAXI@Z 004c11f0 f i  CIL library: CIL module
 0001:000c01f0       ??_GSoundSelectorButton@@UAEPAXI@Z 004c11f0 f i soundeditor_window.obj
 0001:000c0220       ??_EDspEffectButton@@UAEPAXI@Z 004c1220 f i  CIL library: CIL module
 0001:000c0220       ??_GDspEffectButton@@UAEPAXI@Z 004c1220 f i soundeditor_window.obj
 0001:000c0250       ??_GDeleteDspEffectButton@@UAEPAXI@Z 004c1250 f i soundeditor_window.obj
 0001:000c0250       ??_EDeleteDspEffectButton@@UAEPAXI@Z 004c1250 f i  CIL library: CIL module
 0001:000c0280       ??_EDeleteEventButton@@UAEPAXI@Z 004c1280 f i  CIL library: CIL module
 0001:000c0280       ??_GDeleteEventButton@@UAEPAXI@Z 004c1280 f i soundeditor_window.obj
 0001:000c02b0       ??1SoundPositionButton@@UAE@XZ 004c12b0 f i soundeditor_window.obj
 0001:000c02c0       ??1PlayButton@@UAE@XZ      004c12c0 f i soundeditor_window.obj
 0001:000c02d0       ??1PlayRepeatButton@@UAE@XZ 004c12d0 f i soundeditor_window.obj
 0001:000c02e0       ??1StopButton@@UAE@XZ      004c12e0 f i soundeditor_window.obj
 0001:000c02f0       ??1SoundSelectorButton@@UAE@XZ 004c12f0 f i soundeditor_window.obj
 0001:000c0300       ??1DspEffectButton@@UAE@XZ 004c1300 f i soundeditor_window.obj
 0001:000c0310       ??1DeleteDspEffectButton@@UAE@XZ 004c1310 f i soundeditor_window.obj
 0001:000c0320       ??1DeleteEventButton@@UAE@XZ 004c1320 f i soundeditor_window.obj
 0001:000c0330       ?RemoveInstanceEditor@SoundEditorWindow@@QAEXXZ 004c1330 f   soundeditor_window.obj
 0001:000c0460       ?Render@SoundEditorWindow@@UAEX_N@Z 004c1460 f   soundeditor_window.obj
 0001:000c0860       ?GetSoundEventBlueprint@SoundEditorWindow@@QAEPAVSoundEventBlueprint@@XZ 004c1860 f   soundeditor_window.obj
 0001:000c0890       ?GetSoundInstanceBlueprint@SoundEditorWindow@@QAEPAVSoundInstanceBlueprint@@XZ 004c1890 f   soundeditor_window.obj
 0001:000c08c0       ?GetSelectionName@SoundEditorWindow@@QAEXPAD@Z 004c18c0 f   soundeditor_window.obj
 0001:000c08f0       ?CreateSoundParameterButton@SoundEditorWindow@@SAXPAVInterfaceWindow@@PADPAVSoundParameter@@HMMPAVInterfaceButton@@HH@Z 004c18f0 f   soundeditor_window.obj
 0001:000c0980       ?RemoveSoundParameterButton@SoundEditorWindow@@SAXPAVInterfaceWindow@@PAD@Z 004c1980 f   soundeditor_window.obj
 0001:000c0990       ?SelectOption@DspEffectTypeMenu@@EAEXH@Z 004c1990 f i soundeditor_window.obj
 0001:000c0c10       ??0DspEffectEditor@@QAE@PAD@Z 004c1c10 f   soundeditor_window.obj
 0001:000c0c40       ??_GDspEffectEditor@@UAEPAXI@Z 004c1c40 f i soundeditor_window.obj
 0001:000c0c40       ??_EDspEffectEditor@@UAEPAXI@Z 004c1c40 f i  CIL library: CIL module
 0001:000c0c70       ??1DspEffectEditor@@UAE@XZ 004c1c70 f i soundeditor_window.obj
 0001:000c0c80       ?Create@DspEffectEditor@@UAEXXZ 004c1c80 f   soundeditor_window.obj
 0001:000c0d60       ??0DspEffectTypeMenu@@QAE@XZ 004c1d60 f i soundeditor_window.obj
 0001:000c0d80       ??_GDspEffectTypeMenu@@UAEPAXI@Z 004c1d80 f i soundeditor_window.obj
 0001:000c0d80       ??_EDspEffectTypeMenu@@UAEPAXI@Z 004c1d80 f i  CIL library: CIL module
 0001:000c0db0       ??1DspEffectTypeMenu@@UAE@XZ 004c1db0 f i soundeditor_window.obj
 0001:000c0dc0       ??0SampleGroupFileDialog@@QAE@PAD@Z 004c1dc0 f i soundeditor_window.obj
 0001:000c0de0       ?FileSelected@SampleGroupFileDialog@@UAEXPAD@Z 004c1de0 f i soundeditor_window.obj
 0001:000c0e70       ??_ESampleGroupFileDialog@@UAEPAXI@Z 004c1e70 f i  CIL library: CIL module
 0001:000c0e70       ??_GSampleGroupFileDialog@@UAEPAXI@Z 004c1e70 f i soundeditor_window.obj
 0001:000c0ea0       ??1SampleGroupFileDialog@@UAE@XZ 004c1ea0 f i soundeditor_window.obj
 0001:000c0eb0       ?Render@SampleGroupSampleDelete@@UAEXHH_N0@Z 004c1eb0 f i soundeditor_window.obj
 0001:000c0f20       ?MouseUp@SampleGroupSampleDelete@@UAEXXZ 004c1f20 f i soundeditor_window.obj
 0001:000c0f80       ?MouseUp@SampleGroupAddSample@@EAEXXZ 004c1f80 f i soundeditor_window.obj
 0001:000c1070       ?SelectOption@SampleGroupSelector@@EAEXH@Z 004c2070 f i soundeditor_window.obj
 0001:000c10c0       ?MouseUp@NewSampleGroupButton@@EAEXXZ 004c20c0 f i soundeditor_window.obj
 0001:000c1100       ?MouseUp@RenameSampleGroupCommit@@EAEXXZ 004c2100 f i soundeditor_window.obj
 0001:000c1130       ??0RenameSampleGroupWindow@@QAE@PAD@Z 004c2130 f   soundeditor_window.obj
 0001:000c1160       ??_GRenameSampleGroupWindow@@UAEPAXI@Z 004c2160 f i soundeditor_window.obj
 0001:000c1160       ??_ERenameSampleGroupWindow@@UAEPAXI@Z 004c2160 f i  CIL library: CIL module
 0001:000c1190       ??1RenameSampleGroupWindow@@UAE@XZ 004c2190 f i soundeditor_window.obj
 0001:000c11a0       ?Create@RenameSampleGroupWindow@@UAEXXZ 004c21a0 f   soundeditor_window.obj
 0001:000c12a0       ??0RenameSampleGroupCommit@@QAE@XZ 004c22a0 f i soundeditor_window.obj
 0001:000c12b0       ??_GRenameSampleGroupCommit@@UAEPAXI@Z 004c22b0 f i soundeditor_window.obj
 0001:000c12b0       ??_ERenameSampleGroupCommit@@UAEPAXI@Z 004c22b0 f i  CIL library: CIL module
 0001:000c12e0       ??1RenameSampleGroupCommit@@UAE@XZ 004c22e0 f i soundeditor_window.obj
 0001:000c12f0       ?MouseUp@RenameSampleGroupButton@@EAEXXZ 004c22f0 f i soundeditor_window.obj
 0001:000c13c0       ??0SampleGroupEditor@@QAE@PAD@Z 004c23c0 f   soundeditor_window.obj
 0001:000c1460       ??_GSampleGroupEditor@@UAEPAXI@Z 004c2460 f i soundeditor_window.obj
 0001:000c1460       ??_ESampleGroupEditor@@UAEPAXI@Z 004c2460 f i  CIL library: CIL module
 0001:000c1490       ??1SampleGroupEditor@@UAE@XZ 004c2490 f i soundeditor_window.obj
 0001:000c14a0       ?SelectSampleGroup@SampleGroupEditor@@QAEXPAD@Z 004c24a0 f   soundeditor_window.obj
 0001:000c14c0       ?Create@SampleGroupEditor@@UAEXXZ 004c24c0 f   soundeditor_window.obj
 0001:000c1750       ??0SampleGroupSelector@@QAE@XZ 004c2750 f i soundeditor_window.obj
 0001:000c1770       ??0NewSampleGroupButton@@QAE@XZ 004c2770 f i soundeditor_window.obj
 0001:000c1780       ??0RenameSampleGroupButton@@QAE@XZ 004c2780 f i soundeditor_window.obj
 0001:000c1790       ??0SampleGroupAddSample@@QAE@XZ 004c2790 f i soundeditor_window.obj
 0001:000c17a0       ??0SampleGroupSampleDelete@@QAE@XZ 004c27a0 f i soundeditor_window.obj
 0001:000c17b0       ??_GSampleGroupSelector@@UAEPAXI@Z 004c27b0 f i soundeditor_window.obj
 0001:000c17b0       ??_ESampleGroupSelector@@UAEPAXI@Z 004c27b0 f i  CIL library: CIL module
 0001:000c17e0       ??_ENewSampleGroupButton@@UAEPAXI@Z 004c27e0 f i  CIL library: CIL module
 0001:000c17e0       ??_GNewSampleGroupButton@@UAEPAXI@Z 004c27e0 f i soundeditor_window.obj
 0001:000c1810       ??_GRenameSampleGroupButton@@UAEPAXI@Z 004c2810 f i soundeditor_window.obj
 0001:000c1810       ??_ERenameSampleGroupButton@@UAEPAXI@Z 004c2810 f i  CIL library: CIL module
 0001:000c1840       ??_ESampleGroupAddSample@@UAEPAXI@Z 004c2840 f i  CIL library: CIL module
 0001:000c1840       ??_GSampleGroupAddSample@@UAEPAXI@Z 004c2840 f i soundeditor_window.obj
 0001:000c1870       ??_ESampleGroupSampleDelete@@UAEPAXI@Z 004c2870 f i  CIL library: CIL module
 0001:000c1870       ??_GSampleGroupSampleDelete@@UAEPAXI@Z 004c2870 f i soundeditor_window.obj
 0001:000c18a0       ??1SampleGroupSelector@@UAE@XZ 004c28a0 f i soundeditor_window.obj
 0001:000c18b0       ??1NewSampleGroupButton@@UAE@XZ 004c28b0 f i soundeditor_window.obj
 0001:000c18c0       ??1RenameSampleGroupButton@@UAE@XZ 004c28c0 f i soundeditor_window.obj
 0001:000c18d0       ??1SampleGroupAddSample@@UAE@XZ 004c28d0 f i soundeditor_window.obj
 0001:000c18e0       ??1SampleGroupSampleDelete@@UAE@XZ 004c28e0 f i soundeditor_window.obj
 0001:000c18f0       ?Remove@SampleGroupEditor@@UAEXXZ 004c28f0 f   soundeditor_window.obj
 0001:000c1910       ?Render@SampleGroupEditor@@UAEX_N@Z 004c2910 f   soundeditor_window.obj
 0001:000c1a40       ?Render@DeleteSoundButton@@UAEXHH_N0@Z 004c2a40 f i soundeditor_window.obj
 0001:000c1a70       ?MouseUp@DeleteSoundButton@@UAEXXZ 004c2a70 f i soundeditor_window.obj
 0001:000c1b50       ?MouseUp@RefreshFileListButton@@EAEXXZ 004c2b50 f i soundeditor_window.obj
 0001:000c1b60       ?MouseUp@DeleteAllButton@@EAEXXZ 004c2b60 f i soundeditor_window.obj
 0001:000c1c50       ??0PurgeSoundsWindow@@QAE@PAD@Z 004c2c50 f   soundeditor_window.obj
 0001:000c1cf0       ??_EPurgeSoundsWindow@@UAEPAXI@Z 004c2cf0 f i  CIL library: CIL module
 0001:000c1cf0       ??_GPurgeSoundsWindow@@UAEPAXI@Z 004c2cf0 f i soundeditor_window.obj
 0001:000c1d20       ??1PurgeSoundsWindow@@UAE@XZ 004c2d20 f i soundeditor_window.obj
 0001:000c1d40       ?Create@PurgeSoundsWindow@@UAEXXZ 004c2d40 f   soundeditor_window.obj
 0001:000c1f00       ??0DeleteSoundButton@@QAE@XZ 004c2f00 f i soundeditor_window.obj
 0001:000c1f10       ??0RefreshFileListButton@@QAE@XZ 004c2f10 f i soundeditor_window.obj
 0001:000c1f20       ??0DeleteAllButton@@QAE@XZ 004c2f20 f i soundeditor_window.obj
 0001:000c1f30       ??_GDeleteSoundButton@@UAEPAXI@Z 004c2f30 f i soundeditor_window.obj
 0001:000c1f30       ??_EDeleteSoundButton@@UAEPAXI@Z 004c2f30 f i  CIL library: CIL module
 0001:000c1f60       ??_GRefreshFileListButton@@UAEPAXI@Z 004c2f60 f i soundeditor_window.obj
 0001:000c1f60       ??_ERefreshFileListButton@@UAEPAXI@Z 004c2f60 f i  CIL library: CIL module
 0001:000c1f90       ??_EDeleteAllButton@@UAEPAXI@Z 004c2f90 f i  CIL library: CIL module
 0001:000c1f90       ??_GDeleteAllButton@@UAEPAXI@Z 004c2f90 f i soundeditor_window.obj
 0001:000c1fc0       ??1DeleteSoundButton@@UAE@XZ 004c2fc0 f i soundeditor_window.obj
 0001:000c1fd0       ??1RefreshFileListButton@@UAE@XZ 004c2fd0 f i soundeditor_window.obj
 0001:000c1fe0       ??1DeleteAllButton@@UAE@XZ 004c2fe0 f i soundeditor_window.obj
 0001:000c1ff0       ?Remove@PurgeSoundsWindow@@UAEXXZ 004c2ff0 f   soundeditor_window.obj
 0001:000c2010       ?Render@PurgeSoundsWindow@@UAEX_N@Z 004c3010 f   soundeditor_window.obj
 0001:000c2130       ?RefreshFileList@PurgeSoundsWindow@@QAEXXZ 004c3130 f   soundeditor_window.obj
 0001:000c21e0       ?Size@?$DArray@PAVDspParameterBlueprint@@@@QBEHXZ 004c31e0 f i soundeditor_window.obj
 0001:000c21f0       ??0SoundParameterGraph@@QAE@XZ 004c31f0 f i soundparameter_window.obj
 0001:000c2210       ??_ESoundParameterGraph@@UAEPAXI@Z 004c3210 f i  CIL library: CIL module
 0001:000c2210       ??_GSoundParameterGraph@@UAEPAXI@Z 004c3210 f i soundparameter_window.obj
 0001:000c2240       ??1SoundParameterGraph@@UAE@XZ 004c3240 f i soundparameter_window.obj
 0001:000c2250       ??0SoundParameterButton@@QAE@XZ 004c3250 f   soundparameter_window.obj
 0001:000c2280       ??_ESoundParameterButton@@UAEPAXI@Z 004c3280 f i  CIL library: CIL module
 0001:000c2280       ??_GSoundParameterButton@@UAEPAXI@Z 004c3280 f i soundparameter_window.obj
 0001:000c22b0       ??1SoundParameterButton@@UAE@XZ 004c32b0 f i soundparameter_window.obj
 0001:000c22c0       ?Render@SoundParameterButton@@UAEXHH_N0@Z 004c32c0 f   soundparameter_window.obj
 0001:000c27c0       ?MouseUp@SoundParameterButton@@UAEXXZ 004c37c0 f   soundparameter_window.obj
 0001:000c2870       ?SetParameter@SoundParameterGraph@@QAEXPAVSoundParameter@@MM@Z 004c3870 f   soundparameter_window.obj
 0001:000c2890       ?GetPosition@SoundParameterGraph@@QAEXMMPAM0@Z 004c3890 f   soundparameter_window.obj
 0001:000c2970       ?GetValues@SoundParameterGraph@@QAEXMMPAM0@Z 004c3970 f   soundparameter_window.obj
 0001:000c2a10       ?RescaleAxis@SoundParameterGraph@@QAEXXZ 004c3a10 f   soundparameter_window.obj
 0001:000c2b70       ?HandleMouseEvents@SoundParameterGraph@@QAEXXZ 004c3b70 f   soundparameter_window.obj
 0001:000c2e00       ?RenderAxis@SoundParameterGraph@@QAEXHH@Z 004c3e00 f   soundparameter_window.obj
 0001:000c32e0       ?RenderValues@SoundParameterGraph@@QAEXHH@Z 004c42e0 f   soundparameter_window.obj
 0001:000c3990       ?RenderOutput@SoundParameterGraph@@QAEXHH@Z 004c4990 f   soundparameter_window.obj
 0001:000c3cf0       ?Render@SoundParameterGraph@@UAEXHH_N0@Z 004c4cf0 f   soundparameter_window.obj
 0001:000c3e30       ?Render@LinkTypeMenu@@EAEXHH_N0@Z 004c4e30 f i soundparameter_window.obj
 0001:000c3e70       ?MouseUp@LinkTypeMenu@@EAEXXZ 004c4e70 f i soundparameter_window.obj
 0001:000c3ea0       ??0SoundParameterEditor@@QAE@PAD@Z 004c4ea0 f   soundparameter_window.obj
 0001:000c3ed0       ??_ESoundParameterEditor@@UAEPAXI@Z 004c4ed0 f i  CIL library: CIL module
 0001:000c3ed0       ??_GSoundParameterEditor@@UAEPAXI@Z 004c4ed0 f i soundparameter_window.obj
 0001:000c3f00       ??1SoundParameterEditor@@UAE@XZ 004c4f00 f i soundparameter_window.obj
 0001:000c3f10       ?Create@SoundParameterEditor@@UAEXXZ 004c4f10 f   soundparameter_window.obj
 0001:000c4200       ??0LinkTypeMenu@@QAE@XZ    004c5200 f i soundparameter_window.obj
 0001:000c4220       ??0UpdateTypeMenu@@QAE@XZ  004c5220 f i soundparameter_window.obj
 0001:000c4240       ??_ELinkTypeMenu@@UAEPAXI@Z 004c5240 f i  CIL library: CIL module
 0001:000c4240       ??_GLinkTypeMenu@@UAEPAXI@Z 004c5240 f i soundparameter_window.obj
 0001:000c4270       ??_EUpdateTypeMenu@@UAEPAXI@Z 004c5270 f i  CIL library: CIL module
 0001:000c4270       ??_GUpdateTypeMenu@@UAEPAXI@Z 004c5270 f i soundparameter_window.obj
 0001:000c42a0       ??1LinkTypeMenu@@UAE@XZ    004c52a0 f i soundparameter_window.obj
 0001:000c42b0       ??1UpdateTypeMenu@@UAE@XZ  004c52b0 f i soundparameter_window.obj
 0001:000c42c0       ?Update@SoundParameterEditor@@UAEXXZ 004c52c0 f   soundparameter_window.obj
 0001:000c42d0       ??0SoundStatsWindow@@QAE@XZ 004c52d0 f   soundstats_window.obj
 0001:000c4380       ??_ESoundStatsWindow@@UAEPAXI@Z 004c5380 f i  CIL library: CIL module
 0001:000c4380       ??_GSoundStatsWindow@@UAEPAXI@Z 004c5380 f i soundstats_window.obj
 0001:000c43b0       ??1SoundStatsWindow@@UAE@XZ 004c53b0 f   soundstats_window.obj
 0001:000c43d0       ?Create@SoundStatsWindow@@UAEXXZ 004c53d0 f   soundstats_window.obj
 0001:000c4490       ?Render@SoundStatsWindow@@UAEX_N@Z 004c5490 f   soundstats_window.obj
 0001:000c4e60       ?SelectOption@ScreenResDropDownMenu@@EAEXH@Z 004c5e60 f i screenoptions_window.obj
 0001:000c4f80       ?Render@FullscreenRequiredMenu@@EAEXHH_N0@Z 004c5f80 f i screenoptions_window.obj
 0001:000c5050       ?MouseUp@FullscreenRequiredMenu@@EAEXXZ 004c6050 f i screenoptions_window.obj
 0001:000c53c0       ?SetWindowed@@YAX_N0AA_N@Z 004c63c0 f   screenoptions_window.obj
 0001:000c5430       ?MouseUp@SetScreenButton@@EAEXXZ 004c6430 f i screenoptions_window.obj
 0001:000c55e0       ?RestartWindowManager@ScreenOptionsWindow@@UAEXXZ 004c65e0 f   screenoptions_window.obj
 0001:000c55f0       ??0ScreenOptionsWindow@@QAE@XZ 004c65f0 f   screenoptions_window.obj
 0001:000c56c0       ??_GScreenOptionsWindow@@UAEPAXI@Z 004c66c0 f i screenoptions_window.obj
 0001:000c56c0       ??_EScreenOptionsWindow@@UAEPAXI@Z 004c66c0 f i  CIL library: CIL module
 0001:000c56f0       ?Create@ScreenOptionsWindow@@UAEXXZ 004c66f0 f   screenoptions_window.obj
 0001:000c5c40       ??0ScreenResDropDownMenu@@QAE@XZ 004c6c40 f i screenoptions_window.obj
 0001:000c5c60       ??0FullscreenRequiredMenu@@QAE@XZ 004c6c60 f i screenoptions_window.obj
 0001:000c5c80       ??0SetScreenButton@@QAE@XZ 004c6c80 f i screenoptions_window.obj
 0001:000c5c90       ??_EScreenResDropDownMenu@@UAEPAXI@Z 004c6c90 f i  CIL library: CIL module
 0001:000c5c90       ??_GScreenResDropDownMenu@@UAEPAXI@Z 004c6c90 f i screenoptions_window.obj
 0001:000c5cc0       ??_GFullscreenRequiredMenu@@UAEPAXI@Z 004c6cc0 f i screenoptions_window.obj
 0001:000c5cc0       ??_EFullscreenRequiredMenu@@UAEPAXI@Z 004c6cc0 f i  CIL library: CIL module
 0001:000c5cf0       ??_ESetScreenButton@@UAEPAXI@Z 004c6cf0 f i  CIL library: CIL module
 0001:000c5cf0       ??_GSetScreenButton@@UAEPAXI@Z 004c6cf0 f i screenoptions_window.obj
 0001:000c5d20       ??1ScreenResDropDownMenu@@UAE@XZ 004c6d20 f i screenoptions_window.obj
 0001:000c5d30       ??1FullscreenRequiredMenu@@UAE@XZ 004c6d30 f i screenoptions_window.obj
 0001:000c5d40       ??1SetScreenButton@@UAE@XZ 004c6d40 f i screenoptions_window.obj
 0001:000c5d50       ?Render@ScreenOptionsWindow@@UAEX_N@Z 004c6d50 f   screenoptions_window.obj
 0001:000c5fa0       ?MouseUp@RestartSoundButton@@UAEXXZ 004c6fa0 f i soundoptions_window.obj
 0001:000c6180       ?Render@HW3DDropDownMenu@@UAEXHH_N0@Z 004c7180 f i soundoptions_window.obj
 0001:000c6220       ?MouseUp@HW3DDropDownMenu@@UAEXXZ 004c7220 f i soundoptions_window.obj
 0001:000c6240       ??0SoundOptionsWindow@@QAE@XZ 004c7240 f   soundoptions_window.obj
 0001:000c6320       ??_ESoundOptionsWindow@@UAEPAXI@Z 004c7320 f i  CIL library: CIL module
 0001:000c6320       ??_GSoundOptionsWindow@@UAEPAXI@Z 004c7320 f i soundoptions_window.obj
 0001:000c6350       ??1SoundOptionsWindow@@UAE@XZ 004c7350 f i soundoptions_window.obj
 0001:000c6360       ?Create@SoundOptionsWindow@@UAEXXZ 004c7360 f   soundoptions_window.obj
 0001:000c67b0       ??0HW3DDropDownMenu@@QAE@XZ 004c77b0 f i soundoptions_window.obj
 0001:000c67d0       ??0RestartSoundButton@@QAE@XZ 004c77d0 f i soundoptions_window.obj
 0001:000c67e0       ??_EHW3DDropDownMenu@@UAEPAXI@Z 004c77e0 f i  CIL library: CIL module
 0001:000c67e0       ??_GHW3DDropDownMenu@@UAEPAXI@Z 004c77e0 f i soundoptions_window.obj
 0001:000c6810       ??_ERestartSoundButton@@UAEPAXI@Z 004c7810 f i  CIL library: CIL module
 0001:000c6810       ??_GRestartSoundButton@@UAEPAXI@Z 004c7810 f i soundoptions_window.obj
 0001:000c6840       ??1HW3DDropDownMenu@@UAE@XZ 004c7840 f i soundoptions_window.obj
 0001:000c6850       ??1RestartSoundButton@@UAE@XZ 004c7850 f i soundoptions_window.obj
 0001:000c6860       ?Render@SoundOptionsWindow@@UAEX_N@Z 004c7860 f   soundoptions_window.obj
 0001:000c6bb0       ?UpdateAdvanceTime@@YAXXZ  004c7bb0 f   defcon.obj
 0001:000c6c30       ?TimeToRender@@YA_NM@Z     004c7c30 f   defcon.obj
 0001:000c6c70       ?DumpWorldToSyncLog@@YAXPAD@Z 004c7c70 f   defcon.obj
 0001:000c6df0       ?DumpSyncLogs@@YAXPAD@Z    004c7df0 f   defcon.obj
 0001:000c6e90       ?TestBedSetupMods@@YAXXZ   004c7e90 f   defcon.obj
 0001:000c6ef0       ?RestartTestBed@@YAXHPAD@Z 004c7ef0 f   defcon.obj
 0001:000c7180       ?ProcessServerLetters@@YA_NPAVDirectory@@@Z 004c8180 f   defcon.obj
 0001:000c7cf0       ?Hash@@YAXAAUhash_context@@N@Z 004c8cf0 f i defcon.obj
 0001:000c7d80       ?Hash@@YAXAAUhash_context@@ABVFixed@@@Z 004c8d80 f i defcon.obj
 0001:000c7da0       ?GenerateSyncValue@@YAEXZ  004c8da0 f   defcon.obj
 0001:000c7e50       ?HandleGameStart@@YAXXZ    004c8e50 f   defcon.obj
 0001:000c7f50       ?DefconMain@@YAXXZ         004c8f50 f   defcon.obj
 0001:000c8310       ??_GApp@@QAEPAXI@Z         004c9310 f i defcon.obj
 0001:000c8330       ?AppMain@@YAXXZ            004c9330 f   defcon.obj
 0001:000c8340       ?AppShutdown@@YAXXZ        004c9340 f   defcon.obj
 0001:000c835e       _WSACleanup@0              004c935e f   wsock32:WSOCK32.dll
 0001:000c8364       _WSAStartup@8              004c9364 f   wsock32:WSOCK32.dll
 0001:000c836a       _gethostname@8             004c936a f   wsock32:WSOCK32.dll
 0001:000c8370       _gethostbyname@4           004c9370 f   wsock32:WSOCK32.dll
 0001:000c8376       _closesocket@4             004c9376 f   wsock32:WSOCK32.dll
 0001:000c837c       _socket@12                 004c937c f   wsock32:WSOCK32.dll
 0001:000c8382       _htons@4                   004c9382 f   wsock32:WSOCK32.dll
 0001:000c8388       _ioctlsocket@12            004c9388 f   wsock32:WSOCK32.dll
 0001:000c838e       _connect@12                004c938e f   wsock32:WSOCK32.dll
 0001:000c8394       _WSAGetLastError@0         004c9394 f   wsock32:WSOCK32.dll
 0001:000c839a       _getsockname@12            004c939a f   wsock32:WSOCK32.dll
 0001:000c83a0       _select@20                 004c93a0 f   wsock32:WSOCK32.dll
 0001:000c83a6       ___WSAFDIsSet@8            004c93a6 f   wsock32:WSOCK32.dll
 0001:000c83ac       _send@16                   004c93ac f   wsock32:WSOCK32.dll
 0001:000c83b2       _shutdown@8                004c93b2 f   wsock32:WSOCK32.dll
 0001:000c83b8       _htonl@4                   004c93b8 f   wsock32:WSOCK32.dll
 0001:000c83be       _bind@12                   004c93be f   wsock32:WSOCK32.dll
 0001:000c83c4       _ntohs@4                   004c93c4 f   wsock32:WSOCK32.dll
 0001:000c83ca       _setsockopt@20             004c93ca f   wsock32:WSOCK32.dll
 0001:000c83d0       _recvfrom@24               004c93d0 f   wsock32:WSOCK32.dll
 0001:000c83d6       _WSASetLastError@4         004c93d6 f   wsock32:WSOCK32.dll
 0001:000c83dc       _inet_ntoa@4               004c93dc f   wsock32:WSOCK32.dll
 0001:000c83e2       _gethostbyaddr@12          004c93e2 f   wsock32:WSOCK32.dll
 0001:000c83e8       _getservbyport@8           004c93e8 f   wsock32:WSOCK32.dll
 0001:000c83ee       _inet_addr@4               004c93ee f   wsock32:WSOCK32.dll
 0001:000c83f4       _getservbyname@8           004c93f4 f   wsock32:WSOCK32.dll
 0001:000c83fa       _sendto@24                 004c93fa f   wsock32:WSOCK32.dll
 0001:000c8400       _glFinish@0                004c9400 f   opengl32:OPENGL32.dll
 0001:000c8406       _glEnable@4                004c9406 f   opengl32:OPENGL32.dll
 0001:000c840c       _glGenTextures@8           004c940c f   opengl32:OPENGL32.dll
 0001:000c8412       _glBindTexture@8           004c9412 f   opengl32:OPENGL32.dll
 0001:000c8418       _glTexParameteri@12        004c9418 f   opengl32:OPENGL32.dll
 0001:000c841e       _glTexImage2D@36           004c941e f   opengl32:OPENGL32.dll
 0001:000c8424       _glDisable@4               004c9424 f   opengl32:OPENGL32.dll
 0001:000c842a       _glIsEnabled@4             004c942a f   opengl32:OPENGL32.dll
 0001:000c8430       _glBegin@4                 004c9430 f   opengl32:OPENGL32.dll
 0001:000c8436       _glTexCoord2f@8            004c9436 f   opengl32:OPENGL32.dll
 0001:000c843c       _glVertex2f@8              004c943c f   opengl32:OPENGL32.dll
 0001:000c8442       _glEnd@0                   004c9442 f   opengl32:OPENGL32.dll
 0001:000c8448       _glDeleteTextures@8        004c9448 f   opengl32:OPENGL32.dll
 0001:000c844e       _glDeleteLists@8           004c944e f   opengl32:OPENGL32.dll
 0001:000c8454       _glGenLists@4              004c9454 f   opengl32:OPENGL32.dll
 0001:000c845a       _glMatrixMode@4            004c945a f   opengl32:OPENGL32.dll
 0001:000c8460       _glLoadIdentity@0          004c9460 f   opengl32:OPENGL32.dll
 0001:000c8466       _glViewport@16             004c9466 f   opengl32:OPENGL32.dll
 0001:000c846c       _glBlendFunc@8             004c946c f   opengl32:OPENGL32.dll
 0001:000c8472       _glHint@8                  004c9472 f   opengl32:OPENGL32.dll
 0001:000c8478       _glClear@4                 004c9478 f   opengl32:OPENGL32.dll
 0001:000c847e       _glDepthMask@4             004c947e f   opengl32:OPENGL32.dll
 0001:000c8484       _glColor4ub@16             004c9484 f   opengl32:OPENGL32.dll
 0001:000c848a       _glGetIntegerv@8           004c948a f   opengl32:OPENGL32.dll
 0001:000c8490       _glLineWidth@4             004c9490 f   opengl32:OPENGL32.dll
 0001:000c8496       _glScissor@16              004c9496 f   opengl32:OPENGL32.dll
 0001:000c849c       _glVertex2fv@4             004c949c f   opengl32:OPENGL32.dll
 0001:000c84a2       _glReadPixels@28           004c94a2 f   opengl32:OPENGL32.dll
 0001:000c84a8       _wglCreateContext@4        004c94a8 f   opengl32:OPENGL32.dll
 0001:000c84ae       _wglMakeCurrent@8          004c94ae f   opengl32:OPENGL32.dll
 0001:000c84b4       _wglDeleteContext@4        004c94b4 f   opengl32:OPENGL32.dll
 0001:000c84ba       _glFogf@8                  004c94ba f   opengl32:OPENGL32.dll
 0001:000c84c0       _glFogfv@8                 004c94c0 f   opengl32:OPENGL32.dll
 0001:000c84c6       _glFogi@8                  004c94c6 f   opengl32:OPENGL32.dll
 0001:000c84cc       _glNewList@8               004c94cc f   opengl32:OPENGL32.dll
 0001:000c84d2       _glColor4f@16              004c94d2 f   opengl32:OPENGL32.dll
 0001:000c84d8       _glVertex3fv@4             004c94d8 f   opengl32:OPENGL32.dll
 0001:000c84de       _glEndList@0               004c94de f   opengl32:OPENGL32.dll
 0001:000c84e4       _glCallList@4              004c94e4 f   opengl32:OPENGL32.dll
 0001:000c84ea       _glColor3ub@12             004c94ea f   opengl32:OPENGL32.dll
 0001:000c84f0       _glVertex2i@8              004c94f0 f   opengl32:OPENGL32.dll
 0001:000c84f6       _glShadeModel@4            004c94f6 f   opengl32:OPENGL32.dll
 0001:000c84fc       _glColor4ubv@4             004c94fc f   opengl32:OPENGL32.dll
 0001:000c8502       _gluBuild2DMipmaps@28      004c9502 f   glu32:GLU32.dll
 0001:000c8508       _gluOrtho2D@32             004c9508 f   glu32:GLU32.dll
 0001:000c850e       _gluPerspective@32         004c950e f   glu32:GLU32.dll
 0001:000c8514       _gluLookAt@72              004c9514 f   glu32:GLU32.dll
 0001:000c851a       _DirectSoundCreate8@12     004c951a f   dsound:DSOUND.dll
 0001:000c8601       _DXGetErrorStringA@4       004c9601 f   dxerr:dxerra.obj
 0001:000d9d95       _DXGetErrorDescriptionA@4  004dad95 f   dxerr:dxerra.obj
 0001:000dc203       ?StringCchCopyA@@YGJPADIPBD@Z 004dd203 f i dxerr:dxerra.obj
 0001:000dc266       ?StringCchPrintfA@@YAJPADIPBDZZ 004dd266 f i dxerr:dxerra.obj
 0001:000dc2bf       ?StringCchLengthA@@YGJPBDIPAI@Z 004dd2bf f i dxerr:dxerra.obj
 0001:000dc2f6       _DXTraceA@20               004dd2f6 f   dxerr:dxerra.obj
 0001:000dc4e4       _OutputDebugStringA@4      004dd4e4 f   kernel32:KERNEL32.dll
 0001:000dc4ea       _IsBadWritePtr@8           004dd4ea f   kernel32:KERNEL32.dll
 0001:000dc4f0       _IsBadReadPtr@8            004dd4f0 f   kernel32:KERNEL32.dll
 0001:000dc4f6       _QueryPerformanceFrequency@4 004dd4f6 f   kernel32:KERNEL32.dll
 0001:000dc4fc       _QueryPerformanceCounter@4 004dd4fc f   kernel32:KERNEL32.dll
 0001:000dc502       _OpenFile@12               004dd502 f   kernel32:KERNEL32.dll
 0001:000dc508       __lclose@4                 004dd508 f   kernel32:KERNEL32.dll
 0001:000dc50e       _DeleteFileA@4             004dd50e f   kernel32:KERNEL32.dll
 0001:000dc514       _InitializeCriticalSection@4 004dd514 f   kernel32:KERNEL32.dll
 0001:000dc51a       _DeleteCriticalSection@4   004dd51a f   kernel32:KERNEL32.dll
 0001:000dc520       _EnterCriticalSection@4    004dd520 f   kernel32:KERNEL32.dll
 0001:000dc526       _LeaveCriticalSection@4    004dd526 f   kernel32:KERNEL32.dll
 0001:000dc52c       _Sleep@4                   004dd52c f   kernel32:KERNEL32.dll
 0001:000dc532       _FreeLibrary@4             004dd532 f   kernel32:KERNEL32.dll
 0001:000dc538       _GetProcAddress@8          004dd538 f   kernel32:KERNEL32.dll
 0001:000dc53e       _LoadLibraryA@4            004dd53e f   kernel32:KERNEL32.dll
 0001:000dc544       _GetSystemDirectoryA@8     004dd544 f   kernel32:KERNEL32.dll
 0001:000dc54a       _FormatMessageA@28         004dd54a f   kernel32:KERNEL32.dll
 0001:000dc550       _CreateThread@24           004dd550 f   kernel32:KERNEL32.dll
 0001:000dc556       _GlobalLock@4              004dd556 f   kernel32:KERNEL32.dll
 0001:000dc55c       _GlobalUnlock@4            004dd55c f   kernel32:KERNEL32.dll
 0001:000dc562       _DebugBreak@0              004dd562 f   kernel32:KERNEL32.dll
 0001:000dc568       _GetWindowLongA@8          004dd568 f   user32:USER32.dll
 0001:000dc56e       _SetWindowLongA@12         004dd56e f   user32:USER32.dll
 0001:000dc574       _LoadIconA@8               004dd574 f   user32:USER32.dll
 0001:000dc57a       _SendMessageA@16           004dd57a f   user32:USER32.dll
 0001:000dc580       _ShowWindow@8              004dd580 f   user32:USER32.dll
 0001:000dc586       _SetForegroundWindow@4     004dd586 f   user32:USER32.dll
 0001:000dc58c       _SetFocus@4                004dd58c f   user32:USER32.dll
 0001:000dc592       _ShowCursor@4              004dd592 f   user32:USER32.dll
 0001:000dc598       _MessageBoxA@16            004dd598 f   user32:USER32.dll
 0001:000dc59e       _RegisterHotKey@16         004dd59e f   user32:USER32.dll
 0001:000dc5a4       _UnregisterHotKey@8        004dd5a4 f   user32:USER32.dll
 0001:000dc5aa       _PostQuitMessage@4         004dd5aa f   user32:USER32.dll
 0001:000dc5b0       _DefWindowProcA@16         004dd5b0 f   user32:USER32.dll
 0001:000dc5b6       _EnumDisplaySettingsA@12   004dd5b6 f   user32:USER32.dll
 0001:000dc5bc       _ChangeDisplaySettingsA@8  004dd5bc f   user32:USER32.dll
 0001:000dc5c2       _GetDC@4                   004dd5c2 f   user32:USER32.dll
 0001:000dc5c8       _ReleaseDC@8               004dd5c8 f   user32:USER32.dll
 0001:000dc5ce       _LoadCursorA@8             004dd5ce f   user32:USER32.dll
 0001:000dc5d4       _RegisterClassA@4          004dd5d4 f   user32:USER32.dll
 0001:000dc5da       _AdjustWindowRect@12       004dd5da f   user32:USER32.dll
 0001:000dc5e0       _GetDesktopWindow@0        004dd5e0 f   user32:USER32.dll
 0001:000dc5e6       _GetWindowRect@8           004dd5e6 f   user32:USER32.dll
 0001:000dc5ec       _CreateWindowExA@48        004dd5ec f   user32:USER32.dll
 0001:000dc5f2       _DestroyWindow@4           004dd5f2 f   user32:USER32.dll
 0001:000dc5f8       _PeekMessageA@20           004dd5f8 f   user32:USER32.dll
 0001:000dc5fe       _TranslateMessage@4        004dd5fe f   user32:USER32.dll
 0001:000dc604       _DispatchMessageA@4        004dd604 f   user32:USER32.dll
 0001:000dc60a       _GetClientRect@8           004dd60a f   user32:USER32.dll
 0001:000dc610       _SetCursorPos@8            004dd610 f   user32:USER32.dll
 0001:000dc616       _SetCapture@4              004dd616 f   user32:USER32.dll
 0001:000dc61c       _ReleaseCapture@0          004dd61c f   user32:USER32.dll
 0001:000dc622       _OpenClipboard@4           004dd622 f   user32:USER32.dll
 0001:000dc628       _IsClipboardFormatAvailable@4 004dd628 f   user32:USER32.dll
 0001:000dc62e       _GetClipboardData@4        004dd62e f   user32:USER32.dll
 0001:000dc634       _CloseClipboard@0          004dd634 f   user32:USER32.dll
 0001:000dc63a       _GetForegroundWindow@0     004dd63a f   user32:USER32.dll
 0001:000dc640       _ChoosePixelFormat@8       004dd640 f   gdi32:GDI32.dll
 0001:000dc646       _SetPixelFormat@12         004dd646 f   gdi32:GDI32.dll
 0001:000dc64c       _GetStockObject@4          004dd64c f   gdi32:GDI32.dll
 0001:000dc652       _SwapBuffers@4             004dd652 f   gdi32:GDI32.dll
 0001:000dc658       _Shell_NotifyIconA@8       004dd658 f   shell32:SHELL32.dll
 0001:000dc65e       _ShellExecuteA@24          004dd65e f   shell32:SHELL32.dll
 0001:000dc664       _CoInitialize@4            004dd664 f   ole32:ole32.dll
 0001:000dc670       ?SetSilent@ErrorHandler@@QAEX_N@Z 004dd670 f i unrar:unrar.obj
 0001:000dc680       ?SetShutdown@ErrorHandler@@QAEX_N@Z 004dd680 f i unrar:unrar.obj
 0001:000dc690       ??0MemMappedFile@@QAE@PBDI@Z 004dd690 f   unrar:unrar.obj
 0001:000dc6f0       ??1MemMappedFile@@QAE@XZ   004dd6f0 f   unrar:unrar.obj
 0001:000dc710       ??0UncompressedArchive@@QAE@PBD0@Z 004dd710 f   unrar:unrar.obj
 0001:000dc910       ?AllocNewFile@UncompressedArchive@@QAEPAVMemMappedFile@@PBDI@Z 004dd910 f   unrar:unrar.obj
 0001:000dc9c0       ?SHA1Transform@@YAXQAIQAE@Z 004dd9c0 f   unrar:sha1.obj
 0001:000ddd80       ?hash_initial@@YAXPAUhash_context@@@Z 004ded80 f   unrar:sha1.obj
 0001:000dddb0       ?hash_process@@YAXPAUhash_context@@PAEI@Z 004dedb0 f   unrar:sha1.obj
 0001:000dde60       ?hash_final@@YAXPAUhash_context@@QAI@Z 004dee60 f   unrar:sha1.obj
 0001:000ddf70       ?strpbrk@@YAPADPADPBD@Z    004def70 f i unrar:cmddata.obj
 0001:000ddf80       ?IsSet@RarTime@@QAE_NXZ    004def80 f i unrar:cmddata.obj
 0001:000ddf90       ?ItemsCount@StringList@@QAEIXZ 004def90 f i unrar:cmddata.obj
 0001:000ddfa0       ??_GStringList@@QAEPAXI@Z  004defa0 f i unrar:cmddata.obj
 0001:000ddfc0       ??0FindData@@QAE@XZ        004defc0 f i unrar:cmddata.obj
 0001:000ddff0       ?ParseDone@CommandData@@QAEXXZ 004deff0 f   unrar:cmddata.obj
 0001:000de070       ?BadSwitch@CommandData@@AAEXPAD@Z 004df070 f   unrar:cmddata.obj
 0001:000de0a0       ?OutTitle@CommandData@@QAEXXZ 004df0a0 f   unrar:cmddata.obj
 0001:000de100       ?OutHelp@CommandData@@QAEXXZ 004df100 f   unrar:cmddata.obj
 0001:000de160       ?ExclCheck@CommandData@@QAE_NPAD_N@Z 004df160 f   unrar:cmddata.obj
 0001:000de240       ?TimeCheck@CommandData@@QAE_NAAVRarTime@@@Z 004df240 f   unrar:cmddata.obj
 0001:000de290       ?IsProcessFile@CommandData@@QAEHAAUFileHeader@@PA_NH@Z 004df290 f   unrar:cmddata.obj
 0001:000de470       ?AddArcName@CommandData@@QAEXPADPA_W@Z 004df470 f   unrar:cmddata.obj
 0001:000de480       ?GetArcName@CommandData@@QAE_NPADPA_WH@Z 004df480 f   unrar:cmddata.obj
 0001:000de4b0       ?IsSwitch@CommandData@@QAE_NH@Z 004df4b0 f   unrar:cmddata.obj
 0001:000de4d0       ?GetExclAttr@CommandData@@AAEIPAD@Z 004df4d0 f   unrar:cmddata.obj
 0001:000de580       ?CheckWinSize@CommandData@@QAE_NXZ 004df580 f   unrar:cmddata.obj
 0001:000de5b0       ?Reset@?$Array@_J@@QAEXXZ  004df5b0 f i unrar:cmddata.obj
 0001:000de5d0       ??A?$Array@_J@@QAEAA_JH@Z  004df5d0 f i unrar:cmddata.obj
 0001:000de5e0       ?Size@?$Array@_J@@QAEHXZ   004df5e0 f i unrar:cmddata.obj
 0001:000de5f0       ?Add@?$Array@_J@@QAEXH@Z   004df5f0 f i unrar:cmddata.obj
 0001:000de650       ?Close@CommandData@@QAEXXZ 004df650 f   unrar:cmddata.obj
 0001:000de6f0       ?IsConfigEnabled@CommandData@@QAE_NHQAPAD@Z 004df6f0 f   unrar:cmddata.obj
 0001:000de750       ?ProcessCommand@CommandData@@QAEXXZ 004df750 f   unrar:cmddata.obj
 0001:000de8e0       ?Push@?$Array@_J@@QAEX_J@Z 004df8e0 f i unrar:cmddata.obj
 0001:000de910       ??1CommandData@@QAE@XZ     004df910 f   unrar:cmddata.obj
 0001:000de970       ?Init@CommandData@@QAEXXZ  004df970 f   unrar:cmddata.obj
 0001:000deac0       ?ProcessSwitch@CommandData@@AAEXPAD@Z 004dfac0 f   unrar:cmddata.obj
 0001:000dfab0       ??0CommandData@@QAE@XZ     004e0ab0 f   unrar:cmddata.obj
 0001:000dfb20       ?ParseArg@CommandData@@QAEXPADPA_W@Z 004e0b20 f   unrar:cmddata.obj
 0001:000dfe00       ?ProcessSwitchesString@CommandData@@AAEXPAD@Z 004e0e00 f   unrar:cmddata.obj
 0001:000dfe80       ?ParseEnvVar@CommandData@@QAEXXZ 004e0e80 f   unrar:cmddata.obj
 0001:000dfea0       ?ReadConfig@CommandData@@QAEXHQAPAD@Z 004e0ea0 f   unrar:cmddata.obj
 0001:000dff70       ?GetErrorCount@ErrorHandler@@QAEHXZ 004e0f70 f i unrar:extract.obj
 0001:000dff80       ?CmpName@FileHeader@@QAE_NPBD@Z 004e0f80 f i unrar:extract.obj
 0001:000dffd0       ?IsOpened@File@@QAE_NXZ    004e0fd0 f i unrar:extract.obj
 0001:000dffe0       ?SetAllowDelete@File@@QAEX_N@Z 004e0fe0 f i unrar:extract.obj
 0001:000dfff0       ?SetPackedSizeToRead@ComprDataIO@@QAEX_J@Z 004e0ff0 f i unrar:extract.obj
 0001:000e0010       ?SetTestMode@ComprDataIO@@QAEX_N@Z 004e1010 f i unrar:extract.obj
 0001:000e0020       ?SetSkipUnpCRC@ComprDataIO@@QAEX_N@Z 004e1020 f i unrar:extract.obj
 0001:000e0030       ?SetCurrentCommand@ComprDataIO@@QAEXD@Z 004e1030 f i unrar:extract.obj
 0001:000e0040       ?GetHeaderType@Archive@@QAEHXZ 004e1040 f i unrar:extract.obj
 0001:000e0050       ?SetDestSize@Unpack@@QAEX_J@Z 004e1050 f i unrar:extract.obj
 0001:000e0070       ??0CmdExtract@@QAE@XZ      004e1070 f   unrar:extract.obj
 0001:000e0100       ??_GUnpack@@QAEPAXI@Z      004e1100 f i unrar:extract.obj
 0001:000e0120       ?ExtractArchiveInit@CmdExtract@@QAEXPAVCommandData@@AAVArchive@@@Z 004e1120 f   unrar:extract.obj
 0001:000e01b0       ??0?$Array@E@@QAE@H@Z      004e11b0 f i unrar:extract.obj
 0001:000e01f0       ??1?$Array@E@@QAE@XZ       004e11f0 f i unrar:extract.obj
 0001:000e0200       ??A?$Array@E@@QAEAAEH@Z    004e1200 f i unrar:extract.obj
 0001:000e0210       ?Size@?$Array@E@@QAEHXZ    004e1210 f i unrar:extract.obj
 0001:000e0220       ??1CmdExtract@@QAE@XZ      004e1220 f   unrar:extract.obj
 0001:000e0260       ??1FileHeader@@QAE@XZ      004e1260 f i unrar:extract.obj
 0001:000e0270       ?UnstoreFile@CmdExtract@@SAXAAVComprDataIO@@_J@Z 004e1270 f   unrar:extract.obj
 0001:000e0340       ??1Archive@@UAE@XZ         004e1340 f i unrar:extract.obj
 0001:000e03c0       ?ExtractCurrentFile@CmdExtract@@QAE_NPAVCommandData@@AAVArchive@@HAA_N@Z 004e13c0 f   unrar:extract.obj
 0001:000e1640       ?ExtractArchive@CmdExtract@@QAE?AW4EXTRACT_ARC_CODE@@PAVCommandData@@PAVUncompressedArchive@@@Z 004e2640 f   unrar:extract.obj
 0001:000e18e0       ?DoExtract@CmdExtract@@QAEXPAVCommandData@@PAVUncompressedArchive@@@Z 004e28e0 f   unrar:extract.obj
 0001:000e1ab0       ??0File@@QAE@XZ            004e2ab0 f   unrar:file.obj
 0001:000e1b00       ??4File@@QAEXAAV0@@Z       004e2b00 f   unrar:file.obj
 0001:000e1b40       ?AddFileToList@File@@AAEXPAX@Z 004e2b40 f   unrar:file.obj
 0001:000e1b70       ?Close@File@@QAE_NXZ       004e2b70 f   unrar:file.obj
 0001:000e1c10       ?Flush@File@@QAEXXZ        004e2c10 f   unrar:file.obj
 0001:000e1c20       ?Delete@File@@QAE_NXZ      004e2c20 f   unrar:file.obj
 0001:000e1c60       ?Rename@File@@QAE_NPBD@Z   004e2c60 f   unrar:file.obj
 0001:000e1cd0       ?Tell@File@@QAE_JXZ        004e2cd0 f   unrar:file.obj
 0001:000e1d40       ?Truncate@File@@QAE_NXZ    004e2d40 f   unrar:file.obj
 0001:000e1d50       ?SetOpenFileTime@File@@QAEXPAVRarTime@@00@Z 004e2d50 f   unrar:file.obj
 0001:000e1e30       ?SetCloseFileTime@File@@QAEXPAVRarTime@@0@Z 004e2e30 f   unrar:file.obj
 0001:000e1e40       ?SetCloseFileTimeByName@File@@SAXPBDPAVRarTime@@1@Z 004e2e40 f   unrar:file.obj
 0001:000e1e50       ?GetOpenFileTime@File@@QAEXPAVRarTime@@@Z 004e2e50 f   unrar:file.obj
 0001:000e1e80       ?SetOpenFileStat@File@@QAEXPAVRarTime@@00@Z 004e2e80 f   unrar:file.obj
 0001:000e1e90       ?SetCloseFileStat@File@@QAEXPAVRarTime@@0I@Z 004e2e90 f   unrar:file.obj
 0001:000e1eb0       ?FileLength@File@@QAE_JXZ  004e2eb0 f   unrar:file.obj
 0001:000e1f30       ?SetHandleType@File@@QAEXW4FILE_HANDLETYPE@@@Z 004e2f30 f   unrar:file.obj
 0001:000e1f40       ?IsDevice@File@@QAE_NXZ    004e2f40 f   unrar:file.obj
 0001:000e1f70       ?RemoveCreated@File@@SAXXZ 004e2f70 f   unrar:file.obj
 0001:000e1fc0       ??0?$Array@D@@QAE@H@Z      004e2fc0 f i unrar:file.obj
 0001:000e2000       ??1?$Array@D@@QAE@XZ       004e3000 f i unrar:file.obj
 0001:000e2010       ??A?$Array@D@@QAEAADH@Z    004e3010 f i unrar:file.obj
 0001:000e2020       ?Size@?$Array@D@@QAEHXZ    004e3020 f i unrar:file.obj
 0001:000e2030       ??1File@@UAE@XZ            004e3030 f   unrar:file.obj
 0001:000e2060       ?Open@File@@QAE_NPBDPB_W_N2@Z 004e3060 f   unrar:file.obj
 0001:000e2180       ?WOpen@File@@QAE_NPBDPB_W@Z 004e3180 f   unrar:file.obj
 0001:000e21b0       ?Create@File@@QAE_NPBDPB_W@Z 004e31b0 f   unrar:file.obj
 0001:000e2280       ?WCreate@File@@QAE_NPBDPB_W@Z 004e3280 f   unrar:file.obj
 0001:000e22c0       ?Write@File@@QAEXPBXH@Z    004e32c0 f   unrar:file.obj
 0001:000e2430       ?DirectRead@File@@QAEHPAXH@Z 004e3430 f   unrar:file.obj
 0001:000e24d0       ?RawSeek@File@@QAE_N_JH@Z  004e34d0 f   unrar:file.obj
 0001:000e2550       ?PutByte@File@@QAEXE@Z     004e3550 f   unrar:file.obj
 0001:000e2560       ?fprintf@File@@QAAXPBDZZ   004e3560 f   unrar:file.obj
 0001:000e25c0       ??_GFile@@UAEPAXI@Z        004e35c0 f i unrar:file.obj
 0001:000e25c0       ??_EFile@@UAEPAXI@Z        004e35c0 f i unrar:file.obj
 0001:000e25e0       ?TOpen@File@@QAEXPBDPB_W@Z 004e35e0 f   unrar:file.obj
 0001:000e2610       ?TCreate@File@@QAEXPBDPB_W@Z 004e3610 f   unrar:file.obj
 0001:000e2640       ?Seek@File@@QAEX_JH@Z      004e3640 f   unrar:file.obj
 0001:000e2680       ?Prealloc@File@@QAEX_J@Z   004e3680 f   unrar:file.obj
 0001:000e26c0       ?Read@File@@QAEHPAXH@Z     004e36c0 f   unrar:file.obj
 0001:000e27b0       ?GetByte@File@@QAEEXZ      004e37b0 f   unrar:file.obj
 0001:000e27d0       ?Copy@File@@QAEJAAV1@_J@Z  004e37d0 f   unrar:file.obj
 0001:000e28c0       ?InitLogOptions@@YAXPAD@Z  004e38c0 f   unrar:consio.obj
 0001:000e28e0       ?InitConsoleOptions@@YAXW4MESSAGE_TYPE@@_N@Z 004e38e0 f   unrar:consio.obj
 0001:000e2a30       ?Alarm@@YAXXZ              004e3a30 f   unrar:consio.obj
 0001:000e2a50       ?GetPasswordText@@YAXPADH@Z 004e3a50 f   unrar:consio.obj
 0001:000e2af0       ?GetKey@@YAIXZ             004e3af0 f   unrar:consio.obj
 0001:000e2ba0       ?KbdAnsi@@YAHPADH@Z        004e3ba0 f   unrar:consio.obj
 0001:000e2c10       ?mprintf@@YAXPBDZZ         004e3c10 f   unrar:consio.obj
 0001:000e2c50       ?eprintf@@YAXPBDZZ         004e3c50 f   unrar:consio.obj
 0001:000e2c80       ?GetPassword@@YA_NW4PASSWORD_TYPE@@PBDPADH@Z 004e3c80 f   unrar:consio.obj
 0001:000e2e70       ?Ask@@YAHPBD@Z             004e3e70 f   unrar:consio.obj
 0001:000e3090       ?OutComment@@YAXPADH@Z     004e4090 f   unrar:consio.obj
 0001:000e3140       ?Log@@YAXPBD0ZZ            004e4140 f   unrar:consio.obj
 0001:000e3170       ?InitSystemOptions@@YAXH@Z 004e4170 f   unrar:system.obj
 0001:000e3180       ?SetPriority@@YAXH@Z       004e4180 f   unrar:system.obj
 0001:000e31f0       ?Wait@@YAXXZ               004e41f0 f   unrar:system.obj
 0001:000e3200       ?GetErrorCode@ErrorHandler@@QAEHXZ 004e4200 f i unrar:rarbloat.obj
 0001:000e3210       ?ToPercent@@YAH_J0@Z       004e4210 f   unrar:rarbloat.obj
 0001:000e3260       ?RARInitData@@YAXXZ        004e4260 f   unrar:rarbloat.obj
 0001:000e3270       _main                      004e4270 f   unrar:rarbloat.obj
 0001:000e3410       ?Clean@ErrorHandler@@QAEXXZ 004e4410 f   unrar:errhnd.obj
 0001:000e3430       ?AskRepeatRead@ErrorHandler@@QAE_NPBD@Z 004e4430 f   unrar:errhnd.obj
 0001:000e3490       ?AskRepeatWrite@ErrorHandler@@QAE_NPBD@Z 004e4490 f   unrar:errhnd.obj
 0001:000e34f0       ?ErrMsg@ErrorHandler@@AAAXPBD0ZZ 004e44f0 f   unrar:errhnd.obj
 0001:000e3560       ?SetErrorCode@ErrorHandler@@QAEXH@Z 004e4560 f   unrar:errhnd.obj
 0001:000e35a0       ?ProcessSignal@@YGHK@Z     004e45a0 f   unrar:errhnd.obj
 0001:000e35e0       ?SetSignalHandlers@ErrorHandler@@QAEX_N@Z 004e45e0 f   unrar:errhnd.obj
 0001:000e3600       ?Throw@ErrorHandler@@QAEXH@Z 004e4600 f   unrar:errhnd.obj
 0001:000e3640       ?SysErrMsg@ErrorHandler@@QAEXXZ 004e4640 f   unrar:errhnd.obj
 0001:000e36f0       ??0ErrorHandler@@QAE@XZ    004e46f0 f   unrar:errhnd.obj
 0001:000e3700       ?CloseError@ErrorHandler@@QAEXPBD@Z 004e4700 f   unrar:errhnd.obj
 0001:000e3740       ?WriteErrorFAT@ErrorHandler@@QAEXPBD@Z 004e4740 f   unrar:errhnd.obj
 0001:000e3780       ?SeekError@ErrorHandler@@QAEXPBD@Z 004e4780 f   unrar:errhnd.obj
 0001:000e37c0       ?MemoryErrorMsg@ErrorHandler@@QAEXXZ 004e47c0 f   unrar:errhnd.obj
 0001:000e37e0       ?OpenErrorMsg@ErrorHandler@@QAEXPBD0@Z 004e47e0 f   unrar:errhnd.obj
 0001:000e3830       ?CreateErrorMsg@ErrorHandler@@QAEXPBD0@Z 004e4830 f   unrar:errhnd.obj
 0001:000e3880       ?ReadErrorMsg@ErrorHandler@@QAEXPBD0@Z 004e4880 f   unrar:errhnd.obj
 0001:000e38b0       ?WriteErrorMsg@ErrorHandler@@QAEXPBD0@Z 004e48b0 f   unrar:errhnd.obj
 0001:000e38e0       ?Exit@ErrorHandler@@QAEXH@Z 004e48e0 f   unrar:errhnd.obj
 0001:000e3900       ?MemoryError@ErrorHandler@@QAEXXZ 004e4900 f   unrar:errhnd.obj
 0001:000e3920       ?ReadError@ErrorHandler@@QAEXPBD@Z 004e4920 f   unrar:errhnd.obj
 0001:000e3940       ?WriteError@ErrorHandler@@QAEXPBD0@Z 004e4940 f   unrar:errhnd.obj
 0001:000e3970       ?OpenErrorMsg@ErrorHandler@@QAEXPBD@Z 004e4970 f   unrar:errhnd.obj
 0001:000e3980       ?CreateErrorMsg@ErrorHandler@@QAEXPBD@Z 004e4980 f   unrar:errhnd.obj
 0001:000e3990       ?OpenError@ErrorHandler@@QAEXPBD@Z 004e4990 f   unrar:errhnd.obj
 0001:000e39b0       ?Rewind@StringList@@QAEXXZ 004e49b0 f   unrar:strlist.obj
 0001:000e39c0       ?SavePosition@StringList@@QAEXXZ 004e49c0 f   unrar:strlist.obj
 0001:000e3a00       ?RestorePosition@StringList@@QAEXXZ 004e4a00 f   unrar:strlist.obj
 0001:000e3a30       ?Add@?$Array@D@@QAEXH@Z    004e4a30 f i unrar:strlist.obj
 0001:000e3a80       ?Reset@?$Array@D@@QAEXXZ   004e4a80 f i unrar:strlist.obj
 0001:000e3aa0       ??1?$Array@_W@@QAE@XZ      004e4aa0 f i unrar:strlist.obj
 0001:000e3ab0       ??A?$Array@_W@@QAEAA_WH@Z  004e4ab0 f i unrar:strlist.obj
 0001:000e3ac0       ?Size@?$Array@_W@@QAEHXZ   004e4ac0 f i unrar:strlist.obj
 0001:000e3ad0       ?Add@?$Array@_W@@QAEXH@Z   004e4ad0 f i unrar:strlist.obj
 0001:000e3b30       ?Reset@?$Array@_W@@QAEXXZ  004e4b30 f i unrar:strlist.obj
 0001:000e3b50       ??1?$Array@H@@QAE@XZ       004e4b50 f i unrar:strlist.obj
 0001:000e3b60       ??A?$Array@H@@QAEAAHH@Z    004e4b60 f i unrar:strlist.obj
 0001:000e3b70       ?Size@?$Array@H@@QAEHXZ    004e4b70 f i unrar:strlist.obj
 0001:000e3b80       ?Add@?$Array@H@@QAEXH@Z    004e4b80 f i unrar:strlist.obj
 0001:000e3be0       ?Reset@?$Array@H@@QAEXXZ   004e4be0 f i unrar:strlist.obj
 0001:000e3c00       ?CleanData@?$Array@D@@QAEXXZ 004e4c00 f i unrar:strlist.obj
 0001:000e3c10       ?CleanData@?$Array@_W@@QAEXXZ 004e4c10 f i unrar:strlist.obj
 0001:000e3c20       ?CleanData@?$Array@H@@QAEXXZ 004e4c20 f i unrar:strlist.obj
 0001:000e3c30       ??1StringList@@QAE@XZ      004e4c30 f   unrar:strlist.obj
 0001:000e3c50       ?Reset@StringList@@QAEXXZ  004e4c50 f   unrar:strlist.obj
 0001:000e3c80       ?AddString@StringList@@QAEIPBDPB_W@Z 004e4c80 f   unrar:strlist.obj
 0001:000e3d30       ?GetString@StringList@@QAE_NPAPADPAPA_W@Z 004e4d30 f   unrar:strlist.obj
 0001:000e3dd0       ?GetString@StringList@@QAEPADI@Z 004e4dd0 f   unrar:strlist.obj
 0001:000e3df0       ?GetBufferSize@StringList@@QAEHXZ 004e4df0 f   unrar:strlist.obj
 0001:000e3e00       ?Search@StringList@@QAE_NPADPA_W_N@Z 004e4e00 f   unrar:strlist.obj
 0001:000e3ed0       ??0?$Array@D@@QAE@XZ       004e4ed0 f i unrar:strlist.obj
 0001:000e3ee0       ??0?$Array@_W@@QAE@XZ      004e4ee0 f i unrar:strlist.obj
 0001:000e3ef0       ??0?$Array@H@@QAE@XZ       004e4ef0 f i unrar:strlist.obj
 0001:000e3f00       ??0StringList@@QAE@XZ      004e4f00 f   unrar:strlist.obj
 0001:000e3f30       ?AddString@StringList@@QAEIPBD@Z 004e4f30 f   unrar:strlist.obj
 0001:000e3f40       ?GetString@StringList@@QAE_NPADPA_WH@Z 004e4f40 f   unrar:strlist.obj
 0001:000e3fa0       ?GetString@StringList@@QAE_NPADPA_WHH@Z 004e4fa0 f   unrar:strlist.obj
 0001:000e4010       ?GetString@StringList@@QAEPADXZ 004e5010 f   unrar:strlist.obj
 0001:000e4030       ?GetString@StringList@@QAE_NPADH@Z 004e5030 f   unrar:strlist.obj
 0001:000e4050       ?Reset@RarTime@@QAEXXZ     004e5050 f i unrar:timefn.obj
 0001:000e4060       ??0RarTime@@QAE@XZ         004e5060 f   unrar:timefn.obj
 0001:000e4070       ?GetWin32@RarTime@@QAEXPAU_FILETIME@@@Z 004e5070 f   unrar:timefn.obj
 0001:000e40f0       ?GetRaw@RarTime@@AAE_JXZ   004e50f0 f   unrar:timefn.obj
 0001:000e4130       ??8RarTime@@QAE_NAAV0@@Z   004e5130 f   unrar:timefn.obj
 0001:000e41e0       ??MRarTime@@QAE_NAAV0@@Z   004e51e0 f   unrar:timefn.obj
 0001:000e4220       ??NRarTime@@QAE_NAAV0@@Z   004e5220 f   unrar:timefn.obj
 0001:000e4250       ??ORarTime@@QAE_NAAV0@@Z   004e5250 f   unrar:timefn.obj
 0001:000e4290       ??PRarTime@@QAE_NAAV0@@Z   004e5290 f   unrar:timefn.obj
 0001:000e42c0       ?GetDos@RarTime@@QAEIXZ    004e52c0 f   unrar:timefn.obj
 0001:000e42f0       ?SetDos@RarTime@@QAEXI@Z   004e52f0 f   unrar:timefn.obj
 0001:000e4340       ?GetText@RarTime@@QAEXPAD_N@Z 004e5340 f   unrar:timefn.obj
 0001:000e43b0       ?SetIsoText@RarTime@@QAEXPAD@Z 004e53b0 f   unrar:timefn.obj
 0001:000e4480       ?GetMonthName@@YAPBDH@Z    004e5480 f   unrar:timefn.obj
 0001:000e44a0       ?IsLeapYear@@YA_NH@Z       004e54a0 f   unrar:timefn.obj
 0001:000e44f0       ??4RarTime@@QAEAAV0@AAU_FILETIME@@@Z 004e54f0 f   unrar:timefn.obj
 0001:000e45c0       ?SetRaw@RarTime@@AAEX_J@Z  004e55c0 f   unrar:timefn.obj
 0001:000e45f0       ?SetCurrentTime@RarTime@@QAEXXZ 004e55f0 f   unrar:timefn.obj
 0001:000e4630       ?SetAgeText@RarTime@@QAEXPAD@Z 004e5630 f   unrar:timefn.obj
 0001:000e4710       ?St@@YAPBDPBD@Z            004e5710 f   unrar:rarresource.obj
 0001:000e4720       ?toupperc@@YAIE@Z          004e5720 f i unrar:match.obj
 0001:000e4730       ?touppercw@@YAII@Z         004e5730 f i unrar:match.obj
 0001:000e4740       ?stricompc@@YAHPBD0@Z      004e5740 f   unrar:match.obj
 0001:000e4750       ?stricompcw@@YAHPB_W0@Z    004e5750 f   unrar:match.obj
 0001:000e4760       ?strnicompc@@YAHPBD0H@Z    004e5760 f   unrar:match.obj
 0001:000e4770       ?strnicompcw@@YAHPB_W0H@Z  004e5770 f   unrar:match.obj
 0001:000e49d0       ?CmpName@@YA_NPAD0H@Z      004e59d0 f   unrar:match.obj
 0001:000e4b70       ?CmpName@@YA_NPA_W0H@Z     004e5b70 f   unrar:match.obj
 0001:000e4cf0       ?charnext@@YAPADPBD@Z      004e5cf0 f i unrar:filefn.obj
 0001:000e4d10       ?SetDirTime@@YAXPBDPAVRarTime@@11@Z 004e5d10 f   unrar:filefn.obj
 0001:000e4e10       ?IsRemovable@@YA_NPBD@Z    004e5e10 f   unrar:filefn.obj
 0001:000e4e90       ?GetFreeDisk@@YA_JPBD@Z    004e5e90 f   unrar:filefn.obj
 0001:000e4fe0       ?FileExist@@YA_NPBDPB_W@Z  004e5fe0 f   unrar:filefn.obj
 0001:000e5020       ?IsDir@@YA_NI@Z            004e6020 f   unrar:filefn.obj
 0001:000e5040       ?IsUnreadable@@YA_NI@Z     004e6040 f   unrar:filefn.obj
 0001:000e5050       ?IsLabel@@YA_NI@Z          004e6050 f   unrar:filefn.obj
 0001:000e5060       ?IsLink@@YA_NI@Z           004e6060 f   unrar:filefn.obj
 0001:000e5070       ?IsDeleteAllowed@@YA_NI@Z  004e6070 f   unrar:filefn.obj
 0001:000e5080       ?GetFileAttr@@YAIPBDPB_W@Z 004e6080 f   unrar:filefn.obj
 0001:000e50b0       ?SetFileAttr@@YA_NPBDPB_WI@Z 004e60b0 f   unrar:filefn.obj
 0001:000e50f0       ?ConvertNameToFull@@YAXPBDPAD@Z 004e60f0 f   unrar:filefn.obj
 0001:000e5190       ?ConvertNameToFull@@YAXPB_WPA_W@Z 004e6190 f   unrar:filefn.obj
 0001:000e52a0       ?MkTemp@@YAPADPAD@Z        004e62a0 f   unrar:filefn.obj
 0001:000e5350       ?RenameFile@@YA_NPBDPB_W01@Z 004e6350 f   unrar:filefn.obj
 0001:000e5370       ?DelFile@@YA_NPBDPB_W@Z    004e6370 f   unrar:filefn.obj
 0001:000e5390       ?DelDir@@YA_NPBDPB_W@Z     004e6390 f   unrar:filefn.obj
 0001:000e53b0       ?MakeDir@@YA?AW4MKDIR_CODE@@PBDPB_WI@Z 004e63b0 f   unrar:filefn.obj
 0001:000e5420       ?CreatePath@@YAXPBDPB_W_N@Z 004e6420 f   unrar:filefn.obj
 0001:000e55d0       ?WildFileExist@@YA_NPBDPB_W@Z 004e65d0 f   unrar:filefn.obj
 0001:000e56e0       ?PrepareToDelete@@YAXPBDPB_W@Z 004e66e0 f   unrar:filefn.obj
 0001:000e5700       ?CalcFileCRC@@YAIPAVFile@@_J@Z 004e6700 f   unrar:filefn.obj
 0001:000e5840       ?DelFile@@YA_NPBD@Z        004e6840 f   unrar:filefn.obj
 0001:000e5850       ?DelDir@@YA_NPBD@Z         004e6850 f   unrar:filefn.obj
 0001:000e5860       ?strchrd@@YAPADPBDH@Z      004e6860 f i unrar:pathfn.obj
 0001:000e5890       ?strrchrd@@YAPADPBDH@Z     004e6890 f i unrar:pathfn.obj
 0001:000e58c0       ?PointToLastChar@@YAPADPBD@Z 004e68c0 f   unrar:pathfn.obj
 0001:000e5900       ?IsWildcard@@YA_NPBDPB_W@Z 004e6900 f   unrar:pathfn.obj
 0001:000e5950       ?IsPathDiv@@YA_NH@Z        004e6950 f   unrar:pathfn.obj
 0001:000e5970       ?IsDriveDiv@@YA_NH@Z       004e6970 f   unrar:pathfn.obj
 0001:000e5980       ?AddEndSlash@@YAXPAD@Z     004e6980 f   unrar:pathfn.obj
 0001:000e59c0       ?AddEndSlash@@YAXPA_W@Z    004e69c0 f   unrar:pathfn.obj
 0001:000e59f0       ?IsNameUsable@@YA_NPBD@Z   004e69f0 f   unrar:pathfn.obj
 0001:000e5a40       ?MakeNameUsable@@YAXPAD_N@Z 004e6a40 f   unrar:pathfn.obj
 0001:000e5ac0       ?UnixSlashToDos@@YAPADPAD0@Z 004e6ac0 f   unrar:pathfn.obj
 0001:000e5b30       ?DosSlashToUnix@@YAPADPAD0@Z 004e6b30 f   unrar:pathfn.obj
 0001:000e5ba0       ?IsDiskLetter@@YA_NPBD@Z   004e6ba0 f   unrar:pathfn.obj
 0001:000e5be0       ?GetPathRoot@@YAXPBDPAD@Z  004e6be0 f   unrar:pathfn.obj
 0001:000e5c70       ?ParseVersionFileName@@YAHPADPA_W_N@Z 004e6c70 f   unrar:pathfn.obj
 0001:000e5d00       ?PointToName@@YAPADPBD@Z   004e6d00 f   unrar:pathfn.obj
 0001:000e5d90       ?PointToName@@YAPA_WPB_W@Z 004e6d90 f   unrar:pathfn.obj
 0001:000e5de0       ?ConvertPath@@YAPADPBDPAD@Z 004e6de0 f   unrar:pathfn.obj
 0001:000e5f30       ?ConvertPath@@YAPA_WPB_WPA_W@Z 004e6f30 f   unrar:pathfn.obj
 0001:000e6090       ?GetExt@@YAPADPBD@Z        004e7090 f   unrar:pathfn.obj
 0001:000e60c0       ?GetExt@@YAPA_WPB_W@Z      004e70c0 f   unrar:pathfn.obj
 0001:000e60f0       ?CmpExt@@YA_NPBD0@Z        004e70f0 f   unrar:pathfn.obj
 0001:000e6120       ?GetPathDisk@@YAHPBD@Z     004e7120 f   unrar:pathfn.obj
 0001:000e6150       ?GetFilePath@@YAXPBDPAD@Z  004e7150 f   unrar:pathfn.obj
 0001:000e6180       ?GetFilePath@@YAXPB_WPA_W@Z 004e7180 f   unrar:pathfn.obj
 0001:000e61b0       ?RemoveNameFromPath@@YAXPAD@Z 004e71b0 f   unrar:pathfn.obj
 0001:000e61f0       ?RemoveNameFromPath@@YAXPA_W@Z 004e71f0 f   unrar:pathfn.obj
 0001:000e6230       ?EnumConfigPaths@@YA_NPADH@Z 004e7230 f   unrar:pathfn.obj
 0001:000e6260       ?GetConfigName@@YAXPBDPAD@Z 004e7260 f   unrar:pathfn.obj
 0001:000e62e0       ?GetVolNumPart@@YAPADPAD@Z 004e72e0 f   unrar:pathfn.obj
 0001:000e63c0       ?NextVolumeName@@YAXPAD_N@Z 004e73c0 f   unrar:pathfn.obj
 0001:000e6520       ?IsFullPath@@YA_NPBD@Z     004e7520 f   unrar:pathfn.obj
 0001:000e65d0       ?SetExt@@YAXPADPBD@Z       004e75d0 f   unrar:pathfn.obj
 0001:000e6660       ?SetExt@@YAXPA_WPB_W@Z     004e7660 f   unrar:pathfn.obj
 0001:000e66c0       ?SetSFXExt@@YAXPAD@Z       004e76c0 f   unrar:pathfn.obj
 0001:000e66e0       ?SetSFXExt@@YAXPA_W@Z      004e76e0 f   unrar:pathfn.obj
 0001:000e6700       ?VolNameToFirstName@@YAPADPBDPAD_N@Z 004e7700 f   unrar:pathfn.obj
 0001:000e6960       ?WideToChar@@YAXPB_WPADH@Z 004e7960 f   unrar:unicode.obj
 0001:000e6980       ?CharToWide@@YAXPBDPA_WH@Z 004e7980 f   unrar:unicode.obj
 0001:000e69a0       ?WideToRaw@@YAPAEPB_WPAEH@Z 004e79a0 f   unrar:unicode.obj
 0001:000e69e0       ?RawToWide@@YAPA_WPBEPA_WH@Z 004e79e0 f   unrar:unicode.obj
 0001:000e6a30       ?strlenw@@YAHPB_W@Z        004e7a30 f   unrar:unicode.obj
 0001:000e6a50       ?strcpyw@@YAPA_WPA_WPB_W@Z 004e7a50 f   unrar:unicode.obj
 0001:000e6a80       ?strncpyw@@YAPA_WPA_WPB_WH@Z 004e7a80 f   unrar:unicode.obj
 0001:000e6ab0       ?strcatw@@YAPA_WPA_WPB_W@Z 004e7ab0 f   unrar:unicode.obj
 0001:000e6ad0       ?strncatw@@YAPA_WPA_WPB_WH@Z 004e7ad0 f   unrar:unicode.obj
 0001:000e6b10       ?strcmpw@@YAHPB_W0@Z       004e7b10 f   unrar:unicode.obj
 0001:000e6b50       ?strncmpw@@YAHPB_W0H@Z     004e7b50 f   unrar:unicode.obj
 0001:000e6b90       ?stricmpw@@YAHPB_W0@Z      004e7b90 f   unrar:unicode.obj
 0001:000e6c10       ?strnicmpw_w2c@@YAHPB_W0H@Z 004e7c10 f i unrar:unicode.obj
 0001:000e6cf0       ?strnicmpw@@YAHPB_W0H@Z    004e7cf0 f   unrar:unicode.obj
 0001:000e6d00       ?strchrw@@YAPA_WPB_WH@Z    004e7d00 f   unrar:unicode.obj
 0001:000e6d30       ?strrchrw@@YAPA_WPB_WH@Z   004e7d30 f   unrar:unicode.obj
 0001:000e6d60       ?strpbrkw@@YAPA_WPB_W0@Z   004e7d60 f   unrar:unicode.obj
 0001:000e6da0       ?strlowerw@@YAPA_WPA_W@Z   004e7da0 f   unrar:unicode.obj
 0001:000e6de0       ?strupperw@@YAPA_WPA_W@Z   004e7de0 f   unrar:unicode.obj
 0001:000e6e20       ?toupperw@@YAHH@Z          004e7e20 f   unrar:unicode.obj
 0001:000e6e40       ?atoiw@@YAHPB_W@Z          004e7e40 f   unrar:unicode.obj
 0001:000e6e70       ?Init@SupportDBCS@@QAEXXZ  004e7e70 f   unrar:unicode.obj
 0001:000e6ed0       ?charnext@SupportDBCS@@QAEPADPBD@Z 004e7ed0 f   unrar:unicode.obj
 0001:000e6ef0       ?strchrd@SupportDBCS@@QAEPADPBDH@Z 004e7ef0 f   unrar:unicode.obj
 0001:000e6f30       ?copychrd@SupportDBCS@@QAEXPADPBD@Z 004e7f30 f   unrar:unicode.obj
 0001:000e6f50       ?strrchrd@SupportDBCS@@QAEPADPBDH@Z 004e7f50 f   unrar:unicode.obj
 0001:000e6f90       ??0SupportDBCS@@QAE@XZ     004e7f90 f   unrar:unicode.obj
 0001:000e6fa0       ?NullToEmpty@@YAPBDPBD@Z   004e7fa0 f   unrar:strfn.obj
 0001:000e6fb0       ?NullToEmpty@@YAPB_WPB_W@Z 004e7fb0 f   unrar:strfn.obj
 0001:000e6fc0       ?ExtToInt@@YAXPBDPAD@Z     004e7fc0 f   unrar:strfn.obj
 0001:000e6fe0       ?IntToExt@@YAXPBDPAD@Z     004e7fe0 f   unrar:strfn.obj
 0001:000e7000       ?strlower@@YAPADPAD@Z      004e8000 f   unrar:strfn.obj
 0001:000e7010       ?strupper@@YAPADPAD@Z      004e8010 f   unrar:strfn.obj
 0001:000e7020       ?stricomp@@YAHPBD0@Z       004e8020 f   unrar:strfn.obj
 0001:000e70e0       ?strnicomp@@YAHPBD0H@Z     004e80e0 f   unrar:strfn.obj
 0001:000e7170       ?RemoveEOL@@YAPADPAD@Z     004e8170 f   unrar:strfn.obj
 0001:000e71c0       ?RemoveLF@@YAPADPAD@Z      004e81c0 f   unrar:strfn.obj
 0001:000e7200       ?loctolower@@YAIE@Z        004e8200 f   unrar:strfn.obj
 0001:000e7210       ?loctoupper@@YAIE@Z        004e8210 f   unrar:strfn.obj
 0001:000e7220       ?LowAscii@@YA_NPBD@Z       004e8220 f   unrar:strfn.obj
 0001:000e7250       ?LowAscii@@YA_NPB_W@Z      004e8250 f   unrar:strfn.obj
 0001:000e7280       ?IntNameToExt@@YAPADPBD@Z  004e8280 f   unrar:strfn.obj
 0001:000e72a0       ??0ScanTree@@QAE@PAVStringList@@H_NH@Z 004e82a0 f   unrar:scantree.obj
 0001:000e7310       ??_GFindFile@@QAEPAXI@Z    004e8310 f i unrar:scantree.obj
 0001:000e7330       ?PrepareMasks@ScanTree@@AAE_NXZ 004e8330 f   unrar:scantree.obj
 0001:000e74c0       ?FindProc@ScanTree@@AAEHPAUFindData@@@Z 004e84c0 f   unrar:scantree.obj
 0001:000e7b70       ??1ScanTree@@QAE@XZ        004e8b70 f   unrar:scantree.obj
 0001:000e7ba0       ?GetNext@ScanTree@@QAEHPAUFindData@@@Z 004e8ba0 f   unrar:scantree.obj
 0001:000e7c50       ?Init@RAROptions@@QAEXXZ   004e8c50 f   unrar:options.obj
 0001:000e7cb0       ??1?$Array@_J@@QAE@XZ      004e8cb0 f i unrar:options.obj
 0001:000e7cc0       ?CleanData@?$Array@_J@@QAEXXZ 004e8cc0 f i unrar:options.obj
 0001:000e7cd0       ??1RAROptions@@QAE@XZ      004e8cd0 f   unrar:options.obj
 0001:000e7cf0       ??0?$Array@_J@@QAE@XZ      004e8cf0 f i unrar:options.obj
 0001:000e7d00       ??0RAROptions@@QAE@XZ      004e8d00 f   unrar:options.obj
 0001:000e7d70       ?itoa@@YAX_JPAD@Z          004e8d70 f   unrar:int64.obj
 0001:000e7e20       ?atoil@@YA_JPAD@Z          004e8e20 f   unrar:int64.obj
 0001:000e7eb0       ?ReadTextFile@@YA_NPADPAVStringList@@_N2222@Z 004e8eb0 f   unrar:filestr.obj
 0001:000e8280       ??0FindFile@@QAE@XZ        004e9280 f   unrar:find.obj
 0001:000e82b0       ??1FindFile@@QAE@XZ        004e92b0 f   unrar:find.obj
 0001:000e82d0       ?SetMask@FindFile@@QAEXPBD@Z 004e92d0 f   unrar:find.obj
 0001:000e8320       ?SetMaskW@FindFile@@QAEXPB_W@Z 004e9320 f   unrar:find.obj
 0001:000e8360       ?Win32Find@FindFile@@CAPAXPAXPBDPB_WPAUFindData@@@Z 004e9360 f   unrar:find.obj
 0001:000e8720       ?Next@FindFile@@QAE_NPAUFindData@@_N@Z 004e9720 f   unrar:find.obj
 0001:000e87f0       ?FastFind@FindFile@@SA_NPBDPB_WPAUFindData@@_N@Z 004e97f0 f   unrar:find.obj
 0001:000e8850       ?InitBitInput@BitInput@@QAEXXZ 004e9850 f i unrar:unpack.obj
 0001:000e8860       ?addbits@BitInput@@QAEXH@Z 004e9860 f i unrar:unpack.obj
 0001:000e8880       ?getbits@BitInput@@QAEIXZ  004e9880 f i unrar:unpack.obj
 0001:000e88b0       ?insertAt@RAR_MEM_BLK@@QAEXPAU1@@Z 004e98b0 f i unrar:unpack.obj
 0001:000e88d0       ?remove@RAR_MEM_BLK@@QAEXXZ 004e98d0 f i unrar:unpack.obj
 0001:000e88f0       ?GetAllocatedMemory@SubAllocator@@QAEJXZ 004e98f0 f i unrar:unpack.obj
 0001:000e8900       ?init@SEE2_CONTEXT@@QAEXH@Z 004e9900 f i unrar:unpack.obj
 0001:000e8920       ?getMean@SEE2_CONTEXT@@QAEIXZ 004e9920 f i unrar:unpack.obj
 0001:000e8940       ?update@SEE2_CONTEXT@@QAEXXZ 004e9940 f i unrar:unpack.obj
 0001:000e8970       ?GetCurrentCount@RangeCoder@@QAEHXZ 004e9970 f i unrar:unpack.obj
 0001:000e8990       ?GetCurrentShiftCount@RangeCoder@@QAEII@Z 004e9990 f i unrar:unpack.obj
 0001:000e89b0       ?Decode@RangeCoder@@QAEXXZ 004e99b0 f i unrar:unpack.obj
 0001:000e89d0       ?Clean@SubAllocator@@QAEXXZ 004e99d0 f   unrar:unpack.obj
 0001:000e89e0       ?InsertNode@SubAllocator@@AAEXPAXH@Z 004e99e0 f i unrar:unpack.obj
 0001:000e8a00       ?RemoveNode@SubAllocator@@AAEPAXH@Z 004e9a00 f i unrar:unpack.obj
 0001:000e8a20       ?U2B@SubAllocator@@AAEIH@Z 004e9a20 f i unrar:unpack.obj
 0001:000e8a30       ?SplitBlock@SubAllocator@@AAEXPAXHH@Z 004e9a30 f i unrar:unpack.obj
 0001:000e8aa0       ?StopSubAllocator@SubAllocator@@QAEXXZ 004e9aa0 f   unrar:unpack.obj
 0001:000e8ac0       ?StartSubAllocator@SubAllocator@@QAE_NH@Z 004e9ac0 f   unrar:unpack.obj
 0001:000e8b30       ?InitSubAllocator@SubAllocator@@QAEXXZ 004e9b30 f   unrar:unpack.obj
 0001:000e8c60       ?GlueFreeBlocks@SubAllocator@@AAEXXZ 004e9c60 f i unrar:unpack.obj
 0001:000e8e20       ?AllocUnitsRare@SubAllocator@@AAEPAXH@Z 004e9e20 f   unrar:unpack.obj
 0001:000e8ee0       ?AllocUnits@SubAllocator@@QAEPAXH@Z 004e9ee0 f i unrar:unpack.obj
 0001:000e8f40       ?AllocContext@SubAllocator@@QAEPAXXZ 004e9f40 f i unrar:unpack.obj
 0001:000e8f80       ?ExpandUnits@SubAllocator@@QAEPAXPAXH@Z 004e9f80 f i unrar:unpack.obj
 0001:000e8ff0       ?ShrinkUnits@SubAllocator@@QAEPAXPAXHH@Z 004e9ff0 f i unrar:unpack.obj
 0001:000e9070       ?FreeUnits@SubAllocator@@QAEXPAXH@Z 004ea070 f i unrar:unpack.obj
 0001:000e90a0       ?createChild@PPM_CONTEXT@@QAEPAU1@PAVModelPPM@@PAUSTATE@@AAU3@@Z 004ea0a0 f i unrar:unpack.obj
 0001:000e9110       ?RestartModelRare@ModelPPM@@AAEXXZ 004ea110 f   unrar:unpack.obj
 0001:000e92f0       ?StartModelRare@ModelPPM@@AAEXH@Z 004ea2f0 f   unrar:unpack.obj
 0001:000e93c0       ?CreateSuccessors@ModelPPM@@AAEPAUPPM_CONTEXT@@_NPAUSTATE@@@Z 004ea3c0 f i unrar:unpack.obj
 0001:000e9580       ?decodeBinSymbol@PPM_CONTEXT@@QAEXPAVModelPPM@@@Z 004ea580 f i unrar:unpack.obj
 0001:000e96d0       ?makeEscFreq2@PPM_CONTEXT@@QAEPAUSEE2_CONTEXT@@PAVModelPPM@@H@Z 004ea6d0 f i unrar:unpack.obj
 0001:000e9790       ?ClearMask@ModelPPM@@AAEXXZ 004ea790 f i unrar:unpack.obj
 0001:000e97b0       ?OldUnpWriteBuf@Unpack@@AAEXXZ 004ea7b0 f   unrar:unpack.obj
 0001:000e9840       ?OldUnpInitData@Unpack@@AAEXH@Z 004ea840 f   unrar:unpack.obj
 0001:000e98c0       ?CorrHuff@Unpack@@AAEXPAI0@Z 004ea8c0 f   unrar:unpack.obj
 0001:000e9940       ?OldCopyString@Unpack@@AAEXII@Z 004ea940 f   unrar:unpack.obj
 0001:000e99a0       ?DecodeNum@Unpack@@AAEIHIPAI0@Z 004ea9a0 f   unrar:unpack.obj
 0001:000e9a00       ?CopyString20@Unpack@@AAEXII@Z 004eaa00 f   unrar:unpack.obj
 0001:000e9b10       ?UnpInitData20@Unpack@@AAEXH@Z 004eab10 f   unrar:unpack.obj
 0001:000e9b70       ?DecodeAudio@Unpack@@AAEEH@Z 004eab70 f   unrar:unpack.obj
 0001:000e9e90       ?InsertOldDist@Unpack@@AAEXI@Z 004eae90 f i unrar:unpack.obj
 0001:000e9ed0       ?InsertLastMatch@Unpack@@AAEXII@Z 004eaed0 f i unrar:unpack.obj
 0001:000e9ef0       ?CopyString@Unpack@@AAEXII@Z 004eaef0 f   unrar:unpack.obj
 0001:000e9fb0       ?DecodeNumber@Unpack@@AAEHPAUDecode@@@Z 004eafb0 f   unrar:unpack.obj
 0001:000ea0a0       ?UnpReadBuf@Unpack@@AAE_NXZ 004eb0a0 f   unrar:unpack.obj
 0001:000ea130       ?UnpWriteData@Unpack@@AAEXPAEH@Z 004eb130 f   unrar:unpack.obj
 0001:000ea1b0       ?MakeDecodeTables@Unpack@@AAEXPAEPAUDecode@@H@Z 004eb1b0 f   unrar:unpack.obj
 0001:000ea3a0       ?CleanData@?$Array@E@@QAEXXZ 004eb3a0 f i unrar:unpack.obj
 0001:000ea3b0       ?Add@?$Array@E@@QAEXH@Z    004eb3b0 f i unrar:unpack.obj
 0001:000ea400       ?Reset@?$Array@E@@QAEXXZ   004eb400 f i unrar:unpack.obj
 0001:000ea420       ??1?$Array@UVM_PreparedCommand@@@@QAE@XZ 004eb420 f i unrar:unpack.obj
 0001:000ea430       ??A?$Array@UVM_PreparedCommand@@@@QAEAAUVM_PreparedCommand@@H@Z 004eb430 f i unrar:unpack.obj
 0001:000ea440       ??1?$Array@PAUUnpackFilter@@@@QAE@XZ 004eb440 f i unrar:unpack.obj
 0001:000ea450       ??A?$Array@PAUUnpackFilter@@@@QAEAAPAUUnpackFilter@@H@Z 004eb450 f i unrar:unpack.obj
 0001:000ea460       ?Size@?$Array@PAUUnpackFilter@@@@QAEHXZ 004eb460 f i unrar:unpack.obj
 0001:000ea470       ?Add@?$Array@PAUUnpackFilter@@@@QAEXH@Z 004eb470 f i unrar:unpack.obj
 0001:000ea4d0       ?Reset@?$Array@PAUUnpackFilter@@@@QAEXXZ 004eb4d0 f i unrar:unpack.obj
 0001:000ea4f0       ??$_PPMD_SWAP@USTATE@@@@YAXAAUSTATE@@0@Z 004eb4f0 f i unrar:unpack.obj
 0001:000ea520       ?CleanData@?$Array@UVM_PreparedCommand@@@@QAEXXZ 004eb520 f i unrar:unpack.obj
 0001:000ea530       ?CleanData@?$Array@PAUUnpackFilter@@@@QAEXXZ 004eb530 f i unrar:unpack.obj
 0001:000ea540       ??1SubAllocator@@QAE@XZ    004eb540 f i unrar:unpack.obj
 0001:000ea550       ?GetChar@Unpack@@QAEIXZ    004eb550 f i unrar:unpack.obj
 0001:000ea570       ?GetChar@RangeCoder@@QAEIXZ 004eb570 f i unrar:unpack.obj
 0001:000ea5a0       ?InitDecoder@RangeCoder@@QAEXPAVUnpack@@@Z 004eb5a0 f   unrar:unpack.obj
 0001:000ea600       ??0SubAllocator@@QAE@XZ    004eb600 f   unrar:unpack.obj
 0001:000ea610       ??0ModelPPM@@QAE@XZ        004eb610 f   unrar:unpack.obj
 0001:000ea640       ?rescale@PPM_CONTEXT@@QAEXPAVModelPPM@@@Z 004eb640 f   unrar:unpack.obj
 0001:000ea820       ?UpdateModel@ModelPPM@@AAEXXZ 004eb820 f i unrar:unpack.obj
 0001:000eab40       ?update1@PPM_CONTEXT@@QAEXPAVModelPPM@@PAUSTATE@@@Z 004ebb40 f i unrar:unpack.obj
 0001:000eaba0       ?decodeSymbol1@PPM_CONTEXT@@QAE_NPAVModelPPM@@@Z 004ebba0 f i unrar:unpack.obj
 0001:000ead10       ?update2@PPM_CONTEXT@@QAEXPAVModelPPM@@PAUSTATE@@@Z 004ebd10 f i unrar:unpack.obj
 0001:000ead50       ?decodeSymbol2@PPM_CONTEXT@@QAE_NPAVModelPPM@@@Z 004ebd50 f i unrar:unpack.obj
 0001:000eaee0       ?DecodeInit@ModelPPM@@QAE_NPAVUnpack@@AAH@Z 004ebee0 f   unrar:unpack.obj
 0001:000eafd0       ?DecodeChar@ModelPPM@@QAEHXZ 004ebfd0 f   unrar:unpack.obj
 0001:000eb210       ?ShortLZ@Unpack@@AAEXXZ    004ec210 f   unrar:unpack.obj
 0001:000eb4f0       ?LongLZ@Unpack@@AAEXXZ     004ec4f0 f   unrar:unpack.obj
 0001:000eb780       ?HuffDecode@Unpack@@AAEXXZ 004ec780 f   unrar:unpack.obj
 0001:000eb9d0       ?GetFlagsBuf@Unpack@@AAEXXZ 004ec9d0 f   unrar:unpack.obj
 0001:000eba80       ?InitHuff@Unpack@@AAEXXZ   004eca80 f   unrar:unpack.obj
 0001:000ebc40       ?ReadTables20@Unpack@@AAE_NXZ 004ecc40 f   unrar:unpack.obj
 0001:000ebfd0       ?ReadLastTables@Unpack@@AAEXXZ 004ecfd0 f   unrar:unpack.obj
 0001:000ec030       ??1ModelPPM@@QAE@XZ        004ed030 f i unrar:unpack.obj
 0001:000ec040       ??1VM_PreparedProgram@@QAE@XZ 004ed040 f i unrar:unpack.obj
 0001:000ec060       ??1UnpackFilter@@QAE@XZ    004ed060 f i unrar:unpack.obj
 0001:000ec080       ?ExecuteCode@Unpack@@AAEXPAUVM_PreparedProgram@@@Z 004ed080 f   unrar:unpack.obj
 0001:000ec0f0       ?UnpWriteArea@Unpack@@AAEXII@Z 004ed0f0 f   unrar:unpack.obj
 0001:000ec160       ?ReadTables@Unpack@@AAE_NXZ 004ed160 f   unrar:unpack.obj
 0001:000ec450       ??0?$Array@E@@QAE@XZ       004ed450 f i unrar:unpack.obj
 0001:000ec460       ??0?$Array@UVM_PreparedCommand@@@@QAE@XZ 004ed460 f i unrar:unpack.obj
 0001:000ec470       ??0?$Array@PAUUnpackFilter@@@@QAE@XZ 004ed470 f i unrar:unpack.obj
 0001:000ec480       ??0VM_PreparedProgram@@QAE@XZ 004ed480 f i unrar:unpack.obj
 0001:000ec4b0       ??0Unpack@@QAE@PAVComprDataIO@@@Z 004ed4b0 f   unrar:unpack.obj
 0001:000ec560       ?ReadEndOfBlock@Unpack@@AAE_NXZ 004ed560 f   unrar:unpack.obj
